ARM GAS  /tmp/cc8DL44X.s 			page 1


   1              		.cpu cortex-m3
   2              		.eabi_attribute 20, 1
   3              		.eabi_attribute 21, 1
   4              		.eabi_attribute 23, 3
   5              		.eabi_attribute 24, 1
   6              		.eabi_attribute 25, 1
   7              		.eabi_attribute 26, 1
   8              		.eabi_attribute 30, 1
   9              		.eabi_attribute 34, 1
  10              		.eabi_attribute 18, 4
  11              		.file	"adc-board.c"
  12              		.text
  13              	.Ltext0:
  14              		.cfi_sections	.debug_frame
  15              		.section	.text.AdcMcuInit,"ax",%progbits
  16              		.align	1
  17              		.global	AdcMcuInit
  18              		.syntax unified
  19              		.thumb
  20              		.thumb_func
  21              		.fpu softvfp
  23              	AdcMcuInit:
  24              	.LFB72:
  25              		.file 1 "..//Source/stm/board/board_stm32l151cd/adc-board.c"
   1:..//Source/stm/board/board_stm32l151cd/adc-board.c **** /*!
   2:..//Source/stm/board/board_stm32l151cd/adc-board.c ****  * \file      adc-board.c
   3:..//Source/stm/board/board_stm32l151cd/adc-board.c ****  *
   4:..//Source/stm/board/board_stm32l151cd/adc-board.c ****  * \brief     Target board ADC driver implementation
   5:..//Source/stm/board/board_stm32l151cd/adc-board.c ****  *
   6:..//Source/stm/board/board_stm32l151cd/adc-board.c ****  * \copyright Revised BSD License, see section \ref LICENSE.
   7:..//Source/stm/board/board_stm32l151cd/adc-board.c ****  *
   8:..//Source/stm/board/board_stm32l151cd/adc-board.c ****  * \code
   9:..//Source/stm/board/board_stm32l151cd/adc-board.c ****  *                ______                              _
  10:..//Source/stm/board/board_stm32l151cd/adc-board.c ****  *               / _____)             _              | |
  11:..//Source/stm/board/board_stm32l151cd/adc-board.c ****  *              ( (____  _____ ____ _| |_ _____  ____| |__
  12:..//Source/stm/board/board_stm32l151cd/adc-board.c ****  *               \____ \| ___ |    (_   _) ___ |/ ___)  _ \
  13:..//Source/stm/board/board_stm32l151cd/adc-board.c ****  *               _____) ) ____| | | || |_| ____( (___| | | |
  14:..//Source/stm/board/board_stm32l151cd/adc-board.c ****  *              (______/|_____)_|_|_| \__)_____)\____)_| |_|
  15:..//Source/stm/board/board_stm32l151cd/adc-board.c ****  *              (C)2013-2017 Semtech
  16:..//Source/stm/board/board_stm32l151cd/adc-board.c ****  *
  17:..//Source/stm/board/board_stm32l151cd/adc-board.c ****  * \endcode
  18:..//Source/stm/board/board_stm32l151cd/adc-board.c ****  *
  19:..//Source/stm/board/board_stm32l151cd/adc-board.c ****  * \author    Miguel Luis ( Semtech )
  20:..//Source/stm/board/board_stm32l151cd/adc-board.c ****  *
  21:..//Source/stm/board/board_stm32l151cd/adc-board.c ****  * \author    Gregory Cristian ( Semtech )
  22:..//Source/stm/board/board_stm32l151cd/adc-board.c ****  */
  23:..//Source/stm/board/board_stm32l151cd/adc-board.c **** #include "stm32l1xx.h"
  24:..//Source/stm/board/board_stm32l151cd/adc-board.c **** #include "board-config.h"
  25:..//Source/stm/board/board_stm32l151cd/adc-board.c **** #include "adc-board.h"
  26:..//Source/stm/board/board_stm32l151cd/adc-board.c **** 
  27:..//Source/stm/board/board_stm32l151cd/adc-board.c **** ADC_HandleTypeDef AdcHandle;
  28:..//Source/stm/board/board_stm32l151cd/adc-board.c **** 
  29:..//Source/stm/board/board_stm32l151cd/adc-board.c **** void AdcMcuInit( Adc_t *obj, PinNames adcInput )
  30:..//Source/stm/board/board_stm32l151cd/adc-board.c **** {
  26              		.loc 1 30 0
  27              		.cfi_startproc
  28              		@ args = 0, pretend = 0, frame = 8
ARM GAS  /tmp/cc8DL44X.s 			page 2


  29              		@ frame_needed = 0, uses_anonymous_args = 0
  30              	.LVL0:
  31 0000 30B5     		push	{r4, r5, lr}
  32              	.LCFI0:
  33              		.cfi_def_cfa_offset 12
  34              		.cfi_offset 4, -12
  35              		.cfi_offset 5, -8
  36              		.cfi_offset 14, -4
  37 0002 85B0     		sub	sp, sp, #20
  38              	.LCFI1:
  39              		.cfi_def_cfa_offset 32
  40 0004 0546     		mov	r5, r0
  41 0006 0C46     		mov	r4, r1
  31:..//Source/stm/board/board_stm32l151cd/adc-board.c ****     AdcHandle.Instance = ( ADC_TypeDef* )ADC1_BASE;
  42              		.loc 1 31 0
  43 0008 0E48     		ldr	r0, .L4
  44              	.LVL1:
  45 000a 0F4B     		ldr	r3, .L4+4
  46 000c 0360     		str	r3, [r0]
  47              	.LBB2:
  32:..//Source/stm/board/board_stm32l151cd/adc-board.c **** 
  33:..//Source/stm/board/board_stm32l151cd/adc-board.c ****     __HAL_RCC_ADC1_CLK_ENABLE( );
  48              		.loc 1 33 0
  49 000e 03F58A33 		add	r3, r3, #70656
  50 0012 1A6A     		ldr	r2, [r3, #32]
  51 0014 42F40072 		orr	r2, r2, #512
  52 0018 1A62     		str	r2, [r3, #32]
  53 001a 1B6A     		ldr	r3, [r3, #32]
  54 001c 03F40073 		and	r3, r3, #512
  55 0020 0393     		str	r3, [sp, #12]
  56 0022 039B     		ldr	r3, [sp, #12]
  57              	.LBE2:
  34:..//Source/stm/board/board_stm32l151cd/adc-board.c **** 
  35:..//Source/stm/board/board_stm32l151cd/adc-board.c ****     HAL_ADC_DeInit( &AdcHandle );
  58              		.loc 1 35 0
  59 0024 FFF7FEFF 		bl	HAL_ADC_DeInit
  60              	.LVL2:
  36:..//Source/stm/board/board_stm32l151cd/adc-board.c **** 
  37:..//Source/stm/board/board_stm32l151cd/adc-board.c ****     if( adcInput != NC )
  61              		.loc 1 37 0
  62 0028 B4F1FF3F 		cmp	r4, #-1
  63 002c 07D0     		beq	.L1
  38:..//Source/stm/board/board_stm32l151cd/adc-board.c ****     {
  39:..//Source/stm/board/board_stm32l151cd/adc-board.c ****         GpioInit( &obj->AdcInput, adcInput, PIN_ANALOGIC, PIN_PUSH_PULL, PIN_NO_PULL, 0 );
  64              		.loc 1 39 0
  65 002e 0023     		movs	r3, #0
  66 0030 0193     		str	r3, [sp, #4]
  67 0032 0093     		str	r3, [sp]
  68 0034 0322     		movs	r2, #3
  69 0036 2146     		mov	r1, r4
  70 0038 2846     		mov	r0, r5
  71 003a FFF7FEFF 		bl	GpioInit
  72              	.LVL3:
  73              	.L1:
  40:..//Source/stm/board/board_stm32l151cd/adc-board.c ****     }
  41:..//Source/stm/board/board_stm32l151cd/adc-board.c **** }
  74              		.loc 1 41 0
ARM GAS  /tmp/cc8DL44X.s 			page 3


  75 003e 05B0     		add	sp, sp, #20
  76              	.LCFI2:
  77              		.cfi_def_cfa_offset 12
  78              		@ sp needed
  79 0040 30BD     		pop	{r4, r5, pc}
  80              	.LVL4:
  81              	.L5:
  82 0042 00BF     		.align	2
  83              	.L4:
  84 0044 00000000 		.word	AdcHandle
  85 0048 00240140 		.word	1073816576
  86              		.cfi_endproc
  87              	.LFE72:
  89              		.section	.text.AdcMcuConfig,"ax",%progbits
  90              		.align	1
  91              		.global	AdcMcuConfig
  92              		.syntax unified
  93              		.thumb
  94              		.thumb_func
  95              		.fpu softvfp
  97              	AdcMcuConfig:
  98              	.LFB73:
  42:..//Source/stm/board/board_stm32l151cd/adc-board.c **** 
  43:..//Source/stm/board/board_stm32l151cd/adc-board.c **** void AdcMcuConfig( void )
  44:..//Source/stm/board/board_stm32l151cd/adc-board.c **** {
  99              		.loc 1 44 0
 100              		.cfi_startproc
 101              		@ args = 0, pretend = 0, frame = 0
 102              		@ frame_needed = 0, uses_anonymous_args = 0
 103 0000 08B5     		push	{r3, lr}
 104              	.LCFI3:
 105              		.cfi_def_cfa_offset 8
 106              		.cfi_offset 3, -8
 107              		.cfi_offset 14, -4
  45:..//Source/stm/board/board_stm32l151cd/adc-board.c ****     // Configure ADC
  46:..//Source/stm/board/board_stm32l151cd/adc-board.c ****     AdcHandle.Init.Resolution            = ADC_RESOLUTION_12B;
 108              		.loc 1 46 0
 109 0002 0C48     		ldr	r0, .L8
 110 0004 0023     		movs	r3, #0
 111 0006 8360     		str	r3, [r0, #8]
  47:..//Source/stm/board/board_stm32l151cd/adc-board.c ****     AdcHandle.Init.DataAlign             = ADC_DATAALIGN_RIGHT;
 112              		.loc 1 47 0
 113 0008 C360     		str	r3, [r0, #12]
  48:..//Source/stm/board/board_stm32l151cd/adc-board.c ****     AdcHandle.Init.ContinuousConvMode    = DISABLE;
 114              		.loc 1 48 0
 115 000a 80F82430 		strb	r3, [r0, #36]
  49:..//Source/stm/board/board_stm32l151cd/adc-board.c ****     AdcHandle.Init.DiscontinuousConvMode = DISABLE;
 116              		.loc 1 49 0
 117 000e 80F82C30 		strb	r3, [r0, #44]
  50:..//Source/stm/board/board_stm32l151cd/adc-board.c ****     AdcHandle.Init.ExternalTrigConvEdge  = ADC_EXTERNALTRIGCONVEDGE_NONE;
 118              		.loc 1 50 0
 119 0012 8363     		str	r3, [r0, #56]
  51:..//Source/stm/board/board_stm32l151cd/adc-board.c ****     AdcHandle.Init.ExternalTrigConv      = ADC_EXTERNALTRIGCONV_T6_TRGO;
 120              		.loc 1 51 0
 121 0014 4FF02062 		mov	r2, #167772160
 122 0018 4263     		str	r2, [r0, #52]
  52:..//Source/stm/board/board_stm32l151cd/adc-board.c ****     AdcHandle.Init.DMAContinuousRequests = DISABLE;
ARM GAS  /tmp/cc8DL44X.s 			page 4


 123              		.loc 1 52 0
 124 001a 80F83C30 		strb	r3, [r0, #60]
  53:..//Source/stm/board/board_stm32l151cd/adc-board.c ****     AdcHandle.Init.EOCSelection          = ADC_EOC_SINGLE_CONV;
 125              		.loc 1 53 0
 126 001e 4FF48062 		mov	r2, #1024
 127 0022 4261     		str	r2, [r0, #20]
  54:..//Source/stm/board/board_stm32l151cd/adc-board.c ****     AdcHandle.Init.NbrOfConversion       = 1;
 128              		.loc 1 54 0
 129 0024 0122     		movs	r2, #1
 130 0026 8262     		str	r2, [r0, #40]
  55:..//Source/stm/board/board_stm32l151cd/adc-board.c ****     AdcHandle.Init.LowPowerAutoWait      = DISABLE;
 131              		.loc 1 55 0
 132 0028 8361     		str	r3, [r0, #24]
  56:..//Source/stm/board/board_stm32l151cd/adc-board.c ****     AdcHandle.Init.LowPowerAutoPowerOff  = DISABLE;
 133              		.loc 1 56 0
 134 002a C361     		str	r3, [r0, #28]
  57:..//Source/stm/board/board_stm32l151cd/adc-board.c ****     HAL_ADC_Init( &AdcHandle );
 135              		.loc 1 57 0
 136 002c FFF7FEFF 		bl	HAL_ADC_Init
 137              	.LVL5:
 138 0030 08BD     		pop	{r3, pc}
 139              	.L9:
 140 0032 00BF     		.align	2
 141              	.L8:
 142 0034 00000000 		.word	AdcHandle
 143              		.cfi_endproc
 144              	.LFE73:
 146              		.section	.text.AdcMcuReadChannel,"ax",%progbits
 147              		.align	1
 148              		.global	AdcMcuReadChannel
 149              		.syntax unified
 150              		.thumb
 151              		.thumb_func
 152              		.fpu softvfp
 154              	AdcMcuReadChannel:
 155              	.LFB74:
  58:..//Source/stm/board/board_stm32l151cd/adc-board.c **** }
  59:..//Source/stm/board/board_stm32l151cd/adc-board.c **** 
  60:..//Source/stm/board/board_stm32l151cd/adc-board.c **** uint16_t AdcMcuReadChannel( Adc_t *obj, uint32_t channel )
  61:..//Source/stm/board/board_stm32l151cd/adc-board.c **** {
 156              		.loc 1 61 0
 157              		.cfi_startproc
 158              		@ args = 0, pretend = 0, frame = 16
 159              		@ frame_needed = 0, uses_anonymous_args = 0
 160              	.LVL6:
 161 0000 30B5     		push	{r4, r5, lr}
 162              	.LCFI4:
 163              		.cfi_def_cfa_offset 12
 164              		.cfi_offset 4, -12
 165              		.cfi_offset 5, -8
 166              		.cfi_offset 14, -4
 167 0002 85B0     		sub	sp, sp, #20
 168              	.LCFI5:
 169              		.cfi_def_cfa_offset 32
  62:..//Source/stm/board/board_stm32l151cd/adc-board.c ****     ADC_ChannelConfTypeDef adcConf = { 0 };
 170              		.loc 1 62 0
 171 0004 0023     		movs	r3, #0
ARM GAS  /tmp/cc8DL44X.s 			page 5


 172 0006 0193     		str	r3, [sp, #4]
 173 0008 0293     		str	r3, [sp, #8]
 174 000a 0393     		str	r3, [sp, #12]
 175              	.LVL7:
  63:..//Source/stm/board/board_stm32l151cd/adc-board.c ****     uint16_t adcData = 0;
  64:..//Source/stm/board/board_stm32l151cd/adc-board.c **** 
  65:..//Source/stm/board/board_stm32l151cd/adc-board.c ****     // Enable HSI
  66:..//Source/stm/board/board_stm32l151cd/adc-board.c ****     __HAL_RCC_HSI_ENABLE( );
 176              		.loc 1 66 0
 177 000c 0122     		movs	r2, #1
 178 000e 224B     		ldr	r3, .L15
 179 0010 1A60     		str	r2, [r3]
 180              	.L11:
  67:..//Source/stm/board/board_stm32l151cd/adc-board.c **** 
  68:..//Source/stm/board/board_stm32l151cd/adc-board.c ****     // Wait till HSI is ready
  69:..//Source/stm/board/board_stm32l151cd/adc-board.c ****     while( __HAL_RCC_GET_FLAG( RCC_FLAG_HSIRDY ) == RESET )
 181              		.loc 1 69 0 discriminator 1
 182 0012 224B     		ldr	r3, .L15+4
 183 0014 1B68     		ldr	r3, [r3]
 184 0016 13F0020F 		tst	r3, #2
 185 001a FAD0     		beq	.L11
 186              	.LBB3:
  70:..//Source/stm/board/board_stm32l151cd/adc-board.c ****     {
  71:..//Source/stm/board/board_stm32l151cd/adc-board.c ****     }
  72:..//Source/stm/board/board_stm32l151cd/adc-board.c **** 
  73:..//Source/stm/board/board_stm32l151cd/adc-board.c ****     __HAL_RCC_ADC1_CLK_ENABLE( );
 187              		.loc 1 73 0
 188 001c 1F4B     		ldr	r3, .L15+4
 189 001e 1A6A     		ldr	r2, [r3, #32]
 190 0020 42F40072 		orr	r2, r2, #512
 191 0024 1A62     		str	r2, [r3, #32]
 192 0026 1B6A     		ldr	r3, [r3, #32]
 193 0028 03F40073 		and	r3, r3, #512
 194 002c 0093     		str	r3, [sp]
 195 002e 009B     		ldr	r3, [sp]
 196              	.LBE3:
  74:..//Source/stm/board/board_stm32l151cd/adc-board.c **** 
  75:..//Source/stm/board/board_stm32l151cd/adc-board.c ****     adcConf.Channel = channel;
 197              		.loc 1 75 0
 198 0030 0191     		str	r1, [sp, #4]
  76:..//Source/stm/board/board_stm32l151cd/adc-board.c ****     adcConf.Rank = ADC_REGULAR_RANK_1;
 199              		.loc 1 76 0
 200 0032 0123     		movs	r3, #1
 201 0034 0293     		str	r3, [sp, #8]
  77:..//Source/stm/board/board_stm32l151cd/adc-board.c ****     adcConf.SamplingTime = ADC_SAMPLETIME_192CYCLES;
 202              		.loc 1 77 0
 203 0036 0623     		movs	r3, #6
 204 0038 0393     		str	r3, [sp, #12]
  78:..//Source/stm/board/board_stm32l151cd/adc-board.c **** 
  79:..//Source/stm/board/board_stm32l151cd/adc-board.c ****     HAL_ADC_ConfigChannel( &AdcHandle, &adcConf );
 205              		.loc 1 79 0
 206 003a 194C     		ldr	r4, .L15+8
 207 003c 01A9     		add	r1, sp, #4
 208              	.LVL8:
 209 003e 2046     		mov	r0, r4
 210              	.LVL9:
 211 0040 FFF7FEFF 		bl	HAL_ADC_ConfigChannel
ARM GAS  /tmp/cc8DL44X.s 			page 6


 212              	.LVL10:
  80:..//Source/stm/board/board_stm32l151cd/adc-board.c **** 
  81:..//Source/stm/board/board_stm32l151cd/adc-board.c ****     // Enable ADC1
  82:..//Source/stm/board/board_stm32l151cd/adc-board.c ****     __HAL_ADC_ENABLE( &AdcHandle );
 213              		.loc 1 82 0
 214 0044 2268     		ldr	r2, [r4]
 215 0046 9368     		ldr	r3, [r2, #8]
 216 0048 43F00103 		orr	r3, r3, #1
 217 004c 9360     		str	r3, [r2, #8]
  83:..//Source/stm/board/board_stm32l151cd/adc-board.c **** 
  84:..//Source/stm/board/board_stm32l151cd/adc-board.c ****     // Start ADC Software Conversion
  85:..//Source/stm/board/board_stm32l151cd/adc-board.c ****     HAL_ADC_Start( &AdcHandle );
 218              		.loc 1 85 0
 219 004e 2046     		mov	r0, r4
 220 0050 FFF7FEFF 		bl	HAL_ADC_Start
 221              	.LVL11:
  86:..//Source/stm/board/board_stm32l151cd/adc-board.c **** 
  87:..//Source/stm/board/board_stm32l151cd/adc-board.c ****     HAL_ADC_PollForConversion( &AdcHandle, HAL_MAX_DELAY );
 222              		.loc 1 87 0
 223 0054 4FF0FF31 		mov	r1, #-1
 224 0058 2046     		mov	r0, r4
 225 005a FFF7FEFF 		bl	HAL_ADC_PollForConversion
 226              	.LVL12:
  88:..//Source/stm/board/board_stm32l151cd/adc-board.c **** 
  89:..//Source/stm/board/board_stm32l151cd/adc-board.c ****     adcData = HAL_ADC_GetValue( &AdcHandle );
 227              		.loc 1 89 0
 228 005e 2046     		mov	r0, r4
 229 0060 FFF7FEFF 		bl	HAL_ADC_GetValue
 230              	.LVL13:
 231 0064 85B2     		uxth	r5, r0
 232              	.LVL14:
  90:..//Source/stm/board/board_stm32l151cd/adc-board.c **** 
  91:..//Source/stm/board/board_stm32l151cd/adc-board.c ****     __HAL_ADC_DISABLE( &AdcHandle );
 233              		.loc 1 91 0
 234 0066 2268     		ldr	r2, [r4]
 235 0068 9368     		ldr	r3, [r2, #8]
 236 006a 23F00103 		bic	r3, r3, #1
 237 006e 9360     		str	r3, [r2, #8]
  92:..//Source/stm/board/board_stm32l151cd/adc-board.c **** 
  93:..//Source/stm/board/board_stm32l151cd/adc-board.c ****     if( ( adcConf.Channel == ADC_CHANNEL_TEMPSENSOR ) || ( adcConf.Channel == ADC_CHANNEL_VREFINT )
 238              		.loc 1 93 0
 239 0070 019B     		ldr	r3, [sp, #4]
 240 0072 103B     		subs	r3, r3, #16
 241 0074 012B     		cmp	r3, #1
 242 0076 0AD9     		bls	.L14
 243              	.L12:
  94:..//Source/stm/board/board_stm32l151cd/adc-board.c ****     {
  95:..//Source/stm/board/board_stm32l151cd/adc-board.c ****         HAL_ADC_DeInit( &AdcHandle );
  96:..//Source/stm/board/board_stm32l151cd/adc-board.c ****     }
  97:..//Source/stm/board/board_stm32l151cd/adc-board.c ****     __HAL_RCC_ADC1_CLK_DISABLE( );
 244              		.loc 1 97 0
 245 0078 084A     		ldr	r2, .L15+4
 246 007a 136A     		ldr	r3, [r2, #32]
 247 007c 23F40073 		bic	r3, r3, #512
 248 0080 1362     		str	r3, [r2, #32]
  98:..//Source/stm/board/board_stm32l151cd/adc-board.c **** 
  99:..//Source/stm/board/board_stm32l151cd/adc-board.c ****     // Disable HSI
ARM GAS  /tmp/cc8DL44X.s 			page 7


 100:..//Source/stm/board/board_stm32l151cd/adc-board.c ****     __HAL_RCC_HSI_DISABLE( );
 249              		.loc 1 100 0
 250 0082 0022     		movs	r2, #0
 251 0084 044B     		ldr	r3, .L15
 252 0086 1A60     		str	r2, [r3]
 101:..//Source/stm/board/board_stm32l151cd/adc-board.c **** 
 102:..//Source/stm/board/board_stm32l151cd/adc-board.c ****     return adcData;
 103:..//Source/stm/board/board_stm32l151cd/adc-board.c **** }
 253              		.loc 1 103 0
 254 0088 2846     		mov	r0, r5
 255 008a 05B0     		add	sp, sp, #20
 256              	.LCFI6:
 257              		.cfi_remember_state
 258              		.cfi_def_cfa_offset 12
 259              		@ sp needed
 260 008c 30BD     		pop	{r4, r5, pc}
 261              	.LVL15:
 262              	.L14:
 263              	.LCFI7:
 264              		.cfi_restore_state
  95:..//Source/stm/board/board_stm32l151cd/adc-board.c ****     }
 265              		.loc 1 95 0
 266 008e 2046     		mov	r0, r4
 267 0090 FFF7FEFF 		bl	HAL_ADC_DeInit
 268              	.LVL16:
 269 0094 F0E7     		b	.L12
 270              	.L16:
 271 0096 00BF     		.align	2
 272              	.L15:
 273 0098 00004742 		.word	1111949312
 274 009c 00380240 		.word	1073887232
 275 00a0 00000000 		.word	AdcHandle
 276              		.cfi_endproc
 277              	.LFE74:
 279              		.comm	AdcHandle,84,4
 280              		.text
 281              	.Letext0:
 282              		.file 2 "/usr/include/newlib/machine/_default_types.h"
 283              		.file 3 "/usr/include/newlib/sys/_stdint.h"
 284              		.file 4 "..//Source/stm/lib/CMSIS/Include/core_cm3.h"
 285              		.file 5 "..//Source/stm/lib/CMSIS/Device/ST/STM32L1xx/Include/system_stm32l1xx.h"
 286              		.file 6 "..//Source/stm/lib/CMSIS/Device/ST/STM32L1xx/Include/stm32l151xba.h"
 287              		.file 7 "..//Source/stm/lib/CMSIS/Device/ST/STM32L1xx/Include/stm32l1xx.h"
 288              		.file 8 "..//Source/stm/lib/STM32L1xx_HAL_Driver/Inc/stm32l1xx_hal_def.h"
 289              		.file 9 "..//Source/stm/lib/STM32L1xx_HAL_Driver/Inc/stm32l1xx_hal_dma.h"
 290              		.file 10 "..//Source/stm/lib/STM32L1xx_HAL_Driver/Inc/stm32l1xx_hal_adc.h"
 291              		.file 11 "..//Source/stm/lib/STM32L1xx_HAL_Driver/Inc/stm32l1xx_hal.h"
 292              		.file 12 "..//Source/stm/hal/gpio.h"
 293              		.file 13 "..//Source/stm/hal/adc.h"
ARM GAS  /tmp/cc8DL44X.s 			page 8

