ARM GAS  /tmp/ccswGXPI.s 			page 1


   1              		.cpu cortex-m3
   2              		.eabi_attribute 20, 1
   3              		.eabi_attribute 21, 1
   4              		.eabi_attribute 23, 3
   5              		.eabi_attribute 24, 1
   6              		.eabi_attribute 25, 1
   7              		.eabi_attribute 26, 1
   8              		.eabi_attribute 30, 1
   9              		.eabi_attribute 34, 1
  10              		.eabi_attribute 18, 4
  11              		.file	"stm32l1xx_hal_msp_template.c"
  12              		.text
  13              	.Ltext0:
  14              		.cfi_sections	.debug_frame
  15              		.section	.text.HAL_MspInit,"ax",%progbits
  16              		.align	1
  17              		.global	HAL_MspInit
  18              		.syntax unified
  19              		.thumb
  20              		.thumb_func
  21              		.fpu softvfp
  23              	HAL_MspInit:
  24              	.LFB72:
  25              		.file 1 "..//Source/stm/lib/STM32L1xx_HAL_Driver/Src/stm32l1xx_hal_msp_template.c"
   1:..//Source/stm/lib/STM32L1xx_HAL_Driver/Src/stm32l1xx_hal_msp_template.c **** /**
   2:..//Source/stm/lib/STM32L1xx_HAL_Driver/Src/stm32l1xx_hal_msp_template.c ****   ******************************************************************************
   3:..//Source/stm/lib/STM32L1xx_HAL_Driver/Src/stm32l1xx_hal_msp_template.c ****   * @file    stm32l1xx_hal_msp_template.c
   4:..//Source/stm/lib/STM32L1xx_HAL_Driver/Src/stm32l1xx_hal_msp_template.c ****   * @author  MCD Application Team
   5:..//Source/stm/lib/STM32L1xx_HAL_Driver/Src/stm32l1xx_hal_msp_template.c ****   * @brief   HAL MSP module.
   6:..//Source/stm/lib/STM32L1xx_HAL_Driver/Src/stm32l1xx_hal_msp_template.c ****   *          This file template is located in the HAL folder and should be copied
   7:..//Source/stm/lib/STM32L1xx_HAL_Driver/Src/stm32l1xx_hal_msp_template.c ****   *          to the user folder.
   8:..//Source/stm/lib/STM32L1xx_HAL_Driver/Src/stm32l1xx_hal_msp_template.c ****   ******************************************************************************
   9:..//Source/stm/lib/STM32L1xx_HAL_Driver/Src/stm32l1xx_hal_msp_template.c ****   * @attention
  10:..//Source/stm/lib/STM32L1xx_HAL_Driver/Src/stm32l1xx_hal_msp_template.c ****   *
  11:..//Source/stm/lib/STM32L1xx_HAL_Driver/Src/stm32l1xx_hal_msp_template.c ****   * <h2><center>&copy; Copyright (c) 2017 STMicroelectronics.
  12:..//Source/stm/lib/STM32L1xx_HAL_Driver/Src/stm32l1xx_hal_msp_template.c ****   * All rights reserved.</center></h2>
  13:..//Source/stm/lib/STM32L1xx_HAL_Driver/Src/stm32l1xx_hal_msp_template.c ****   *
  14:..//Source/stm/lib/STM32L1xx_HAL_Driver/Src/stm32l1xx_hal_msp_template.c ****   * This software component is licensed by ST under BSD 3-Clause license,
  15:..//Source/stm/lib/STM32L1xx_HAL_Driver/Src/stm32l1xx_hal_msp_template.c ****   * the "License"; You may not use this file except in compliance with the
  16:..//Source/stm/lib/STM32L1xx_HAL_Driver/Src/stm32l1xx_hal_msp_template.c ****   * License. You may obtain a copy of the License at:
  17:..//Source/stm/lib/STM32L1xx_HAL_Driver/Src/stm32l1xx_hal_msp_template.c ****   *                        opensource.org/licenses/BSD-3-Clause
  18:..//Source/stm/lib/STM32L1xx_HAL_Driver/Src/stm32l1xx_hal_msp_template.c ****   *
  19:..//Source/stm/lib/STM32L1xx_HAL_Driver/Src/stm32l1xx_hal_msp_template.c ****   ******************************************************************************
  20:..//Source/stm/lib/STM32L1xx_HAL_Driver/Src/stm32l1xx_hal_msp_template.c ****   */
  21:..//Source/stm/lib/STM32L1xx_HAL_Driver/Src/stm32l1xx_hal_msp_template.c **** 
  22:..//Source/stm/lib/STM32L1xx_HAL_Driver/Src/stm32l1xx_hal_msp_template.c **** /* Includes ------------------------------------------------------------------*/
  23:..//Source/stm/lib/STM32L1xx_HAL_Driver/Src/stm32l1xx_hal_msp_template.c **** #include "stm32l1xx_hal.h"
  24:..//Source/stm/lib/STM32L1xx_HAL_Driver/Src/stm32l1xx_hal_msp_template.c **** 
  25:..//Source/stm/lib/STM32L1xx_HAL_Driver/Src/stm32l1xx_hal_msp_template.c **** /** @addtogroup STM32L1xx_HAL_Driver
  26:..//Source/stm/lib/STM32L1xx_HAL_Driver/Src/stm32l1xx_hal_msp_template.c ****   * @{
  27:..//Source/stm/lib/STM32L1xx_HAL_Driver/Src/stm32l1xx_hal_msp_template.c ****   */
  28:..//Source/stm/lib/STM32L1xx_HAL_Driver/Src/stm32l1xx_hal_msp_template.c **** 
  29:..//Source/stm/lib/STM32L1xx_HAL_Driver/Src/stm32l1xx_hal_msp_template.c **** /** @defgroup HAL_MSP HAL_MSP
  30:..//Source/stm/lib/STM32L1xx_HAL_Driver/Src/stm32l1xx_hal_msp_template.c ****   * @brief HAL MSP module.
  31:..//Source/stm/lib/STM32L1xx_HAL_Driver/Src/stm32l1xx_hal_msp_template.c ****   * @{
  32:..//Source/stm/lib/STM32L1xx_HAL_Driver/Src/stm32l1xx_hal_msp_template.c ****   */
  33:..//Source/stm/lib/STM32L1xx_HAL_Driver/Src/stm32l1xx_hal_msp_template.c **** 
ARM GAS  /tmp/ccswGXPI.s 			page 2


  34:..//Source/stm/lib/STM32L1xx_HAL_Driver/Src/stm32l1xx_hal_msp_template.c **** /* Private typedef -----------------------------------------------------------*/
  35:..//Source/stm/lib/STM32L1xx_HAL_Driver/Src/stm32l1xx_hal_msp_template.c **** /* Private define ------------------------------------------------------------*/
  36:..//Source/stm/lib/STM32L1xx_HAL_Driver/Src/stm32l1xx_hal_msp_template.c **** /* Private macro -------------------------------------------------------------*/
  37:..//Source/stm/lib/STM32L1xx_HAL_Driver/Src/stm32l1xx_hal_msp_template.c **** /* Private variables ---------------------------------------------------------*/
  38:..//Source/stm/lib/STM32L1xx_HAL_Driver/Src/stm32l1xx_hal_msp_template.c **** /* Private function prototypes -----------------------------------------------*/
  39:..//Source/stm/lib/STM32L1xx_HAL_Driver/Src/stm32l1xx_hal_msp_template.c **** /* Private functions ---------------------------------------------------------*/
  40:..//Source/stm/lib/STM32L1xx_HAL_Driver/Src/stm32l1xx_hal_msp_template.c **** 
  41:..//Source/stm/lib/STM32L1xx_HAL_Driver/Src/stm32l1xx_hal_msp_template.c **** /** @defgroup HAL_MSP_Exported_Functions HAL MSP Exported Functions
  42:..//Source/stm/lib/STM32L1xx_HAL_Driver/Src/stm32l1xx_hal_msp_template.c ****   * @{
  43:..//Source/stm/lib/STM32L1xx_HAL_Driver/Src/stm32l1xx_hal_msp_template.c ****   */
  44:..//Source/stm/lib/STM32L1xx_HAL_Driver/Src/stm32l1xx_hal_msp_template.c **** 
  45:..//Source/stm/lib/STM32L1xx_HAL_Driver/Src/stm32l1xx_hal_msp_template.c **** /**
  46:..//Source/stm/lib/STM32L1xx_HAL_Driver/Src/stm32l1xx_hal_msp_template.c ****   * @brief  Initializes the Global MSP.
  47:..//Source/stm/lib/STM32L1xx_HAL_Driver/Src/stm32l1xx_hal_msp_template.c ****   * @retval None
  48:..//Source/stm/lib/STM32L1xx_HAL_Driver/Src/stm32l1xx_hal_msp_template.c ****   */
  49:..//Source/stm/lib/STM32L1xx_HAL_Driver/Src/stm32l1xx_hal_msp_template.c **** void HAL_MspInit(void)
  50:..//Source/stm/lib/STM32L1xx_HAL_Driver/Src/stm32l1xx_hal_msp_template.c **** {
  26              		.loc 1 50 0
  27              		.cfi_startproc
  28              		@ args = 0, pretend = 0, frame = 0
  29              		@ frame_needed = 0, uses_anonymous_args = 0
  30              		@ link register save eliminated.
  31 0000 7047     		bx	lr
  32              		.cfi_endproc
  33              	.LFE72:
  35              		.section	.text.HAL_MspDeInit,"ax",%progbits
  36              		.align	1
  37              		.global	HAL_MspDeInit
  38              		.syntax unified
  39              		.thumb
  40              		.thumb_func
  41              		.fpu softvfp
  43              	HAL_MspDeInit:
  44              	.LFB73:
  51:..//Source/stm/lib/STM32L1xx_HAL_Driver/Src/stm32l1xx_hal_msp_template.c ****   /* NOTE : This function is generated automatically by STM32CubeMX and eventually
  52:..//Source/stm/lib/STM32L1xx_HAL_Driver/Src/stm32l1xx_hal_msp_template.c ****             modified by the user
  53:..//Source/stm/lib/STM32L1xx_HAL_Driver/Src/stm32l1xx_hal_msp_template.c ****    */
  54:..//Source/stm/lib/STM32L1xx_HAL_Driver/Src/stm32l1xx_hal_msp_template.c **** }
  55:..//Source/stm/lib/STM32L1xx_HAL_Driver/Src/stm32l1xx_hal_msp_template.c **** 
  56:..//Source/stm/lib/STM32L1xx_HAL_Driver/Src/stm32l1xx_hal_msp_template.c **** /**
  57:..//Source/stm/lib/STM32L1xx_HAL_Driver/Src/stm32l1xx_hal_msp_template.c ****   * @brief  DeInitializes the Global MSP.
  58:..//Source/stm/lib/STM32L1xx_HAL_Driver/Src/stm32l1xx_hal_msp_template.c ****   * @retval None
  59:..//Source/stm/lib/STM32L1xx_HAL_Driver/Src/stm32l1xx_hal_msp_template.c ****   */
  60:..//Source/stm/lib/STM32L1xx_HAL_Driver/Src/stm32l1xx_hal_msp_template.c **** void HAL_MspDeInit(void)
  61:..//Source/stm/lib/STM32L1xx_HAL_Driver/Src/stm32l1xx_hal_msp_template.c **** {
  45              		.loc 1 61 0
  46              		.cfi_startproc
  47              		@ args = 0, pretend = 0, frame = 0
  48              		@ frame_needed = 0, uses_anonymous_args = 0
  49              		@ link register save eliminated.
  50 0000 7047     		bx	lr
  51              		.cfi_endproc
  52              	.LFE73:
  54              		.section	.text.HAL_PPP_MspInit,"ax",%progbits
  55              		.align	1
  56              		.global	HAL_PPP_MspInit
  57              		.syntax unified
ARM GAS  /tmp/ccswGXPI.s 			page 3


  58              		.thumb
  59              		.thumb_func
  60              		.fpu softvfp
  62              	HAL_PPP_MspInit:
  63              	.LFB74:
  62:..//Source/stm/lib/STM32L1xx_HAL_Driver/Src/stm32l1xx_hal_msp_template.c ****   /* NOTE : This function is generated automatically by STM32CubeMX and eventually
  63:..//Source/stm/lib/STM32L1xx_HAL_Driver/Src/stm32l1xx_hal_msp_template.c ****             modified by the user
  64:..//Source/stm/lib/STM32L1xx_HAL_Driver/Src/stm32l1xx_hal_msp_template.c ****    */
  65:..//Source/stm/lib/STM32L1xx_HAL_Driver/Src/stm32l1xx_hal_msp_template.c **** }
  66:..//Source/stm/lib/STM32L1xx_HAL_Driver/Src/stm32l1xx_hal_msp_template.c **** 
  67:..//Source/stm/lib/STM32L1xx_HAL_Driver/Src/stm32l1xx_hal_msp_template.c **** /**
  68:..//Source/stm/lib/STM32L1xx_HAL_Driver/Src/stm32l1xx_hal_msp_template.c ****   * @brief  Initializes the PPP MSP.
  69:..//Source/stm/lib/STM32L1xx_HAL_Driver/Src/stm32l1xx_hal_msp_template.c ****   * @retval None
  70:..//Source/stm/lib/STM32L1xx_HAL_Driver/Src/stm32l1xx_hal_msp_template.c ****   */
  71:..//Source/stm/lib/STM32L1xx_HAL_Driver/Src/stm32l1xx_hal_msp_template.c **** void HAL_PPP_MspInit(void)
  72:..//Source/stm/lib/STM32L1xx_HAL_Driver/Src/stm32l1xx_hal_msp_template.c **** {
  64              		.loc 1 72 0
  65              		.cfi_startproc
  66              		@ args = 0, pretend = 0, frame = 0
  67              		@ frame_needed = 0, uses_anonymous_args = 0
  68              		@ link register save eliminated.
  69 0000 7047     		bx	lr
  70              		.cfi_endproc
  71              	.LFE74:
  73              		.section	.text.HAL_PPP_MspDeInit,"ax",%progbits
  74              		.align	1
  75              		.global	HAL_PPP_MspDeInit
  76              		.syntax unified
  77              		.thumb
  78              		.thumb_func
  79              		.fpu softvfp
  81              	HAL_PPP_MspDeInit:
  82              	.LFB75:
  73:..//Source/stm/lib/STM32L1xx_HAL_Driver/Src/stm32l1xx_hal_msp_template.c ****   /* NOTE : This function is generated automatically by STM32CubeMX and eventually
  74:..//Source/stm/lib/STM32L1xx_HAL_Driver/Src/stm32l1xx_hal_msp_template.c ****             modified by the user
  75:..//Source/stm/lib/STM32L1xx_HAL_Driver/Src/stm32l1xx_hal_msp_template.c ****    */
  76:..//Source/stm/lib/STM32L1xx_HAL_Driver/Src/stm32l1xx_hal_msp_template.c **** }
  77:..//Source/stm/lib/STM32L1xx_HAL_Driver/Src/stm32l1xx_hal_msp_template.c **** 
  78:..//Source/stm/lib/STM32L1xx_HAL_Driver/Src/stm32l1xx_hal_msp_template.c **** /**
  79:..//Source/stm/lib/STM32L1xx_HAL_Driver/Src/stm32l1xx_hal_msp_template.c ****   * @brief  DeInitializes the PPP MSP.
  80:..//Source/stm/lib/STM32L1xx_HAL_Driver/Src/stm32l1xx_hal_msp_template.c ****   * @retval None
  81:..//Source/stm/lib/STM32L1xx_HAL_Driver/Src/stm32l1xx_hal_msp_template.c ****   */
  82:..//Source/stm/lib/STM32L1xx_HAL_Driver/Src/stm32l1xx_hal_msp_template.c **** void HAL_PPP_MspDeInit(void)
  83:..//Source/stm/lib/STM32L1xx_HAL_Driver/Src/stm32l1xx_hal_msp_template.c **** {
  83              		.loc 1 83 0
  84              		.cfi_startproc
  85              		@ args = 0, pretend = 0, frame = 0
  86              		@ frame_needed = 0, uses_anonymous_args = 0
  87              		@ link register save eliminated.
  88 0000 7047     		bx	lr
  89              		.cfi_endproc
  90              	.LFE75:
  92              		.text
  93              	.Letext0:
  94              		.file 2 "/usr/include/newlib/machine/_default_types.h"
  95              		.file 3 "/usr/include/newlib/sys/_stdint.h"
  96              		.file 4 "..//Source/stm/lib/CMSIS/Include/core_cm3.h"
ARM GAS  /tmp/ccswGXPI.s 			page 4


  97              		.file 5 "..//Source/stm/lib/CMSIS/Device/ST/STM32L1xx/Include/system_stm32l1xx.h"
  98              		.file 6 "..//Source/stm/lib/STM32L1xx_HAL_Driver/Inc/stm32l1xx_hal.h"
ARM GAS  /tmp/ccswGXPI.s 			page 5

