ARM GAS  /tmp/cctrNPm4.s 			page 1


   1              		.cpu cortex-m3
   2              		.eabi_attribute 20, 1
   3              		.eabi_attribute 21, 1
   4              		.eabi_attribute 23, 3
   5              		.eabi_attribute 24, 1
   6              		.eabi_attribute 25, 1
   7              		.eabi_attribute 26, 1
   8              		.eabi_attribute 30, 1
   9              		.eabi_attribute 34, 1
  10              		.eabi_attribute 18, 4
  11              		.file	"stm32l1xx_hal_dma.c"
  12              		.text
  13              	.Ltext0:
  14              		.cfi_sections	.debug_frame
  15              		.section	.text.DMA_SetConfig,"ax",%progbits
  16              		.align	1
  17              		.syntax unified
  18              		.thumb
  19              		.thumb_func
  20              		.fpu softvfp
  22              	DMA_SetConfig:
  23              	.LFB84:
  24              		.file 1 "..//Source/stm/lib/STM32L1xx_HAL_Driver/Src/stm32l1xx_hal_dma.c"
   1:..//Source/stm/lib/STM32L1xx_HAL_Driver/Src/stm32l1xx_hal_dma.c **** /**
   2:..//Source/stm/lib/STM32L1xx_HAL_Driver/Src/stm32l1xx_hal_dma.c ****   ******************************************************************************
   3:..//Source/stm/lib/STM32L1xx_HAL_Driver/Src/stm32l1xx_hal_dma.c ****   * @file    stm32l1xx_hal_dma.c
   4:..//Source/stm/lib/STM32L1xx_HAL_Driver/Src/stm32l1xx_hal_dma.c ****   * @author  MCD Application Team
   5:..//Source/stm/lib/STM32L1xx_HAL_Driver/Src/stm32l1xx_hal_dma.c ****   * @brief   DMA HAL module driver.
   6:..//Source/stm/lib/STM32L1xx_HAL_Driver/Src/stm32l1xx_hal_dma.c ****   *          This file provides firmware functions to manage the following
   7:..//Source/stm/lib/STM32L1xx_HAL_Driver/Src/stm32l1xx_hal_dma.c ****   *          functionalities of the Direct Memory Access (DMA) peripheral:
   8:..//Source/stm/lib/STM32L1xx_HAL_Driver/Src/stm32l1xx_hal_dma.c ****   *           + Initialization and de-initialization functions
   9:..//Source/stm/lib/STM32L1xx_HAL_Driver/Src/stm32l1xx_hal_dma.c ****   *           + IO operation functions
  10:..//Source/stm/lib/STM32L1xx_HAL_Driver/Src/stm32l1xx_hal_dma.c ****   *           + Peripheral State and errors functions
  11:..//Source/stm/lib/STM32L1xx_HAL_Driver/Src/stm32l1xx_hal_dma.c ****   @verbatim
  12:..//Source/stm/lib/STM32L1xx_HAL_Driver/Src/stm32l1xx_hal_dma.c ****   ==============================================================================
  13:..//Source/stm/lib/STM32L1xx_HAL_Driver/Src/stm32l1xx_hal_dma.c ****                         ##### How to use this driver #####
  14:..//Source/stm/lib/STM32L1xx_HAL_Driver/Src/stm32l1xx_hal_dma.c ****   ==============================================================================
  15:..//Source/stm/lib/STM32L1xx_HAL_Driver/Src/stm32l1xx_hal_dma.c ****   [..]
  16:..//Source/stm/lib/STM32L1xx_HAL_Driver/Src/stm32l1xx_hal_dma.c ****    (#) Enable and configure the peripheral to be connected to the DMA Channel
  17:..//Source/stm/lib/STM32L1xx_HAL_Driver/Src/stm32l1xx_hal_dma.c ****        (except for internal SRAM / FLASH memories: no initialization is
  18:..//Source/stm/lib/STM32L1xx_HAL_Driver/Src/stm32l1xx_hal_dma.c ****        necessary). Please refer to the Reference manual for connection between peripherals
  19:..//Source/stm/lib/STM32L1xx_HAL_Driver/Src/stm32l1xx_hal_dma.c ****        and DMA requests.
  20:..//Source/stm/lib/STM32L1xx_HAL_Driver/Src/stm32l1xx_hal_dma.c **** 
  21:..//Source/stm/lib/STM32L1xx_HAL_Driver/Src/stm32l1xx_hal_dma.c ****    (#) For a given Channel, program the required configuration through the following parameters:
  22:..//Source/stm/lib/STM32L1xx_HAL_Driver/Src/stm32l1xx_hal_dma.c ****        Channel request, Transfer Direction, Source and Destination data formats,
  23:..//Source/stm/lib/STM32L1xx_HAL_Driver/Src/stm32l1xx_hal_dma.c ****        Circular or Normal mode, Channel Priority level, Source and Destination Increment mode
  24:..//Source/stm/lib/STM32L1xx_HAL_Driver/Src/stm32l1xx_hal_dma.c ****        using HAL_DMA_Init() function.
  25:..//Source/stm/lib/STM32L1xx_HAL_Driver/Src/stm32l1xx_hal_dma.c **** 
  26:..//Source/stm/lib/STM32L1xx_HAL_Driver/Src/stm32l1xx_hal_dma.c ****    (#) Use HAL_DMA_GetState() function to return the DMA state and HAL_DMA_GetError() in case of er
  27:..//Source/stm/lib/STM32L1xx_HAL_Driver/Src/stm32l1xx_hal_dma.c ****        detection.
  28:..//Source/stm/lib/STM32L1xx_HAL_Driver/Src/stm32l1xx_hal_dma.c **** 
  29:..//Source/stm/lib/STM32L1xx_HAL_Driver/Src/stm32l1xx_hal_dma.c ****    (#) Use HAL_DMA_Abort() function to abort the current transfer
  30:..//Source/stm/lib/STM32L1xx_HAL_Driver/Src/stm32l1xx_hal_dma.c **** 
  31:..//Source/stm/lib/STM32L1xx_HAL_Driver/Src/stm32l1xx_hal_dma.c ****      -@-   In Memory-to-Memory transfer mode, Circular mode is not allowed.
  32:..//Source/stm/lib/STM32L1xx_HAL_Driver/Src/stm32l1xx_hal_dma.c ****      *** Polling mode IO operation ***
  33:..//Source/stm/lib/STM32L1xx_HAL_Driver/Src/stm32l1xx_hal_dma.c ****      =================================
  34:..//Source/stm/lib/STM32L1xx_HAL_Driver/Src/stm32l1xx_hal_dma.c ****      [..]
ARM GAS  /tmp/cctrNPm4.s 			page 2


  35:..//Source/stm/lib/STM32L1xx_HAL_Driver/Src/stm32l1xx_hal_dma.c ****        (+) Use HAL_DMA_Start() to start DMA transfer after the configuration of Source
  36:..//Source/stm/lib/STM32L1xx_HAL_Driver/Src/stm32l1xx_hal_dma.c ****            address and destination address and the Length of data to be transferred
  37:..//Source/stm/lib/STM32L1xx_HAL_Driver/Src/stm32l1xx_hal_dma.c ****        (+) Use HAL_DMA_PollForTransfer() to poll for the end of current transfer, in this
  38:..//Source/stm/lib/STM32L1xx_HAL_Driver/Src/stm32l1xx_hal_dma.c ****            case a fixed Timeout can be configured by User depending from his application.
  39:..//Source/stm/lib/STM32L1xx_HAL_Driver/Src/stm32l1xx_hal_dma.c **** 
  40:..//Source/stm/lib/STM32L1xx_HAL_Driver/Src/stm32l1xx_hal_dma.c ****      *** Interrupt mode IO operation ***
  41:..//Source/stm/lib/STM32L1xx_HAL_Driver/Src/stm32l1xx_hal_dma.c ****      ===================================
  42:..//Source/stm/lib/STM32L1xx_HAL_Driver/Src/stm32l1xx_hal_dma.c ****      [..]
  43:..//Source/stm/lib/STM32L1xx_HAL_Driver/Src/stm32l1xx_hal_dma.c ****        (+) Configure the DMA interrupt priority using HAL_NVIC_SetPriority()
  44:..//Source/stm/lib/STM32L1xx_HAL_Driver/Src/stm32l1xx_hal_dma.c ****        (+) Enable the DMA IRQ handler using HAL_NVIC_EnableIRQ()
  45:..//Source/stm/lib/STM32L1xx_HAL_Driver/Src/stm32l1xx_hal_dma.c ****        (+) Use HAL_DMA_Start_IT() to start DMA transfer after the configuration of
  46:..//Source/stm/lib/STM32L1xx_HAL_Driver/Src/stm32l1xx_hal_dma.c ****            Source address and destination address and the Length of data to be transferred.
  47:..//Source/stm/lib/STM32L1xx_HAL_Driver/Src/stm32l1xx_hal_dma.c ****            In this case the DMA interrupt is configured
  48:..//Source/stm/lib/STM32L1xx_HAL_Driver/Src/stm32l1xx_hal_dma.c ****        (+) Use HAL_DMA_IRQHandler() called under DMA_IRQHandler() Interrupt subroutine
  49:..//Source/stm/lib/STM32L1xx_HAL_Driver/Src/stm32l1xx_hal_dma.c ****        (+) At the end of data transfer HAL_DMA_IRQHandler() function is executed and user can
  50:..//Source/stm/lib/STM32L1xx_HAL_Driver/Src/stm32l1xx_hal_dma.c ****               add his own function to register callbacks with HAL_DMA_RegisterCallback().
  51:..//Source/stm/lib/STM32L1xx_HAL_Driver/Src/stm32l1xx_hal_dma.c **** 
  52:..//Source/stm/lib/STM32L1xx_HAL_Driver/Src/stm32l1xx_hal_dma.c ****      *** DMA HAL driver macros list ***
  53:..//Source/stm/lib/STM32L1xx_HAL_Driver/Src/stm32l1xx_hal_dma.c ****      =============================================
  54:..//Source/stm/lib/STM32L1xx_HAL_Driver/Src/stm32l1xx_hal_dma.c ****      [..]
  55:..//Source/stm/lib/STM32L1xx_HAL_Driver/Src/stm32l1xx_hal_dma.c ****        Below the list of macros in DMA HAL driver.
  56:..//Source/stm/lib/STM32L1xx_HAL_Driver/Src/stm32l1xx_hal_dma.c **** 
  57:..//Source/stm/lib/STM32L1xx_HAL_Driver/Src/stm32l1xx_hal_dma.c ****        (+) __HAL_DMA_ENABLE: Enable the specified DMA Channel.
  58:..//Source/stm/lib/STM32L1xx_HAL_Driver/Src/stm32l1xx_hal_dma.c ****        (+) __HAL_DMA_DISABLE: Disable the specified DMA Channel.
  59:..//Source/stm/lib/STM32L1xx_HAL_Driver/Src/stm32l1xx_hal_dma.c ****        (+) __HAL_DMA_GET_FLAG: Get the DMA Channel pending flags.
  60:..//Source/stm/lib/STM32L1xx_HAL_Driver/Src/stm32l1xx_hal_dma.c ****        (+) __HAL_DMA_CLEAR_FLAG: Clear the DMA Channel pending flags.
  61:..//Source/stm/lib/STM32L1xx_HAL_Driver/Src/stm32l1xx_hal_dma.c ****        (+) __HAL_DMA_ENABLE_IT: Enable the specified DMA Channel interrupts.
  62:..//Source/stm/lib/STM32L1xx_HAL_Driver/Src/stm32l1xx_hal_dma.c ****        (+) __HAL_DMA_DISABLE_IT: Disable the specified DMA Channel interrupts.
  63:..//Source/stm/lib/STM32L1xx_HAL_Driver/Src/stm32l1xx_hal_dma.c ****        (+) __HAL_DMA_GET_IT_SOURCE: Check whether the specified DMA Channel interrupt is enabled or
  64:..//Source/stm/lib/STM32L1xx_HAL_Driver/Src/stm32l1xx_hal_dma.c **** 
  65:..//Source/stm/lib/STM32L1xx_HAL_Driver/Src/stm32l1xx_hal_dma.c ****      [..]
  66:..//Source/stm/lib/STM32L1xx_HAL_Driver/Src/stm32l1xx_hal_dma.c ****       (@) You can refer to the DMA HAL driver header file for more useful macros
  67:..//Source/stm/lib/STM32L1xx_HAL_Driver/Src/stm32l1xx_hal_dma.c **** 
  68:..//Source/stm/lib/STM32L1xx_HAL_Driver/Src/stm32l1xx_hal_dma.c ****   @endverbatim
  69:..//Source/stm/lib/STM32L1xx_HAL_Driver/Src/stm32l1xx_hal_dma.c ****   ******************************************************************************
  70:..//Source/stm/lib/STM32L1xx_HAL_Driver/Src/stm32l1xx_hal_dma.c ****   * @attention
  71:..//Source/stm/lib/STM32L1xx_HAL_Driver/Src/stm32l1xx_hal_dma.c ****   *
  72:..//Source/stm/lib/STM32L1xx_HAL_Driver/Src/stm32l1xx_hal_dma.c ****   * <h2><center>&copy; Copyright (c) 2017 STMicroelectronics.
  73:..//Source/stm/lib/STM32L1xx_HAL_Driver/Src/stm32l1xx_hal_dma.c ****   * All rights reserved.</center></h2>
  74:..//Source/stm/lib/STM32L1xx_HAL_Driver/Src/stm32l1xx_hal_dma.c ****   *
  75:..//Source/stm/lib/STM32L1xx_HAL_Driver/Src/stm32l1xx_hal_dma.c ****   * This software component is licensed by ST under BSD 3-Clause license,
  76:..//Source/stm/lib/STM32L1xx_HAL_Driver/Src/stm32l1xx_hal_dma.c ****   * the "License"; You may not use this file except in compliance with the
  77:..//Source/stm/lib/STM32L1xx_HAL_Driver/Src/stm32l1xx_hal_dma.c ****   * License. You may obtain a copy of the License at:
  78:..//Source/stm/lib/STM32L1xx_HAL_Driver/Src/stm32l1xx_hal_dma.c ****   *                        opensource.org/licenses/BSD-3-Clause
  79:..//Source/stm/lib/STM32L1xx_HAL_Driver/Src/stm32l1xx_hal_dma.c ****   *
  80:..//Source/stm/lib/STM32L1xx_HAL_Driver/Src/stm32l1xx_hal_dma.c ****   ******************************************************************************
  81:..//Source/stm/lib/STM32L1xx_HAL_Driver/Src/stm32l1xx_hal_dma.c ****   */
  82:..//Source/stm/lib/STM32L1xx_HAL_Driver/Src/stm32l1xx_hal_dma.c **** 
  83:..//Source/stm/lib/STM32L1xx_HAL_Driver/Src/stm32l1xx_hal_dma.c **** /* Includes ------------------------------------------------------------------*/
  84:..//Source/stm/lib/STM32L1xx_HAL_Driver/Src/stm32l1xx_hal_dma.c **** #include "stm32l1xx_hal.h"
  85:..//Source/stm/lib/STM32L1xx_HAL_Driver/Src/stm32l1xx_hal_dma.c **** 
  86:..//Source/stm/lib/STM32L1xx_HAL_Driver/Src/stm32l1xx_hal_dma.c **** /** @addtogroup STM32L1xx_HAL_Driver
  87:..//Source/stm/lib/STM32L1xx_HAL_Driver/Src/stm32l1xx_hal_dma.c ****   * @{
  88:..//Source/stm/lib/STM32L1xx_HAL_Driver/Src/stm32l1xx_hal_dma.c ****   */
  89:..//Source/stm/lib/STM32L1xx_HAL_Driver/Src/stm32l1xx_hal_dma.c **** 
  90:..//Source/stm/lib/STM32L1xx_HAL_Driver/Src/stm32l1xx_hal_dma.c **** /** @defgroup DMA DMA
  91:..//Source/stm/lib/STM32L1xx_HAL_Driver/Src/stm32l1xx_hal_dma.c ****   * @brief DMA HAL module driver
ARM GAS  /tmp/cctrNPm4.s 			page 3


  92:..//Source/stm/lib/STM32L1xx_HAL_Driver/Src/stm32l1xx_hal_dma.c ****   * @{
  93:..//Source/stm/lib/STM32L1xx_HAL_Driver/Src/stm32l1xx_hal_dma.c ****   */
  94:..//Source/stm/lib/STM32L1xx_HAL_Driver/Src/stm32l1xx_hal_dma.c **** 
  95:..//Source/stm/lib/STM32L1xx_HAL_Driver/Src/stm32l1xx_hal_dma.c **** #ifdef HAL_DMA_MODULE_ENABLED
  96:..//Source/stm/lib/STM32L1xx_HAL_Driver/Src/stm32l1xx_hal_dma.c **** 
  97:..//Source/stm/lib/STM32L1xx_HAL_Driver/Src/stm32l1xx_hal_dma.c **** /* Private typedef -----------------------------------------------------------*/
  98:..//Source/stm/lib/STM32L1xx_HAL_Driver/Src/stm32l1xx_hal_dma.c **** /* Private define ------------------------------------------------------------*/
  99:..//Source/stm/lib/STM32L1xx_HAL_Driver/Src/stm32l1xx_hal_dma.c **** /* Private macro -------------------------------------------------------------*/
 100:..//Source/stm/lib/STM32L1xx_HAL_Driver/Src/stm32l1xx_hal_dma.c **** /* Private variables ---------------------------------------------------------*/
 101:..//Source/stm/lib/STM32L1xx_HAL_Driver/Src/stm32l1xx_hal_dma.c **** /* Private function prototypes -----------------------------------------------*/
 102:..//Source/stm/lib/STM32L1xx_HAL_Driver/Src/stm32l1xx_hal_dma.c **** /** @defgroup DMA_Private_Functions DMA Private Functions
 103:..//Source/stm/lib/STM32L1xx_HAL_Driver/Src/stm32l1xx_hal_dma.c ****   * @{
 104:..//Source/stm/lib/STM32L1xx_HAL_Driver/Src/stm32l1xx_hal_dma.c ****   */
 105:..//Source/stm/lib/STM32L1xx_HAL_Driver/Src/stm32l1xx_hal_dma.c **** 
 106:..//Source/stm/lib/STM32L1xx_HAL_Driver/Src/stm32l1xx_hal_dma.c **** static void DMA_SetConfig(DMA_HandleTypeDef *hdma, uint32_t SrcAddress, uint32_t DstAddress, uint32
 107:..//Source/stm/lib/STM32L1xx_HAL_Driver/Src/stm32l1xx_hal_dma.c **** /**
 108:..//Source/stm/lib/STM32L1xx_HAL_Driver/Src/stm32l1xx_hal_dma.c ****   * @}
 109:..//Source/stm/lib/STM32L1xx_HAL_Driver/Src/stm32l1xx_hal_dma.c ****   */
 110:..//Source/stm/lib/STM32L1xx_HAL_Driver/Src/stm32l1xx_hal_dma.c **** 
 111:..//Source/stm/lib/STM32L1xx_HAL_Driver/Src/stm32l1xx_hal_dma.c **** /* Exported functions ---------------------------------------------------------*/
 112:..//Source/stm/lib/STM32L1xx_HAL_Driver/Src/stm32l1xx_hal_dma.c **** 
 113:..//Source/stm/lib/STM32L1xx_HAL_Driver/Src/stm32l1xx_hal_dma.c **** /** @defgroup DMA_Exported_Functions DMA Exported Functions
 114:..//Source/stm/lib/STM32L1xx_HAL_Driver/Src/stm32l1xx_hal_dma.c ****   * @{
 115:..//Source/stm/lib/STM32L1xx_HAL_Driver/Src/stm32l1xx_hal_dma.c ****   */
 116:..//Source/stm/lib/STM32L1xx_HAL_Driver/Src/stm32l1xx_hal_dma.c **** 
 117:..//Source/stm/lib/STM32L1xx_HAL_Driver/Src/stm32l1xx_hal_dma.c **** /** @defgroup DMA_Exported_Functions_Group1 Initialization and de-initialization functions
 118:..//Source/stm/lib/STM32L1xx_HAL_Driver/Src/stm32l1xx_hal_dma.c ****  *  @brief   Initialization and de-initialization functions
 119:..//Source/stm/lib/STM32L1xx_HAL_Driver/Src/stm32l1xx_hal_dma.c ****  *
 120:..//Source/stm/lib/STM32L1xx_HAL_Driver/Src/stm32l1xx_hal_dma.c **** @verbatim
 121:..//Source/stm/lib/STM32L1xx_HAL_Driver/Src/stm32l1xx_hal_dma.c ****  ===============================================================================
 122:..//Source/stm/lib/STM32L1xx_HAL_Driver/Src/stm32l1xx_hal_dma.c ****              ##### Initialization and de-initialization functions  #####
 123:..//Source/stm/lib/STM32L1xx_HAL_Driver/Src/stm32l1xx_hal_dma.c ****  ===============================================================================
 124:..//Source/stm/lib/STM32L1xx_HAL_Driver/Src/stm32l1xx_hal_dma.c ****     [..]
 125:..//Source/stm/lib/STM32L1xx_HAL_Driver/Src/stm32l1xx_hal_dma.c ****     This section provides functions allowing to initialize the DMA Channel source
 126:..//Source/stm/lib/STM32L1xx_HAL_Driver/Src/stm32l1xx_hal_dma.c ****     and destination addresses, incrementation and data sizes, transfer direction,
 127:..//Source/stm/lib/STM32L1xx_HAL_Driver/Src/stm32l1xx_hal_dma.c ****     circular/normal mode selection, memory-to-memory mode selection and Channel priority value.
 128:..//Source/stm/lib/STM32L1xx_HAL_Driver/Src/stm32l1xx_hal_dma.c ****     [..]
 129:..//Source/stm/lib/STM32L1xx_HAL_Driver/Src/stm32l1xx_hal_dma.c ****     The HAL_DMA_Init() function follows the DMA configuration procedures as described in
 130:..//Source/stm/lib/STM32L1xx_HAL_Driver/Src/stm32l1xx_hal_dma.c ****     reference manual.
 131:..//Source/stm/lib/STM32L1xx_HAL_Driver/Src/stm32l1xx_hal_dma.c **** 
 132:..//Source/stm/lib/STM32L1xx_HAL_Driver/Src/stm32l1xx_hal_dma.c **** @endverbatim
 133:..//Source/stm/lib/STM32L1xx_HAL_Driver/Src/stm32l1xx_hal_dma.c ****   * @{
 134:..//Source/stm/lib/STM32L1xx_HAL_Driver/Src/stm32l1xx_hal_dma.c ****   */
 135:..//Source/stm/lib/STM32L1xx_HAL_Driver/Src/stm32l1xx_hal_dma.c **** 
 136:..//Source/stm/lib/STM32L1xx_HAL_Driver/Src/stm32l1xx_hal_dma.c **** /**
 137:..//Source/stm/lib/STM32L1xx_HAL_Driver/Src/stm32l1xx_hal_dma.c ****   * @brief  Initialize the DMA according to the specified
 138:..//Source/stm/lib/STM32L1xx_HAL_Driver/Src/stm32l1xx_hal_dma.c ****   *         parameters in the DMA_InitTypeDef and initialize the associated handle.
 139:..//Source/stm/lib/STM32L1xx_HAL_Driver/Src/stm32l1xx_hal_dma.c ****   * @param  hdma Pointer to a DMA_HandleTypeDef structure that contains
 140:..//Source/stm/lib/STM32L1xx_HAL_Driver/Src/stm32l1xx_hal_dma.c ****   *               the configuration information for the specified DMA Channel.
 141:..//Source/stm/lib/STM32L1xx_HAL_Driver/Src/stm32l1xx_hal_dma.c ****   * @retval HAL status
 142:..//Source/stm/lib/STM32L1xx_HAL_Driver/Src/stm32l1xx_hal_dma.c ****   */
 143:..//Source/stm/lib/STM32L1xx_HAL_Driver/Src/stm32l1xx_hal_dma.c **** HAL_StatusTypeDef HAL_DMA_Init(DMA_HandleTypeDef *hdma)
 144:..//Source/stm/lib/STM32L1xx_HAL_Driver/Src/stm32l1xx_hal_dma.c **** {
 145:..//Source/stm/lib/STM32L1xx_HAL_Driver/Src/stm32l1xx_hal_dma.c ****   uint32_t tmp;
 146:..//Source/stm/lib/STM32L1xx_HAL_Driver/Src/stm32l1xx_hal_dma.c **** 
 147:..//Source/stm/lib/STM32L1xx_HAL_Driver/Src/stm32l1xx_hal_dma.c ****   /* Check the DMA handle allocation */
 148:..//Source/stm/lib/STM32L1xx_HAL_Driver/Src/stm32l1xx_hal_dma.c ****   if(hdma == NULL)
ARM GAS  /tmp/cctrNPm4.s 			page 4


 149:..//Source/stm/lib/STM32L1xx_HAL_Driver/Src/stm32l1xx_hal_dma.c ****   {
 150:..//Source/stm/lib/STM32L1xx_HAL_Driver/Src/stm32l1xx_hal_dma.c ****     return HAL_ERROR;
 151:..//Source/stm/lib/STM32L1xx_HAL_Driver/Src/stm32l1xx_hal_dma.c ****   }
 152:..//Source/stm/lib/STM32L1xx_HAL_Driver/Src/stm32l1xx_hal_dma.c **** 
 153:..//Source/stm/lib/STM32L1xx_HAL_Driver/Src/stm32l1xx_hal_dma.c ****   /* Check the parameters */
 154:..//Source/stm/lib/STM32L1xx_HAL_Driver/Src/stm32l1xx_hal_dma.c ****   assert_param(IS_DMA_ALL_INSTANCE(hdma->Instance));
 155:..//Source/stm/lib/STM32L1xx_HAL_Driver/Src/stm32l1xx_hal_dma.c ****   assert_param(IS_DMA_DIRECTION(hdma->Init.Direction));
 156:..//Source/stm/lib/STM32L1xx_HAL_Driver/Src/stm32l1xx_hal_dma.c ****   assert_param(IS_DMA_PERIPHERAL_INC_STATE(hdma->Init.PeriphInc));
 157:..//Source/stm/lib/STM32L1xx_HAL_Driver/Src/stm32l1xx_hal_dma.c ****   assert_param(IS_DMA_MEMORY_INC_STATE(hdma->Init.MemInc));
 158:..//Source/stm/lib/STM32L1xx_HAL_Driver/Src/stm32l1xx_hal_dma.c ****   assert_param(IS_DMA_PERIPHERAL_DATA_SIZE(hdma->Init.PeriphDataAlignment));
 159:..//Source/stm/lib/STM32L1xx_HAL_Driver/Src/stm32l1xx_hal_dma.c ****   assert_param(IS_DMA_MEMORY_DATA_SIZE(hdma->Init.MemDataAlignment));
 160:..//Source/stm/lib/STM32L1xx_HAL_Driver/Src/stm32l1xx_hal_dma.c ****   assert_param(IS_DMA_MODE(hdma->Init.Mode));
 161:..//Source/stm/lib/STM32L1xx_HAL_Driver/Src/stm32l1xx_hal_dma.c ****   assert_param(IS_DMA_PRIORITY(hdma->Init.Priority));
 162:..//Source/stm/lib/STM32L1xx_HAL_Driver/Src/stm32l1xx_hal_dma.c **** 
 163:..//Source/stm/lib/STM32L1xx_HAL_Driver/Src/stm32l1xx_hal_dma.c **** #if defined (DMA2)
 164:..//Source/stm/lib/STM32L1xx_HAL_Driver/Src/stm32l1xx_hal_dma.c ****   /* Compute the channel index */
 165:..//Source/stm/lib/STM32L1xx_HAL_Driver/Src/stm32l1xx_hal_dma.c ****   if ((uint32_t)(hdma->Instance) < (uint32_t)(DMA2_Channel1))
 166:..//Source/stm/lib/STM32L1xx_HAL_Driver/Src/stm32l1xx_hal_dma.c ****   {
 167:..//Source/stm/lib/STM32L1xx_HAL_Driver/Src/stm32l1xx_hal_dma.c ****     /* DMA1 */
 168:..//Source/stm/lib/STM32L1xx_HAL_Driver/Src/stm32l1xx_hal_dma.c ****     hdma->ChannelIndex = (((uint32_t)hdma->Instance - (uint32_t)DMA1_Channel1) / ((uint32_t)DMA1_Ch
 169:..//Source/stm/lib/STM32L1xx_HAL_Driver/Src/stm32l1xx_hal_dma.c ****     hdma->DmaBaseAddress = DMA1;
 170:..//Source/stm/lib/STM32L1xx_HAL_Driver/Src/stm32l1xx_hal_dma.c ****   }
 171:..//Source/stm/lib/STM32L1xx_HAL_Driver/Src/stm32l1xx_hal_dma.c ****   else
 172:..//Source/stm/lib/STM32L1xx_HAL_Driver/Src/stm32l1xx_hal_dma.c ****   {
 173:..//Source/stm/lib/STM32L1xx_HAL_Driver/Src/stm32l1xx_hal_dma.c ****     /* DMA2 */
 174:..//Source/stm/lib/STM32L1xx_HAL_Driver/Src/stm32l1xx_hal_dma.c ****     hdma->ChannelIndex = (((uint32_t)hdma->Instance - (uint32_t)DMA2_Channel1) / ((uint32_t)DMA2_Ch
 175:..//Source/stm/lib/STM32L1xx_HAL_Driver/Src/stm32l1xx_hal_dma.c ****     hdma->DmaBaseAddress = DMA2;
 176:..//Source/stm/lib/STM32L1xx_HAL_Driver/Src/stm32l1xx_hal_dma.c ****   }
 177:..//Source/stm/lib/STM32L1xx_HAL_Driver/Src/stm32l1xx_hal_dma.c **** #else
 178:..//Source/stm/lib/STM32L1xx_HAL_Driver/Src/stm32l1xx_hal_dma.c ****   /* calculation of the channel index */
 179:..//Source/stm/lib/STM32L1xx_HAL_Driver/Src/stm32l1xx_hal_dma.c ****   /* DMA1 */
 180:..//Source/stm/lib/STM32L1xx_HAL_Driver/Src/stm32l1xx_hal_dma.c ****   hdma->ChannelIndex = (((uint32_t)hdma->Instance - (uint32_t)DMA1_Channel1) / ((uint32_t)DMA1_Chan
 181:..//Source/stm/lib/STM32L1xx_HAL_Driver/Src/stm32l1xx_hal_dma.c ****   hdma->DmaBaseAddress = DMA1;
 182:..//Source/stm/lib/STM32L1xx_HAL_Driver/Src/stm32l1xx_hal_dma.c **** #endif
 183:..//Source/stm/lib/STM32L1xx_HAL_Driver/Src/stm32l1xx_hal_dma.c **** 
 184:..//Source/stm/lib/STM32L1xx_HAL_Driver/Src/stm32l1xx_hal_dma.c ****   /* Change DMA peripheral state */
 185:..//Source/stm/lib/STM32L1xx_HAL_Driver/Src/stm32l1xx_hal_dma.c ****   hdma->State = HAL_DMA_STATE_BUSY;
 186:..//Source/stm/lib/STM32L1xx_HAL_Driver/Src/stm32l1xx_hal_dma.c **** 
 187:..//Source/stm/lib/STM32L1xx_HAL_Driver/Src/stm32l1xx_hal_dma.c ****   /* Get the CR register value */
 188:..//Source/stm/lib/STM32L1xx_HAL_Driver/Src/stm32l1xx_hal_dma.c ****   tmp = hdma->Instance->CCR;
 189:..//Source/stm/lib/STM32L1xx_HAL_Driver/Src/stm32l1xx_hal_dma.c **** 
 190:..//Source/stm/lib/STM32L1xx_HAL_Driver/Src/stm32l1xx_hal_dma.c ****   /* Clear PL, MSIZE, PSIZE, MINC, PINC, CIRC, DIR and MEM2MEM bits */
 191:..//Source/stm/lib/STM32L1xx_HAL_Driver/Src/stm32l1xx_hal_dma.c ****   tmp &= ((uint32_t)~(DMA_CCR_PL    | DMA_CCR_MSIZE   | DMA_CCR_PSIZE  |
 192:..//Source/stm/lib/STM32L1xx_HAL_Driver/Src/stm32l1xx_hal_dma.c ****                       DMA_CCR_MINC  | DMA_CCR_PINC    | DMA_CCR_CIRC   |
 193:..//Source/stm/lib/STM32L1xx_HAL_Driver/Src/stm32l1xx_hal_dma.c ****                       DMA_CCR_DIR   | DMA_CCR_MEM2MEM));
 194:..//Source/stm/lib/STM32L1xx_HAL_Driver/Src/stm32l1xx_hal_dma.c **** 
 195:..//Source/stm/lib/STM32L1xx_HAL_Driver/Src/stm32l1xx_hal_dma.c ****   /* Prepare the DMA Channel configuration */
 196:..//Source/stm/lib/STM32L1xx_HAL_Driver/Src/stm32l1xx_hal_dma.c ****   tmp |=  hdma->Init.Direction        |
 197:..//Source/stm/lib/STM32L1xx_HAL_Driver/Src/stm32l1xx_hal_dma.c ****           hdma->Init.PeriphInc           | hdma->Init.MemInc           |
 198:..//Source/stm/lib/STM32L1xx_HAL_Driver/Src/stm32l1xx_hal_dma.c ****           hdma->Init.PeriphDataAlignment | hdma->Init.MemDataAlignment |
 199:..//Source/stm/lib/STM32L1xx_HAL_Driver/Src/stm32l1xx_hal_dma.c ****           hdma->Init.Mode                | hdma->Init.Priority;
 200:..//Source/stm/lib/STM32L1xx_HAL_Driver/Src/stm32l1xx_hal_dma.c **** 
 201:..//Source/stm/lib/STM32L1xx_HAL_Driver/Src/stm32l1xx_hal_dma.c ****   /* Write to DMA Channel CR register */
 202:..//Source/stm/lib/STM32L1xx_HAL_Driver/Src/stm32l1xx_hal_dma.c ****   hdma->Instance->CCR = tmp;
 203:..//Source/stm/lib/STM32L1xx_HAL_Driver/Src/stm32l1xx_hal_dma.c **** 
 204:..//Source/stm/lib/STM32L1xx_HAL_Driver/Src/stm32l1xx_hal_dma.c ****   /* Initialise the error code */
 205:..//Source/stm/lib/STM32L1xx_HAL_Driver/Src/stm32l1xx_hal_dma.c ****   hdma->ErrorCode = HAL_DMA_ERROR_NONE;
ARM GAS  /tmp/cctrNPm4.s 			page 5


 206:..//Source/stm/lib/STM32L1xx_HAL_Driver/Src/stm32l1xx_hal_dma.c **** 
 207:..//Source/stm/lib/STM32L1xx_HAL_Driver/Src/stm32l1xx_hal_dma.c ****   /* Initialize the DMA state*/
 208:..//Source/stm/lib/STM32L1xx_HAL_Driver/Src/stm32l1xx_hal_dma.c ****   hdma->State = HAL_DMA_STATE_READY;
 209:..//Source/stm/lib/STM32L1xx_HAL_Driver/Src/stm32l1xx_hal_dma.c **** 
 210:..//Source/stm/lib/STM32L1xx_HAL_Driver/Src/stm32l1xx_hal_dma.c ****   /* Allocate lock resource and initialize it */
 211:..//Source/stm/lib/STM32L1xx_HAL_Driver/Src/stm32l1xx_hal_dma.c ****   hdma->Lock = HAL_UNLOCKED;
 212:..//Source/stm/lib/STM32L1xx_HAL_Driver/Src/stm32l1xx_hal_dma.c **** 
 213:..//Source/stm/lib/STM32L1xx_HAL_Driver/Src/stm32l1xx_hal_dma.c ****   return HAL_OK;
 214:..//Source/stm/lib/STM32L1xx_HAL_Driver/Src/stm32l1xx_hal_dma.c **** }
 215:..//Source/stm/lib/STM32L1xx_HAL_Driver/Src/stm32l1xx_hal_dma.c **** 
 216:..//Source/stm/lib/STM32L1xx_HAL_Driver/Src/stm32l1xx_hal_dma.c **** /**
 217:..//Source/stm/lib/STM32L1xx_HAL_Driver/Src/stm32l1xx_hal_dma.c ****   * @brief  DeInitialize the DMA peripheral.
 218:..//Source/stm/lib/STM32L1xx_HAL_Driver/Src/stm32l1xx_hal_dma.c ****   * @param  hdma pointer to a DMA_HandleTypeDef structure that contains
 219:..//Source/stm/lib/STM32L1xx_HAL_Driver/Src/stm32l1xx_hal_dma.c ****   *               the configuration information for the specified DMA Channel.
 220:..//Source/stm/lib/STM32L1xx_HAL_Driver/Src/stm32l1xx_hal_dma.c ****   * @retval HAL status
 221:..//Source/stm/lib/STM32L1xx_HAL_Driver/Src/stm32l1xx_hal_dma.c ****   */
 222:..//Source/stm/lib/STM32L1xx_HAL_Driver/Src/stm32l1xx_hal_dma.c **** HAL_StatusTypeDef HAL_DMA_DeInit(DMA_HandleTypeDef *hdma)
 223:..//Source/stm/lib/STM32L1xx_HAL_Driver/Src/stm32l1xx_hal_dma.c **** {
 224:..//Source/stm/lib/STM32L1xx_HAL_Driver/Src/stm32l1xx_hal_dma.c **** 
 225:..//Source/stm/lib/STM32L1xx_HAL_Driver/Src/stm32l1xx_hal_dma.c ****   /* Check the DMA handle allocation */
 226:..//Source/stm/lib/STM32L1xx_HAL_Driver/Src/stm32l1xx_hal_dma.c ****   if (NULL == hdma )
 227:..//Source/stm/lib/STM32L1xx_HAL_Driver/Src/stm32l1xx_hal_dma.c ****   {
 228:..//Source/stm/lib/STM32L1xx_HAL_Driver/Src/stm32l1xx_hal_dma.c ****     return HAL_ERROR;
 229:..//Source/stm/lib/STM32L1xx_HAL_Driver/Src/stm32l1xx_hal_dma.c ****   }
 230:..//Source/stm/lib/STM32L1xx_HAL_Driver/Src/stm32l1xx_hal_dma.c **** 
 231:..//Source/stm/lib/STM32L1xx_HAL_Driver/Src/stm32l1xx_hal_dma.c ****   /* Check the parameters */
 232:..//Source/stm/lib/STM32L1xx_HAL_Driver/Src/stm32l1xx_hal_dma.c ****   assert_param(IS_DMA_ALL_INSTANCE(hdma->Instance));
 233:..//Source/stm/lib/STM32L1xx_HAL_Driver/Src/stm32l1xx_hal_dma.c **** 
 234:..//Source/stm/lib/STM32L1xx_HAL_Driver/Src/stm32l1xx_hal_dma.c ****   /* Disable the selected DMA Channelx */
 235:..//Source/stm/lib/STM32L1xx_HAL_Driver/Src/stm32l1xx_hal_dma.c ****   __HAL_DMA_DISABLE(hdma);
 236:..//Source/stm/lib/STM32L1xx_HAL_Driver/Src/stm32l1xx_hal_dma.c **** 
 237:..//Source/stm/lib/STM32L1xx_HAL_Driver/Src/stm32l1xx_hal_dma.c **** #if defined (DMA2)
 238:..//Source/stm/lib/STM32L1xx_HAL_Driver/Src/stm32l1xx_hal_dma.c ****   /* Compute the channel index */
 239:..//Source/stm/lib/STM32L1xx_HAL_Driver/Src/stm32l1xx_hal_dma.c ****   if ((uint32_t)(hdma->Instance) < (uint32_t)(DMA2_Channel1))
 240:..//Source/stm/lib/STM32L1xx_HAL_Driver/Src/stm32l1xx_hal_dma.c ****   {
 241:..//Source/stm/lib/STM32L1xx_HAL_Driver/Src/stm32l1xx_hal_dma.c ****     /* DMA1 */
 242:..//Source/stm/lib/STM32L1xx_HAL_Driver/Src/stm32l1xx_hal_dma.c ****     hdma->ChannelIndex = (((uint32_t)hdma->Instance - (uint32_t)DMA1_Channel1) / ((uint32_t)DMA1_Ch
 243:..//Source/stm/lib/STM32L1xx_HAL_Driver/Src/stm32l1xx_hal_dma.c ****     hdma->DmaBaseAddress = DMA1;
 244:..//Source/stm/lib/STM32L1xx_HAL_Driver/Src/stm32l1xx_hal_dma.c ****   }
 245:..//Source/stm/lib/STM32L1xx_HAL_Driver/Src/stm32l1xx_hal_dma.c ****   else
 246:..//Source/stm/lib/STM32L1xx_HAL_Driver/Src/stm32l1xx_hal_dma.c ****   {
 247:..//Source/stm/lib/STM32L1xx_HAL_Driver/Src/stm32l1xx_hal_dma.c ****     /* DMA2 */
 248:..//Source/stm/lib/STM32L1xx_HAL_Driver/Src/stm32l1xx_hal_dma.c ****     hdma->ChannelIndex = (((uint32_t)hdma->Instance - (uint32_t)DMA2_Channel1) / ((uint32_t)DMA2_Ch
 249:..//Source/stm/lib/STM32L1xx_HAL_Driver/Src/stm32l1xx_hal_dma.c ****     hdma->DmaBaseAddress = DMA2;
 250:..//Source/stm/lib/STM32L1xx_HAL_Driver/Src/stm32l1xx_hal_dma.c ****   }
 251:..//Source/stm/lib/STM32L1xx_HAL_Driver/Src/stm32l1xx_hal_dma.c **** #else
 252:..//Source/stm/lib/STM32L1xx_HAL_Driver/Src/stm32l1xx_hal_dma.c ****   /* calculation of the channel index */
 253:..//Source/stm/lib/STM32L1xx_HAL_Driver/Src/stm32l1xx_hal_dma.c ****   /* DMA1 */
 254:..//Source/stm/lib/STM32L1xx_HAL_Driver/Src/stm32l1xx_hal_dma.c ****   hdma->ChannelIndex = (((uint32_t)hdma->Instance - (uint32_t)DMA1_Channel1) / ((uint32_t)DMA1_Chan
 255:..//Source/stm/lib/STM32L1xx_HAL_Driver/Src/stm32l1xx_hal_dma.c ****   hdma->DmaBaseAddress = DMA1;
 256:..//Source/stm/lib/STM32L1xx_HAL_Driver/Src/stm32l1xx_hal_dma.c **** #endif
 257:..//Source/stm/lib/STM32L1xx_HAL_Driver/Src/stm32l1xx_hal_dma.c **** 
 258:..//Source/stm/lib/STM32L1xx_HAL_Driver/Src/stm32l1xx_hal_dma.c ****   /* Reset DMA Channel CR register */
 259:..//Source/stm/lib/STM32L1xx_HAL_Driver/Src/stm32l1xx_hal_dma.c ****   hdma->Instance->CCR = 0U;
 260:..//Source/stm/lib/STM32L1xx_HAL_Driver/Src/stm32l1xx_hal_dma.c **** 
 261:..//Source/stm/lib/STM32L1xx_HAL_Driver/Src/stm32l1xx_hal_dma.c ****   /* Clear all flags */
 262:..//Source/stm/lib/STM32L1xx_HAL_Driver/Src/stm32l1xx_hal_dma.c ****   hdma->DmaBaseAddress->IFCR = (DMA_ISR_GIF1 << (hdma->ChannelIndex & 0x1CU));
ARM GAS  /tmp/cctrNPm4.s 			page 6


 263:..//Source/stm/lib/STM32L1xx_HAL_Driver/Src/stm32l1xx_hal_dma.c **** 
 264:..//Source/stm/lib/STM32L1xx_HAL_Driver/Src/stm32l1xx_hal_dma.c ****   /* Clean callbacks */
 265:..//Source/stm/lib/STM32L1xx_HAL_Driver/Src/stm32l1xx_hal_dma.c ****   hdma->XferCpltCallback = NULL;
 266:..//Source/stm/lib/STM32L1xx_HAL_Driver/Src/stm32l1xx_hal_dma.c ****   hdma->XferHalfCpltCallback = NULL;
 267:..//Source/stm/lib/STM32L1xx_HAL_Driver/Src/stm32l1xx_hal_dma.c ****   hdma->XferErrorCallback = NULL;
 268:..//Source/stm/lib/STM32L1xx_HAL_Driver/Src/stm32l1xx_hal_dma.c ****   hdma->XferAbortCallback = NULL;
 269:..//Source/stm/lib/STM32L1xx_HAL_Driver/Src/stm32l1xx_hal_dma.c **** 
 270:..//Source/stm/lib/STM32L1xx_HAL_Driver/Src/stm32l1xx_hal_dma.c ****   /* Initialise the error code */
 271:..//Source/stm/lib/STM32L1xx_HAL_Driver/Src/stm32l1xx_hal_dma.c ****   hdma->ErrorCode = HAL_DMA_ERROR_NONE;
 272:..//Source/stm/lib/STM32L1xx_HAL_Driver/Src/stm32l1xx_hal_dma.c **** 
 273:..//Source/stm/lib/STM32L1xx_HAL_Driver/Src/stm32l1xx_hal_dma.c ****   /* Initialize the DMA state */
 274:..//Source/stm/lib/STM32L1xx_HAL_Driver/Src/stm32l1xx_hal_dma.c ****   hdma->State = HAL_DMA_STATE_RESET;
 275:..//Source/stm/lib/STM32L1xx_HAL_Driver/Src/stm32l1xx_hal_dma.c **** 
 276:..//Source/stm/lib/STM32L1xx_HAL_Driver/Src/stm32l1xx_hal_dma.c ****   /* Release Lock */
 277:..//Source/stm/lib/STM32L1xx_HAL_Driver/Src/stm32l1xx_hal_dma.c ****   __HAL_UNLOCK(hdma);
 278:..//Source/stm/lib/STM32L1xx_HAL_Driver/Src/stm32l1xx_hal_dma.c **** 
 279:..//Source/stm/lib/STM32L1xx_HAL_Driver/Src/stm32l1xx_hal_dma.c ****   return HAL_OK;
 280:..//Source/stm/lib/STM32L1xx_HAL_Driver/Src/stm32l1xx_hal_dma.c **** }
 281:..//Source/stm/lib/STM32L1xx_HAL_Driver/Src/stm32l1xx_hal_dma.c **** 
 282:..//Source/stm/lib/STM32L1xx_HAL_Driver/Src/stm32l1xx_hal_dma.c **** /**
 283:..//Source/stm/lib/STM32L1xx_HAL_Driver/Src/stm32l1xx_hal_dma.c ****   * @}
 284:..//Source/stm/lib/STM32L1xx_HAL_Driver/Src/stm32l1xx_hal_dma.c ****   */
 285:..//Source/stm/lib/STM32L1xx_HAL_Driver/Src/stm32l1xx_hal_dma.c **** 
 286:..//Source/stm/lib/STM32L1xx_HAL_Driver/Src/stm32l1xx_hal_dma.c **** /** @defgroup DMA_Exported_Functions_Group2 Input and Output operation functions
 287:..//Source/stm/lib/STM32L1xx_HAL_Driver/Src/stm32l1xx_hal_dma.c ****  *  @brief   Input and Output operation functions
 288:..//Source/stm/lib/STM32L1xx_HAL_Driver/Src/stm32l1xx_hal_dma.c ****  *
 289:..//Source/stm/lib/STM32L1xx_HAL_Driver/Src/stm32l1xx_hal_dma.c **** @verbatim
 290:..//Source/stm/lib/STM32L1xx_HAL_Driver/Src/stm32l1xx_hal_dma.c ****  ===============================================================================
 291:..//Source/stm/lib/STM32L1xx_HAL_Driver/Src/stm32l1xx_hal_dma.c ****                       #####  IO operation functions  #####
 292:..//Source/stm/lib/STM32L1xx_HAL_Driver/Src/stm32l1xx_hal_dma.c ****  ===============================================================================
 293:..//Source/stm/lib/STM32L1xx_HAL_Driver/Src/stm32l1xx_hal_dma.c ****     [..]  This section provides functions allowing to:
 294:..//Source/stm/lib/STM32L1xx_HAL_Driver/Src/stm32l1xx_hal_dma.c ****       (+) Configure the source, destination address and data length and Start DMA transfer
 295:..//Source/stm/lib/STM32L1xx_HAL_Driver/Src/stm32l1xx_hal_dma.c ****       (+) Configure the source, destination address and data length and
 296:..//Source/stm/lib/STM32L1xx_HAL_Driver/Src/stm32l1xx_hal_dma.c ****           Start DMA transfer with interrupt
 297:..//Source/stm/lib/STM32L1xx_HAL_Driver/Src/stm32l1xx_hal_dma.c ****       (+) Abort DMA transfer
 298:..//Source/stm/lib/STM32L1xx_HAL_Driver/Src/stm32l1xx_hal_dma.c ****       (+) Poll for transfer complete
 299:..//Source/stm/lib/STM32L1xx_HAL_Driver/Src/stm32l1xx_hal_dma.c ****       (+) Handle DMA interrupt request
 300:..//Source/stm/lib/STM32L1xx_HAL_Driver/Src/stm32l1xx_hal_dma.c **** 
 301:..//Source/stm/lib/STM32L1xx_HAL_Driver/Src/stm32l1xx_hal_dma.c **** @endverbatim
 302:..//Source/stm/lib/STM32L1xx_HAL_Driver/Src/stm32l1xx_hal_dma.c ****   * @{
 303:..//Source/stm/lib/STM32L1xx_HAL_Driver/Src/stm32l1xx_hal_dma.c ****   */
 304:..//Source/stm/lib/STM32L1xx_HAL_Driver/Src/stm32l1xx_hal_dma.c **** 
 305:..//Source/stm/lib/STM32L1xx_HAL_Driver/Src/stm32l1xx_hal_dma.c **** /**
 306:..//Source/stm/lib/STM32L1xx_HAL_Driver/Src/stm32l1xx_hal_dma.c ****   * @brief  Start the DMA Transfer.
 307:..//Source/stm/lib/STM32L1xx_HAL_Driver/Src/stm32l1xx_hal_dma.c ****   * @param  hdma pointer to a DMA_HandleTypeDef structure that contains
 308:..//Source/stm/lib/STM32L1xx_HAL_Driver/Src/stm32l1xx_hal_dma.c ****   *               the configuration information for the specified DMA Channel.
 309:..//Source/stm/lib/STM32L1xx_HAL_Driver/Src/stm32l1xx_hal_dma.c ****   * @param  SrcAddress The source memory Buffer address
 310:..//Source/stm/lib/STM32L1xx_HAL_Driver/Src/stm32l1xx_hal_dma.c ****   * @param  DstAddress The destination memory Buffer address
 311:..//Source/stm/lib/STM32L1xx_HAL_Driver/Src/stm32l1xx_hal_dma.c ****   * @param  DataLength The length of data to be transferred from source to destination
 312:..//Source/stm/lib/STM32L1xx_HAL_Driver/Src/stm32l1xx_hal_dma.c ****   * @retval HAL status
 313:..//Source/stm/lib/STM32L1xx_HAL_Driver/Src/stm32l1xx_hal_dma.c ****   */
 314:..//Source/stm/lib/STM32L1xx_HAL_Driver/Src/stm32l1xx_hal_dma.c **** HAL_StatusTypeDef HAL_DMA_Start(DMA_HandleTypeDef *hdma, uint32_t SrcAddress, uint32_t DstAddress, 
 315:..//Source/stm/lib/STM32L1xx_HAL_Driver/Src/stm32l1xx_hal_dma.c **** {
 316:..//Source/stm/lib/STM32L1xx_HAL_Driver/Src/stm32l1xx_hal_dma.c ****   HAL_StatusTypeDef status = HAL_OK;
 317:..//Source/stm/lib/STM32L1xx_HAL_Driver/Src/stm32l1xx_hal_dma.c **** 
 318:..//Source/stm/lib/STM32L1xx_HAL_Driver/Src/stm32l1xx_hal_dma.c ****   /* Check the parameters */
 319:..//Source/stm/lib/STM32L1xx_HAL_Driver/Src/stm32l1xx_hal_dma.c ****   assert_param(IS_DMA_BUFFER_SIZE(DataLength));
ARM GAS  /tmp/cctrNPm4.s 			page 7


 320:..//Source/stm/lib/STM32L1xx_HAL_Driver/Src/stm32l1xx_hal_dma.c **** 
 321:..//Source/stm/lib/STM32L1xx_HAL_Driver/Src/stm32l1xx_hal_dma.c ****   /* Process locked */
 322:..//Source/stm/lib/STM32L1xx_HAL_Driver/Src/stm32l1xx_hal_dma.c ****   __HAL_LOCK(hdma);
 323:..//Source/stm/lib/STM32L1xx_HAL_Driver/Src/stm32l1xx_hal_dma.c **** 
 324:..//Source/stm/lib/STM32L1xx_HAL_Driver/Src/stm32l1xx_hal_dma.c ****   if(HAL_DMA_STATE_READY == hdma->State)
 325:..//Source/stm/lib/STM32L1xx_HAL_Driver/Src/stm32l1xx_hal_dma.c ****   {
 326:..//Source/stm/lib/STM32L1xx_HAL_Driver/Src/stm32l1xx_hal_dma.c ****     /* Change DMA peripheral state */
 327:..//Source/stm/lib/STM32L1xx_HAL_Driver/Src/stm32l1xx_hal_dma.c ****     hdma->State = HAL_DMA_STATE_BUSY;
 328:..//Source/stm/lib/STM32L1xx_HAL_Driver/Src/stm32l1xx_hal_dma.c ****     hdma->ErrorCode = HAL_DMA_ERROR_NONE;
 329:..//Source/stm/lib/STM32L1xx_HAL_Driver/Src/stm32l1xx_hal_dma.c **** 
 330:..//Source/stm/lib/STM32L1xx_HAL_Driver/Src/stm32l1xx_hal_dma.c ****     /* Disable the peripheral */
 331:..//Source/stm/lib/STM32L1xx_HAL_Driver/Src/stm32l1xx_hal_dma.c ****     __HAL_DMA_DISABLE(hdma);
 332:..//Source/stm/lib/STM32L1xx_HAL_Driver/Src/stm32l1xx_hal_dma.c **** 
 333:..//Source/stm/lib/STM32L1xx_HAL_Driver/Src/stm32l1xx_hal_dma.c ****     /* Configure the source, destination address and the data length & clear flags*/
 334:..//Source/stm/lib/STM32L1xx_HAL_Driver/Src/stm32l1xx_hal_dma.c ****     DMA_SetConfig(hdma, SrcAddress, DstAddress, DataLength);
 335:..//Source/stm/lib/STM32L1xx_HAL_Driver/Src/stm32l1xx_hal_dma.c **** 
 336:..//Source/stm/lib/STM32L1xx_HAL_Driver/Src/stm32l1xx_hal_dma.c ****     /* Enable the Peripheral */
 337:..//Source/stm/lib/STM32L1xx_HAL_Driver/Src/stm32l1xx_hal_dma.c ****     __HAL_DMA_ENABLE(hdma);
 338:..//Source/stm/lib/STM32L1xx_HAL_Driver/Src/stm32l1xx_hal_dma.c ****   }
 339:..//Source/stm/lib/STM32L1xx_HAL_Driver/Src/stm32l1xx_hal_dma.c ****   else
 340:..//Source/stm/lib/STM32L1xx_HAL_Driver/Src/stm32l1xx_hal_dma.c ****   {
 341:..//Source/stm/lib/STM32L1xx_HAL_Driver/Src/stm32l1xx_hal_dma.c ****     /* Process Unlocked */
 342:..//Source/stm/lib/STM32L1xx_HAL_Driver/Src/stm32l1xx_hal_dma.c ****     __HAL_UNLOCK(hdma);
 343:..//Source/stm/lib/STM32L1xx_HAL_Driver/Src/stm32l1xx_hal_dma.c ****     status = HAL_BUSY;
 344:..//Source/stm/lib/STM32L1xx_HAL_Driver/Src/stm32l1xx_hal_dma.c ****   }
 345:..//Source/stm/lib/STM32L1xx_HAL_Driver/Src/stm32l1xx_hal_dma.c ****   return status;
 346:..//Source/stm/lib/STM32L1xx_HAL_Driver/Src/stm32l1xx_hal_dma.c **** }
 347:..//Source/stm/lib/STM32L1xx_HAL_Driver/Src/stm32l1xx_hal_dma.c **** 
 348:..//Source/stm/lib/STM32L1xx_HAL_Driver/Src/stm32l1xx_hal_dma.c **** /**
 349:..//Source/stm/lib/STM32L1xx_HAL_Driver/Src/stm32l1xx_hal_dma.c ****   * @brief  Start the DMA Transfer with interrupt enabled.
 350:..//Source/stm/lib/STM32L1xx_HAL_Driver/Src/stm32l1xx_hal_dma.c ****   * @param  hdma pointer to a DMA_HandleTypeDef structure that contains
 351:..//Source/stm/lib/STM32L1xx_HAL_Driver/Src/stm32l1xx_hal_dma.c ****   *               the configuration information for the specified DMA Channel.
 352:..//Source/stm/lib/STM32L1xx_HAL_Driver/Src/stm32l1xx_hal_dma.c ****   * @param  SrcAddress The source memory Buffer address
 353:..//Source/stm/lib/STM32L1xx_HAL_Driver/Src/stm32l1xx_hal_dma.c ****   * @param  DstAddress The destination memory Buffer address
 354:..//Source/stm/lib/STM32L1xx_HAL_Driver/Src/stm32l1xx_hal_dma.c ****   * @param  DataLength The length of data to be transferred from source to destination
 355:..//Source/stm/lib/STM32L1xx_HAL_Driver/Src/stm32l1xx_hal_dma.c ****   * @retval HAL status
 356:..//Source/stm/lib/STM32L1xx_HAL_Driver/Src/stm32l1xx_hal_dma.c ****   */
 357:..//Source/stm/lib/STM32L1xx_HAL_Driver/Src/stm32l1xx_hal_dma.c **** HAL_StatusTypeDef HAL_DMA_Start_IT(DMA_HandleTypeDef *hdma, uint32_t SrcAddress, uint32_t DstAddres
 358:..//Source/stm/lib/STM32L1xx_HAL_Driver/Src/stm32l1xx_hal_dma.c **** {
 359:..//Source/stm/lib/STM32L1xx_HAL_Driver/Src/stm32l1xx_hal_dma.c ****   HAL_StatusTypeDef status = HAL_OK;
 360:..//Source/stm/lib/STM32L1xx_HAL_Driver/Src/stm32l1xx_hal_dma.c **** 
 361:..//Source/stm/lib/STM32L1xx_HAL_Driver/Src/stm32l1xx_hal_dma.c ****   /* Check the parameters */
 362:..//Source/stm/lib/STM32L1xx_HAL_Driver/Src/stm32l1xx_hal_dma.c ****   assert_param(IS_DMA_BUFFER_SIZE(DataLength));
 363:..//Source/stm/lib/STM32L1xx_HAL_Driver/Src/stm32l1xx_hal_dma.c **** 
 364:..//Source/stm/lib/STM32L1xx_HAL_Driver/Src/stm32l1xx_hal_dma.c ****   /* Process locked */
 365:..//Source/stm/lib/STM32L1xx_HAL_Driver/Src/stm32l1xx_hal_dma.c ****   __HAL_LOCK(hdma);
 366:..//Source/stm/lib/STM32L1xx_HAL_Driver/Src/stm32l1xx_hal_dma.c **** 
 367:..//Source/stm/lib/STM32L1xx_HAL_Driver/Src/stm32l1xx_hal_dma.c ****   if(HAL_DMA_STATE_READY == hdma->State)
 368:..//Source/stm/lib/STM32L1xx_HAL_Driver/Src/stm32l1xx_hal_dma.c ****   {
 369:..//Source/stm/lib/STM32L1xx_HAL_Driver/Src/stm32l1xx_hal_dma.c ****     /* Change DMA peripheral state */
 370:..//Source/stm/lib/STM32L1xx_HAL_Driver/Src/stm32l1xx_hal_dma.c ****     hdma->State = HAL_DMA_STATE_BUSY;
 371:..//Source/stm/lib/STM32L1xx_HAL_Driver/Src/stm32l1xx_hal_dma.c ****     hdma->ErrorCode = HAL_DMA_ERROR_NONE;
 372:..//Source/stm/lib/STM32L1xx_HAL_Driver/Src/stm32l1xx_hal_dma.c **** 
 373:..//Source/stm/lib/STM32L1xx_HAL_Driver/Src/stm32l1xx_hal_dma.c ****     /* Disable the peripheral */
 374:..//Source/stm/lib/STM32L1xx_HAL_Driver/Src/stm32l1xx_hal_dma.c ****     __HAL_DMA_DISABLE(hdma);
 375:..//Source/stm/lib/STM32L1xx_HAL_Driver/Src/stm32l1xx_hal_dma.c **** 
 376:..//Source/stm/lib/STM32L1xx_HAL_Driver/Src/stm32l1xx_hal_dma.c ****     /* Configure the source, destination address and the data length & clear flags*/
ARM GAS  /tmp/cctrNPm4.s 			page 8


 377:..//Source/stm/lib/STM32L1xx_HAL_Driver/Src/stm32l1xx_hal_dma.c ****     DMA_SetConfig(hdma, SrcAddress, DstAddress, DataLength);
 378:..//Source/stm/lib/STM32L1xx_HAL_Driver/Src/stm32l1xx_hal_dma.c **** 
 379:..//Source/stm/lib/STM32L1xx_HAL_Driver/Src/stm32l1xx_hal_dma.c ****     /* Enable the transfer complete interrupt */
 380:..//Source/stm/lib/STM32L1xx_HAL_Driver/Src/stm32l1xx_hal_dma.c ****     /* Enable the transfer Error interrupt */
 381:..//Source/stm/lib/STM32L1xx_HAL_Driver/Src/stm32l1xx_hal_dma.c ****     if(NULL != hdma->XferHalfCpltCallback )
 382:..//Source/stm/lib/STM32L1xx_HAL_Driver/Src/stm32l1xx_hal_dma.c ****     {
 383:..//Source/stm/lib/STM32L1xx_HAL_Driver/Src/stm32l1xx_hal_dma.c ****       /* Enable the Half transfer complete interrupt as well */
 384:..//Source/stm/lib/STM32L1xx_HAL_Driver/Src/stm32l1xx_hal_dma.c ****       __HAL_DMA_ENABLE_IT(hdma, (DMA_IT_TC | DMA_IT_HT | DMA_IT_TE));
 385:..//Source/stm/lib/STM32L1xx_HAL_Driver/Src/stm32l1xx_hal_dma.c ****     }
 386:..//Source/stm/lib/STM32L1xx_HAL_Driver/Src/stm32l1xx_hal_dma.c ****     else
 387:..//Source/stm/lib/STM32L1xx_HAL_Driver/Src/stm32l1xx_hal_dma.c ****     {
 388:..//Source/stm/lib/STM32L1xx_HAL_Driver/Src/stm32l1xx_hal_dma.c ****       __HAL_DMA_DISABLE_IT(hdma, DMA_IT_HT);
 389:..//Source/stm/lib/STM32L1xx_HAL_Driver/Src/stm32l1xx_hal_dma.c ****       __HAL_DMA_ENABLE_IT(hdma, (DMA_IT_TC | DMA_IT_TE));
 390:..//Source/stm/lib/STM32L1xx_HAL_Driver/Src/stm32l1xx_hal_dma.c ****     }
 391:..//Source/stm/lib/STM32L1xx_HAL_Driver/Src/stm32l1xx_hal_dma.c **** 
 392:..//Source/stm/lib/STM32L1xx_HAL_Driver/Src/stm32l1xx_hal_dma.c ****     /* Enable the Peripheral */
 393:..//Source/stm/lib/STM32L1xx_HAL_Driver/Src/stm32l1xx_hal_dma.c ****     __HAL_DMA_ENABLE(hdma);
 394:..//Source/stm/lib/STM32L1xx_HAL_Driver/Src/stm32l1xx_hal_dma.c ****   }
 395:..//Source/stm/lib/STM32L1xx_HAL_Driver/Src/stm32l1xx_hal_dma.c ****   else
 396:..//Source/stm/lib/STM32L1xx_HAL_Driver/Src/stm32l1xx_hal_dma.c ****   {
 397:..//Source/stm/lib/STM32L1xx_HAL_Driver/Src/stm32l1xx_hal_dma.c ****     /* Process Unlocked */
 398:..//Source/stm/lib/STM32L1xx_HAL_Driver/Src/stm32l1xx_hal_dma.c ****     __HAL_UNLOCK(hdma);
 399:..//Source/stm/lib/STM32L1xx_HAL_Driver/Src/stm32l1xx_hal_dma.c **** 
 400:..//Source/stm/lib/STM32L1xx_HAL_Driver/Src/stm32l1xx_hal_dma.c ****     /* Remain BUSY */
 401:..//Source/stm/lib/STM32L1xx_HAL_Driver/Src/stm32l1xx_hal_dma.c ****     status = HAL_BUSY;
 402:..//Source/stm/lib/STM32L1xx_HAL_Driver/Src/stm32l1xx_hal_dma.c ****   }
 403:..//Source/stm/lib/STM32L1xx_HAL_Driver/Src/stm32l1xx_hal_dma.c ****   return status;
 404:..//Source/stm/lib/STM32L1xx_HAL_Driver/Src/stm32l1xx_hal_dma.c **** }
 405:..//Source/stm/lib/STM32L1xx_HAL_Driver/Src/stm32l1xx_hal_dma.c **** 
 406:..//Source/stm/lib/STM32L1xx_HAL_Driver/Src/stm32l1xx_hal_dma.c **** /**
 407:..//Source/stm/lib/STM32L1xx_HAL_Driver/Src/stm32l1xx_hal_dma.c ****   * @brief  Abort the DMA Transfer.
 408:..//Source/stm/lib/STM32L1xx_HAL_Driver/Src/stm32l1xx_hal_dma.c ****   * @param  hdma pointer to a DMA_HandleTypeDef structure that contains
 409:..//Source/stm/lib/STM32L1xx_HAL_Driver/Src/stm32l1xx_hal_dma.c ****   *               the configuration information for the specified DMA Channel.
 410:..//Source/stm/lib/STM32L1xx_HAL_Driver/Src/stm32l1xx_hal_dma.c ****   * @retval HAL status
 411:..//Source/stm/lib/STM32L1xx_HAL_Driver/Src/stm32l1xx_hal_dma.c ****   */
 412:..//Source/stm/lib/STM32L1xx_HAL_Driver/Src/stm32l1xx_hal_dma.c **** HAL_StatusTypeDef HAL_DMA_Abort(DMA_HandleTypeDef *hdma)
 413:..//Source/stm/lib/STM32L1xx_HAL_Driver/Src/stm32l1xx_hal_dma.c **** {
 414:..//Source/stm/lib/STM32L1xx_HAL_Driver/Src/stm32l1xx_hal_dma.c ****   HAL_StatusTypeDef status = HAL_OK;
 415:..//Source/stm/lib/STM32L1xx_HAL_Driver/Src/stm32l1xx_hal_dma.c **** 
 416:..//Source/stm/lib/STM32L1xx_HAL_Driver/Src/stm32l1xx_hal_dma.c ****   /* Check the DMA peripheral state */
 417:..//Source/stm/lib/STM32L1xx_HAL_Driver/Src/stm32l1xx_hal_dma.c ****   if(hdma->State != HAL_DMA_STATE_BUSY)
 418:..//Source/stm/lib/STM32L1xx_HAL_Driver/Src/stm32l1xx_hal_dma.c ****   {
 419:..//Source/stm/lib/STM32L1xx_HAL_Driver/Src/stm32l1xx_hal_dma.c ****     hdma->ErrorCode = HAL_DMA_ERROR_NO_XFER;
 420:..//Source/stm/lib/STM32L1xx_HAL_Driver/Src/stm32l1xx_hal_dma.c **** 
 421:..//Source/stm/lib/STM32L1xx_HAL_Driver/Src/stm32l1xx_hal_dma.c ****     /* Process Unlocked */
 422:..//Source/stm/lib/STM32L1xx_HAL_Driver/Src/stm32l1xx_hal_dma.c ****     __HAL_UNLOCK(hdma);
 423:..//Source/stm/lib/STM32L1xx_HAL_Driver/Src/stm32l1xx_hal_dma.c **** 
 424:..//Source/stm/lib/STM32L1xx_HAL_Driver/Src/stm32l1xx_hal_dma.c ****     return HAL_ERROR;
 425:..//Source/stm/lib/STM32L1xx_HAL_Driver/Src/stm32l1xx_hal_dma.c ****   }
 426:..//Source/stm/lib/STM32L1xx_HAL_Driver/Src/stm32l1xx_hal_dma.c ****   else
 427:..//Source/stm/lib/STM32L1xx_HAL_Driver/Src/stm32l1xx_hal_dma.c ****   {
 428:..//Source/stm/lib/STM32L1xx_HAL_Driver/Src/stm32l1xx_hal_dma.c ****     /* Disable DMA IT */
 429:..//Source/stm/lib/STM32L1xx_HAL_Driver/Src/stm32l1xx_hal_dma.c ****     __HAL_DMA_DISABLE_IT(hdma, (DMA_IT_TC | DMA_IT_HT | DMA_IT_TE));
 430:..//Source/stm/lib/STM32L1xx_HAL_Driver/Src/stm32l1xx_hal_dma.c **** 
 431:..//Source/stm/lib/STM32L1xx_HAL_Driver/Src/stm32l1xx_hal_dma.c ****     /* Disable the channel */
 432:..//Source/stm/lib/STM32L1xx_HAL_Driver/Src/stm32l1xx_hal_dma.c ****     __HAL_DMA_DISABLE(hdma);
 433:..//Source/stm/lib/STM32L1xx_HAL_Driver/Src/stm32l1xx_hal_dma.c **** 
ARM GAS  /tmp/cctrNPm4.s 			page 9


 434:..//Source/stm/lib/STM32L1xx_HAL_Driver/Src/stm32l1xx_hal_dma.c ****     /* Clear all flags */
 435:..//Source/stm/lib/STM32L1xx_HAL_Driver/Src/stm32l1xx_hal_dma.c ****     hdma->DmaBaseAddress->IFCR = (DMA_ISR_GIF1 << (hdma->ChannelIndex & 0x1CU));
 436:..//Source/stm/lib/STM32L1xx_HAL_Driver/Src/stm32l1xx_hal_dma.c **** 
 437:..//Source/stm/lib/STM32L1xx_HAL_Driver/Src/stm32l1xx_hal_dma.c ****     /* Change the DMA state */
 438:..//Source/stm/lib/STM32L1xx_HAL_Driver/Src/stm32l1xx_hal_dma.c ****     hdma->State = HAL_DMA_STATE_READY;
 439:..//Source/stm/lib/STM32L1xx_HAL_Driver/Src/stm32l1xx_hal_dma.c **** 
 440:..//Source/stm/lib/STM32L1xx_HAL_Driver/Src/stm32l1xx_hal_dma.c ****     /* Process Unlocked */
 441:..//Source/stm/lib/STM32L1xx_HAL_Driver/Src/stm32l1xx_hal_dma.c ****     __HAL_UNLOCK(hdma);
 442:..//Source/stm/lib/STM32L1xx_HAL_Driver/Src/stm32l1xx_hal_dma.c **** 
 443:..//Source/stm/lib/STM32L1xx_HAL_Driver/Src/stm32l1xx_hal_dma.c ****     return status;
 444:..//Source/stm/lib/STM32L1xx_HAL_Driver/Src/stm32l1xx_hal_dma.c ****   }
 445:..//Source/stm/lib/STM32L1xx_HAL_Driver/Src/stm32l1xx_hal_dma.c **** }
 446:..//Source/stm/lib/STM32L1xx_HAL_Driver/Src/stm32l1xx_hal_dma.c **** 
 447:..//Source/stm/lib/STM32L1xx_HAL_Driver/Src/stm32l1xx_hal_dma.c **** /**
 448:..//Source/stm/lib/STM32L1xx_HAL_Driver/Src/stm32l1xx_hal_dma.c ****   * @brief  Aborts the DMA Transfer in Interrupt mode.
 449:..//Source/stm/lib/STM32L1xx_HAL_Driver/Src/stm32l1xx_hal_dma.c ****   * @param  hdma pointer to a DMA_HandleTypeDef structure that contains
 450:..//Source/stm/lib/STM32L1xx_HAL_Driver/Src/stm32l1xx_hal_dma.c ****   *                 the configuration information for the specified DMA Channel.
 451:..//Source/stm/lib/STM32L1xx_HAL_Driver/Src/stm32l1xx_hal_dma.c ****   * @retval HAL status
 452:..//Source/stm/lib/STM32L1xx_HAL_Driver/Src/stm32l1xx_hal_dma.c ****   */
 453:..//Source/stm/lib/STM32L1xx_HAL_Driver/Src/stm32l1xx_hal_dma.c **** HAL_StatusTypeDef HAL_DMA_Abort_IT(DMA_HandleTypeDef *hdma)
 454:..//Source/stm/lib/STM32L1xx_HAL_Driver/Src/stm32l1xx_hal_dma.c **** {
 455:..//Source/stm/lib/STM32L1xx_HAL_Driver/Src/stm32l1xx_hal_dma.c ****   HAL_StatusTypeDef status = HAL_OK;
 456:..//Source/stm/lib/STM32L1xx_HAL_Driver/Src/stm32l1xx_hal_dma.c **** 
 457:..//Source/stm/lib/STM32L1xx_HAL_Driver/Src/stm32l1xx_hal_dma.c ****   if(HAL_DMA_STATE_BUSY != hdma->State)
 458:..//Source/stm/lib/STM32L1xx_HAL_Driver/Src/stm32l1xx_hal_dma.c ****   {
 459:..//Source/stm/lib/STM32L1xx_HAL_Driver/Src/stm32l1xx_hal_dma.c ****     /* no transfer ongoing */
 460:..//Source/stm/lib/STM32L1xx_HAL_Driver/Src/stm32l1xx_hal_dma.c ****     hdma->ErrorCode = HAL_DMA_ERROR_NO_XFER;
 461:..//Source/stm/lib/STM32L1xx_HAL_Driver/Src/stm32l1xx_hal_dma.c **** 
 462:..//Source/stm/lib/STM32L1xx_HAL_Driver/Src/stm32l1xx_hal_dma.c ****     status = HAL_ERROR;
 463:..//Source/stm/lib/STM32L1xx_HAL_Driver/Src/stm32l1xx_hal_dma.c ****   }
 464:..//Source/stm/lib/STM32L1xx_HAL_Driver/Src/stm32l1xx_hal_dma.c ****   else
 465:..//Source/stm/lib/STM32L1xx_HAL_Driver/Src/stm32l1xx_hal_dma.c ****   {
 466:..//Source/stm/lib/STM32L1xx_HAL_Driver/Src/stm32l1xx_hal_dma.c ****     /* Disable DMA IT */
 467:..//Source/stm/lib/STM32L1xx_HAL_Driver/Src/stm32l1xx_hal_dma.c ****     __HAL_DMA_DISABLE_IT(hdma, (DMA_IT_TC | DMA_IT_HT | DMA_IT_TE));
 468:..//Source/stm/lib/STM32L1xx_HAL_Driver/Src/stm32l1xx_hal_dma.c **** 
 469:..//Source/stm/lib/STM32L1xx_HAL_Driver/Src/stm32l1xx_hal_dma.c ****     /* Disable the channel */
 470:..//Source/stm/lib/STM32L1xx_HAL_Driver/Src/stm32l1xx_hal_dma.c ****     __HAL_DMA_DISABLE(hdma);
 471:..//Source/stm/lib/STM32L1xx_HAL_Driver/Src/stm32l1xx_hal_dma.c **** 
 472:..//Source/stm/lib/STM32L1xx_HAL_Driver/Src/stm32l1xx_hal_dma.c ****     /* Clear all flags */
 473:..//Source/stm/lib/STM32L1xx_HAL_Driver/Src/stm32l1xx_hal_dma.c ****     hdma->DmaBaseAddress->IFCR = (DMA_ISR_GIF1 << (hdma->ChannelIndex & 0x1CU));
 474:..//Source/stm/lib/STM32L1xx_HAL_Driver/Src/stm32l1xx_hal_dma.c **** 
 475:..//Source/stm/lib/STM32L1xx_HAL_Driver/Src/stm32l1xx_hal_dma.c ****     /* Change the DMA state */
 476:..//Source/stm/lib/STM32L1xx_HAL_Driver/Src/stm32l1xx_hal_dma.c ****     hdma->State = HAL_DMA_STATE_READY;
 477:..//Source/stm/lib/STM32L1xx_HAL_Driver/Src/stm32l1xx_hal_dma.c **** 
 478:..//Source/stm/lib/STM32L1xx_HAL_Driver/Src/stm32l1xx_hal_dma.c ****     /* Process Unlocked */
 479:..//Source/stm/lib/STM32L1xx_HAL_Driver/Src/stm32l1xx_hal_dma.c ****     __HAL_UNLOCK(hdma);
 480:..//Source/stm/lib/STM32L1xx_HAL_Driver/Src/stm32l1xx_hal_dma.c **** 
 481:..//Source/stm/lib/STM32L1xx_HAL_Driver/Src/stm32l1xx_hal_dma.c ****     /* Call User Abort callback */
 482:..//Source/stm/lib/STM32L1xx_HAL_Driver/Src/stm32l1xx_hal_dma.c ****     if(hdma->XferAbortCallback != NULL)
 483:..//Source/stm/lib/STM32L1xx_HAL_Driver/Src/stm32l1xx_hal_dma.c ****     {
 484:..//Source/stm/lib/STM32L1xx_HAL_Driver/Src/stm32l1xx_hal_dma.c ****       hdma->XferAbortCallback(hdma);
 485:..//Source/stm/lib/STM32L1xx_HAL_Driver/Src/stm32l1xx_hal_dma.c ****     }
 486:..//Source/stm/lib/STM32L1xx_HAL_Driver/Src/stm32l1xx_hal_dma.c ****   }
 487:..//Source/stm/lib/STM32L1xx_HAL_Driver/Src/stm32l1xx_hal_dma.c ****   return status;
 488:..//Source/stm/lib/STM32L1xx_HAL_Driver/Src/stm32l1xx_hal_dma.c **** }
 489:..//Source/stm/lib/STM32L1xx_HAL_Driver/Src/stm32l1xx_hal_dma.c **** 
 490:..//Source/stm/lib/STM32L1xx_HAL_Driver/Src/stm32l1xx_hal_dma.c **** /**
ARM GAS  /tmp/cctrNPm4.s 			page 10


 491:..//Source/stm/lib/STM32L1xx_HAL_Driver/Src/stm32l1xx_hal_dma.c ****   * @brief  Polling for transfer complete.
 492:..//Source/stm/lib/STM32L1xx_HAL_Driver/Src/stm32l1xx_hal_dma.c ****   * @param  hdma pointer to a DMA_HandleTypeDef structure that contains
 493:..//Source/stm/lib/STM32L1xx_HAL_Driver/Src/stm32l1xx_hal_dma.c ****   *                  the configuration information for the specified DMA Channel.
 494:..//Source/stm/lib/STM32L1xx_HAL_Driver/Src/stm32l1xx_hal_dma.c ****   * @param  CompleteLevel Specifies the DMA level complete.
 495:..//Source/stm/lib/STM32L1xx_HAL_Driver/Src/stm32l1xx_hal_dma.c ****   * @param  Timeout       Timeout duration.
 496:..//Source/stm/lib/STM32L1xx_HAL_Driver/Src/stm32l1xx_hal_dma.c ****   * @retval HAL status
 497:..//Source/stm/lib/STM32L1xx_HAL_Driver/Src/stm32l1xx_hal_dma.c ****   */
 498:..//Source/stm/lib/STM32L1xx_HAL_Driver/Src/stm32l1xx_hal_dma.c **** HAL_StatusTypeDef HAL_DMA_PollForTransfer(DMA_HandleTypeDef *hdma, HAL_DMA_LevelCompleteTypeDef Com
 499:..//Source/stm/lib/STM32L1xx_HAL_Driver/Src/stm32l1xx_hal_dma.c **** {
 500:..//Source/stm/lib/STM32L1xx_HAL_Driver/Src/stm32l1xx_hal_dma.c ****   uint32_t temp;
 501:..//Source/stm/lib/STM32L1xx_HAL_Driver/Src/stm32l1xx_hal_dma.c ****   uint32_t tickstart;
 502:..//Source/stm/lib/STM32L1xx_HAL_Driver/Src/stm32l1xx_hal_dma.c **** 
 503:..//Source/stm/lib/STM32L1xx_HAL_Driver/Src/stm32l1xx_hal_dma.c ****   if(HAL_DMA_STATE_BUSY != hdma->State)
 504:..//Source/stm/lib/STM32L1xx_HAL_Driver/Src/stm32l1xx_hal_dma.c ****   {
 505:..//Source/stm/lib/STM32L1xx_HAL_Driver/Src/stm32l1xx_hal_dma.c ****     /* no transfer ongoing */
 506:..//Source/stm/lib/STM32L1xx_HAL_Driver/Src/stm32l1xx_hal_dma.c ****     hdma->ErrorCode = HAL_DMA_ERROR_NO_XFER;
 507:..//Source/stm/lib/STM32L1xx_HAL_Driver/Src/stm32l1xx_hal_dma.c ****     __HAL_UNLOCK(hdma);
 508:..//Source/stm/lib/STM32L1xx_HAL_Driver/Src/stm32l1xx_hal_dma.c ****     return HAL_ERROR;
 509:..//Source/stm/lib/STM32L1xx_HAL_Driver/Src/stm32l1xx_hal_dma.c ****   }
 510:..//Source/stm/lib/STM32L1xx_HAL_Driver/Src/stm32l1xx_hal_dma.c **** 
 511:..//Source/stm/lib/STM32L1xx_HAL_Driver/Src/stm32l1xx_hal_dma.c ****   /* Polling mode not supported in circular mode */
 512:..//Source/stm/lib/STM32L1xx_HAL_Driver/Src/stm32l1xx_hal_dma.c ****   if ((hdma->Instance->CCR & DMA_CCR_CIRC) != 0U)
 513:..//Source/stm/lib/STM32L1xx_HAL_Driver/Src/stm32l1xx_hal_dma.c ****   {
 514:..//Source/stm/lib/STM32L1xx_HAL_Driver/Src/stm32l1xx_hal_dma.c ****     hdma->ErrorCode = HAL_DMA_ERROR_NOT_SUPPORTED;
 515:..//Source/stm/lib/STM32L1xx_HAL_Driver/Src/stm32l1xx_hal_dma.c ****     return HAL_ERROR;
 516:..//Source/stm/lib/STM32L1xx_HAL_Driver/Src/stm32l1xx_hal_dma.c ****   }
 517:..//Source/stm/lib/STM32L1xx_HAL_Driver/Src/stm32l1xx_hal_dma.c **** 
 518:..//Source/stm/lib/STM32L1xx_HAL_Driver/Src/stm32l1xx_hal_dma.c ****   /* Get the level transfer complete flag */
 519:..//Source/stm/lib/STM32L1xx_HAL_Driver/Src/stm32l1xx_hal_dma.c ****   if (HAL_DMA_FULL_TRANSFER == CompleteLevel)
 520:..//Source/stm/lib/STM32L1xx_HAL_Driver/Src/stm32l1xx_hal_dma.c ****   {
 521:..//Source/stm/lib/STM32L1xx_HAL_Driver/Src/stm32l1xx_hal_dma.c ****     /* Transfer Complete flag */
 522:..//Source/stm/lib/STM32L1xx_HAL_Driver/Src/stm32l1xx_hal_dma.c ****     temp = DMA_FLAG_TC1 << (hdma->ChannelIndex & 0x1CU);
 523:..//Source/stm/lib/STM32L1xx_HAL_Driver/Src/stm32l1xx_hal_dma.c ****   }
 524:..//Source/stm/lib/STM32L1xx_HAL_Driver/Src/stm32l1xx_hal_dma.c ****   else
 525:..//Source/stm/lib/STM32L1xx_HAL_Driver/Src/stm32l1xx_hal_dma.c ****   {
 526:..//Source/stm/lib/STM32L1xx_HAL_Driver/Src/stm32l1xx_hal_dma.c ****     /* Half Transfer Complete flag */
 527:..//Source/stm/lib/STM32L1xx_HAL_Driver/Src/stm32l1xx_hal_dma.c ****     temp = DMA_FLAG_HT1 << (hdma->ChannelIndex & 0x1CU);
 528:..//Source/stm/lib/STM32L1xx_HAL_Driver/Src/stm32l1xx_hal_dma.c ****   }
 529:..//Source/stm/lib/STM32L1xx_HAL_Driver/Src/stm32l1xx_hal_dma.c **** 
 530:..//Source/stm/lib/STM32L1xx_HAL_Driver/Src/stm32l1xx_hal_dma.c ****   /* Get tick */
 531:..//Source/stm/lib/STM32L1xx_HAL_Driver/Src/stm32l1xx_hal_dma.c ****   tickstart = HAL_GetTick();
 532:..//Source/stm/lib/STM32L1xx_HAL_Driver/Src/stm32l1xx_hal_dma.c **** 
 533:..//Source/stm/lib/STM32L1xx_HAL_Driver/Src/stm32l1xx_hal_dma.c ****   while((hdma->DmaBaseAddress->ISR & temp) == 0U)
 534:..//Source/stm/lib/STM32L1xx_HAL_Driver/Src/stm32l1xx_hal_dma.c ****   {
 535:..//Source/stm/lib/STM32L1xx_HAL_Driver/Src/stm32l1xx_hal_dma.c ****     if((hdma->DmaBaseAddress->ISR & (DMA_FLAG_TE1 << (hdma->ChannelIndex& 0x1CU))) != 0U)
 536:..//Source/stm/lib/STM32L1xx_HAL_Driver/Src/stm32l1xx_hal_dma.c ****     {
 537:..//Source/stm/lib/STM32L1xx_HAL_Driver/Src/stm32l1xx_hal_dma.c ****       /* When a DMA transfer error occurs */
 538:..//Source/stm/lib/STM32L1xx_HAL_Driver/Src/stm32l1xx_hal_dma.c ****       /* A hardware clear of its EN bits is performed */
 539:..//Source/stm/lib/STM32L1xx_HAL_Driver/Src/stm32l1xx_hal_dma.c ****       /* Clear all flags */
 540:..//Source/stm/lib/STM32L1xx_HAL_Driver/Src/stm32l1xx_hal_dma.c ****       hdma->DmaBaseAddress->IFCR = (DMA_ISR_GIF1 << (hdma->ChannelIndex & 0x1CU));
 541:..//Source/stm/lib/STM32L1xx_HAL_Driver/Src/stm32l1xx_hal_dma.c **** 
 542:..//Source/stm/lib/STM32L1xx_HAL_Driver/Src/stm32l1xx_hal_dma.c ****       /* Update error code */
 543:..//Source/stm/lib/STM32L1xx_HAL_Driver/Src/stm32l1xx_hal_dma.c ****       hdma->ErrorCode = HAL_DMA_ERROR_TE;
 544:..//Source/stm/lib/STM32L1xx_HAL_Driver/Src/stm32l1xx_hal_dma.c **** 
 545:..//Source/stm/lib/STM32L1xx_HAL_Driver/Src/stm32l1xx_hal_dma.c ****       /* Change the DMA state */
 546:..//Source/stm/lib/STM32L1xx_HAL_Driver/Src/stm32l1xx_hal_dma.c ****       hdma->State= HAL_DMA_STATE_READY;
 547:..//Source/stm/lib/STM32L1xx_HAL_Driver/Src/stm32l1xx_hal_dma.c **** 
ARM GAS  /tmp/cctrNPm4.s 			page 11


 548:..//Source/stm/lib/STM32L1xx_HAL_Driver/Src/stm32l1xx_hal_dma.c ****       /* Process Unlocked */
 549:..//Source/stm/lib/STM32L1xx_HAL_Driver/Src/stm32l1xx_hal_dma.c ****       __HAL_UNLOCK(hdma);
 550:..//Source/stm/lib/STM32L1xx_HAL_Driver/Src/stm32l1xx_hal_dma.c **** 
 551:..//Source/stm/lib/STM32L1xx_HAL_Driver/Src/stm32l1xx_hal_dma.c ****       return HAL_ERROR;
 552:..//Source/stm/lib/STM32L1xx_HAL_Driver/Src/stm32l1xx_hal_dma.c ****     }
 553:..//Source/stm/lib/STM32L1xx_HAL_Driver/Src/stm32l1xx_hal_dma.c ****     /* Check for the Timeout */
 554:..//Source/stm/lib/STM32L1xx_HAL_Driver/Src/stm32l1xx_hal_dma.c ****     if(Timeout != HAL_MAX_DELAY)
 555:..//Source/stm/lib/STM32L1xx_HAL_Driver/Src/stm32l1xx_hal_dma.c ****     {
 556:..//Source/stm/lib/STM32L1xx_HAL_Driver/Src/stm32l1xx_hal_dma.c ****       if(((HAL_GetTick() - tickstart) > Timeout) ||  (Timeout == 0U))
 557:..//Source/stm/lib/STM32L1xx_HAL_Driver/Src/stm32l1xx_hal_dma.c ****       {
 558:..//Source/stm/lib/STM32L1xx_HAL_Driver/Src/stm32l1xx_hal_dma.c ****         /* Update error code */
 559:..//Source/stm/lib/STM32L1xx_HAL_Driver/Src/stm32l1xx_hal_dma.c ****         hdma->ErrorCode = HAL_DMA_ERROR_TIMEOUT;
 560:..//Source/stm/lib/STM32L1xx_HAL_Driver/Src/stm32l1xx_hal_dma.c **** 
 561:..//Source/stm/lib/STM32L1xx_HAL_Driver/Src/stm32l1xx_hal_dma.c ****         /* Change the DMA state */
 562:..//Source/stm/lib/STM32L1xx_HAL_Driver/Src/stm32l1xx_hal_dma.c ****         hdma->State = HAL_DMA_STATE_READY;
 563:..//Source/stm/lib/STM32L1xx_HAL_Driver/Src/stm32l1xx_hal_dma.c **** 
 564:..//Source/stm/lib/STM32L1xx_HAL_Driver/Src/stm32l1xx_hal_dma.c ****         /* Process Unlocked */
 565:..//Source/stm/lib/STM32L1xx_HAL_Driver/Src/stm32l1xx_hal_dma.c ****         __HAL_UNLOCK(hdma);
 566:..//Source/stm/lib/STM32L1xx_HAL_Driver/Src/stm32l1xx_hal_dma.c **** 
 567:..//Source/stm/lib/STM32L1xx_HAL_Driver/Src/stm32l1xx_hal_dma.c ****         return HAL_ERROR;
 568:..//Source/stm/lib/STM32L1xx_HAL_Driver/Src/stm32l1xx_hal_dma.c ****       }
 569:..//Source/stm/lib/STM32L1xx_HAL_Driver/Src/stm32l1xx_hal_dma.c ****     }
 570:..//Source/stm/lib/STM32L1xx_HAL_Driver/Src/stm32l1xx_hal_dma.c ****   }
 571:..//Source/stm/lib/STM32L1xx_HAL_Driver/Src/stm32l1xx_hal_dma.c **** 
 572:..//Source/stm/lib/STM32L1xx_HAL_Driver/Src/stm32l1xx_hal_dma.c ****   if(HAL_DMA_FULL_TRANSFER == CompleteLevel)
 573:..//Source/stm/lib/STM32L1xx_HAL_Driver/Src/stm32l1xx_hal_dma.c ****   {
 574:..//Source/stm/lib/STM32L1xx_HAL_Driver/Src/stm32l1xx_hal_dma.c ****     /* Clear the transfer complete flag */
 575:..//Source/stm/lib/STM32L1xx_HAL_Driver/Src/stm32l1xx_hal_dma.c ****     hdma->DmaBaseAddress->IFCR = (DMA_FLAG_TC1 << (hdma->ChannelIndex& 0x1CU));
 576:..//Source/stm/lib/STM32L1xx_HAL_Driver/Src/stm32l1xx_hal_dma.c **** 
 577:..//Source/stm/lib/STM32L1xx_HAL_Driver/Src/stm32l1xx_hal_dma.c ****     /* The selected Channelx EN bit is cleared (DMA is disabled and
 578:..//Source/stm/lib/STM32L1xx_HAL_Driver/Src/stm32l1xx_hal_dma.c ****     all transfers are complete) */
 579:..//Source/stm/lib/STM32L1xx_HAL_Driver/Src/stm32l1xx_hal_dma.c ****     hdma->State = HAL_DMA_STATE_READY;
 580:..//Source/stm/lib/STM32L1xx_HAL_Driver/Src/stm32l1xx_hal_dma.c ****   }
 581:..//Source/stm/lib/STM32L1xx_HAL_Driver/Src/stm32l1xx_hal_dma.c ****   else
 582:..//Source/stm/lib/STM32L1xx_HAL_Driver/Src/stm32l1xx_hal_dma.c ****   {
 583:..//Source/stm/lib/STM32L1xx_HAL_Driver/Src/stm32l1xx_hal_dma.c ****     /* Clear the half transfer complete flag */
 584:..//Source/stm/lib/STM32L1xx_HAL_Driver/Src/stm32l1xx_hal_dma.c ****     hdma->DmaBaseAddress->IFCR = (DMA_FLAG_HT1 << (hdma->ChannelIndex & 0x1CU));
 585:..//Source/stm/lib/STM32L1xx_HAL_Driver/Src/stm32l1xx_hal_dma.c ****   }
 586:..//Source/stm/lib/STM32L1xx_HAL_Driver/Src/stm32l1xx_hal_dma.c **** 
 587:..//Source/stm/lib/STM32L1xx_HAL_Driver/Src/stm32l1xx_hal_dma.c ****   /* Process unlocked */
 588:..//Source/stm/lib/STM32L1xx_HAL_Driver/Src/stm32l1xx_hal_dma.c ****   __HAL_UNLOCK(hdma);
 589:..//Source/stm/lib/STM32L1xx_HAL_Driver/Src/stm32l1xx_hal_dma.c **** 
 590:..//Source/stm/lib/STM32L1xx_HAL_Driver/Src/stm32l1xx_hal_dma.c ****   return HAL_OK;
 591:..//Source/stm/lib/STM32L1xx_HAL_Driver/Src/stm32l1xx_hal_dma.c **** }
 592:..//Source/stm/lib/STM32L1xx_HAL_Driver/Src/stm32l1xx_hal_dma.c **** 
 593:..//Source/stm/lib/STM32L1xx_HAL_Driver/Src/stm32l1xx_hal_dma.c **** /**
 594:..//Source/stm/lib/STM32L1xx_HAL_Driver/Src/stm32l1xx_hal_dma.c ****   * @brief  Handle DMA interrupt request.
 595:..//Source/stm/lib/STM32L1xx_HAL_Driver/Src/stm32l1xx_hal_dma.c ****   * @param  hdma pointer to a DMA_HandleTypeDef structure that contains
 596:..//Source/stm/lib/STM32L1xx_HAL_Driver/Src/stm32l1xx_hal_dma.c ****   *               the configuration information for the specified DMA Channel.
 597:..//Source/stm/lib/STM32L1xx_HAL_Driver/Src/stm32l1xx_hal_dma.c ****   * @retval None
 598:..//Source/stm/lib/STM32L1xx_HAL_Driver/Src/stm32l1xx_hal_dma.c ****   */
 599:..//Source/stm/lib/STM32L1xx_HAL_Driver/Src/stm32l1xx_hal_dma.c **** void HAL_DMA_IRQHandler(DMA_HandleTypeDef *hdma)
 600:..//Source/stm/lib/STM32L1xx_HAL_Driver/Src/stm32l1xx_hal_dma.c **** {
 601:..//Source/stm/lib/STM32L1xx_HAL_Driver/Src/stm32l1xx_hal_dma.c ****   uint32_t flag_it = hdma->DmaBaseAddress->ISR;
 602:..//Source/stm/lib/STM32L1xx_HAL_Driver/Src/stm32l1xx_hal_dma.c ****   uint32_t source_it = hdma->Instance->CCR;
 603:..//Source/stm/lib/STM32L1xx_HAL_Driver/Src/stm32l1xx_hal_dma.c **** 
 604:..//Source/stm/lib/STM32L1xx_HAL_Driver/Src/stm32l1xx_hal_dma.c ****   /* Half Transfer Complete Interrupt management ******************************/
ARM GAS  /tmp/cctrNPm4.s 			page 12


 605:..//Source/stm/lib/STM32L1xx_HAL_Driver/Src/stm32l1xx_hal_dma.c ****   if (((flag_it & (DMA_FLAG_HT1 << (hdma->ChannelIndex & 0x1CU))) != 0U) && ((source_it & DMA_IT_HT
 606:..//Source/stm/lib/STM32L1xx_HAL_Driver/Src/stm32l1xx_hal_dma.c ****   {
 607:..//Source/stm/lib/STM32L1xx_HAL_Driver/Src/stm32l1xx_hal_dma.c ****     /* Disable the half transfer interrupt if the DMA mode is not CIRCULAR */
 608:..//Source/stm/lib/STM32L1xx_HAL_Driver/Src/stm32l1xx_hal_dma.c ****     if((hdma->Instance->CCR & DMA_CCR_CIRC) == 0U)
 609:..//Source/stm/lib/STM32L1xx_HAL_Driver/Src/stm32l1xx_hal_dma.c ****     {
 610:..//Source/stm/lib/STM32L1xx_HAL_Driver/Src/stm32l1xx_hal_dma.c ****       /* Disable the half transfer interrupt */
 611:..//Source/stm/lib/STM32L1xx_HAL_Driver/Src/stm32l1xx_hal_dma.c ****       __HAL_DMA_DISABLE_IT(hdma, DMA_IT_HT);
 612:..//Source/stm/lib/STM32L1xx_HAL_Driver/Src/stm32l1xx_hal_dma.c ****     }
 613:..//Source/stm/lib/STM32L1xx_HAL_Driver/Src/stm32l1xx_hal_dma.c ****     /* Clear the half transfer complete flag */
 614:..//Source/stm/lib/STM32L1xx_HAL_Driver/Src/stm32l1xx_hal_dma.c ****     hdma->DmaBaseAddress->IFCR = DMA_ISR_HTIF1 << (hdma->ChannelIndex & 0x1CU);
 615:..//Source/stm/lib/STM32L1xx_HAL_Driver/Src/stm32l1xx_hal_dma.c **** 
 616:..//Source/stm/lib/STM32L1xx_HAL_Driver/Src/stm32l1xx_hal_dma.c ****     /* DMA peripheral state is not updated in Half Transfer */
 617:..//Source/stm/lib/STM32L1xx_HAL_Driver/Src/stm32l1xx_hal_dma.c ****     /* but in Transfer Complete case */
 618:..//Source/stm/lib/STM32L1xx_HAL_Driver/Src/stm32l1xx_hal_dma.c **** 
 619:..//Source/stm/lib/STM32L1xx_HAL_Driver/Src/stm32l1xx_hal_dma.c ****     if(hdma->XferHalfCpltCallback != NULL)
 620:..//Source/stm/lib/STM32L1xx_HAL_Driver/Src/stm32l1xx_hal_dma.c ****     {
 621:..//Source/stm/lib/STM32L1xx_HAL_Driver/Src/stm32l1xx_hal_dma.c ****       /* Half transfer callback */
 622:..//Source/stm/lib/STM32L1xx_HAL_Driver/Src/stm32l1xx_hal_dma.c ****       hdma->XferHalfCpltCallback(hdma);
 623:..//Source/stm/lib/STM32L1xx_HAL_Driver/Src/stm32l1xx_hal_dma.c ****     }
 624:..//Source/stm/lib/STM32L1xx_HAL_Driver/Src/stm32l1xx_hal_dma.c ****   }
 625:..//Source/stm/lib/STM32L1xx_HAL_Driver/Src/stm32l1xx_hal_dma.c **** 
 626:..//Source/stm/lib/STM32L1xx_HAL_Driver/Src/stm32l1xx_hal_dma.c ****   /* Transfer Complete Interrupt management ***********************************/
 627:..//Source/stm/lib/STM32L1xx_HAL_Driver/Src/stm32l1xx_hal_dma.c ****   else if (((flag_it & (DMA_FLAG_TC1 << (hdma->ChannelIndex & 0x1CU))) != 0U) && ((source_it & DMA_
 628:..//Source/stm/lib/STM32L1xx_HAL_Driver/Src/stm32l1xx_hal_dma.c ****   {
 629:..//Source/stm/lib/STM32L1xx_HAL_Driver/Src/stm32l1xx_hal_dma.c ****     
 630:..//Source/stm/lib/STM32L1xx_HAL_Driver/Src/stm32l1xx_hal_dma.c ****     if((hdma->Instance->CCR & DMA_CCR_CIRC) == 0U)
 631:..//Source/stm/lib/STM32L1xx_HAL_Driver/Src/stm32l1xx_hal_dma.c ****     {
 632:..//Source/stm/lib/STM32L1xx_HAL_Driver/Src/stm32l1xx_hal_dma.c ****       /* Disable the transfer complete interrupt if the DMA mode is not CIRCULAR */
 633:..//Source/stm/lib/STM32L1xx_HAL_Driver/Src/stm32l1xx_hal_dma.c ****       /* Disable the transfer complete and error interrupt */
 634:..//Source/stm/lib/STM32L1xx_HAL_Driver/Src/stm32l1xx_hal_dma.c ****       /* if the DMA mode is not CIRCULAR  */
 635:..//Source/stm/lib/STM32L1xx_HAL_Driver/Src/stm32l1xx_hal_dma.c ****       __HAL_DMA_DISABLE_IT(hdma, DMA_IT_TE | DMA_IT_TC);
 636:..//Source/stm/lib/STM32L1xx_HAL_Driver/Src/stm32l1xx_hal_dma.c **** 
 637:..//Source/stm/lib/STM32L1xx_HAL_Driver/Src/stm32l1xx_hal_dma.c ****       /* Change the DMA state */
 638:..//Source/stm/lib/STM32L1xx_HAL_Driver/Src/stm32l1xx_hal_dma.c ****       hdma->State = HAL_DMA_STATE_READY;
 639:..//Source/stm/lib/STM32L1xx_HAL_Driver/Src/stm32l1xx_hal_dma.c ****     }
 640:..//Source/stm/lib/STM32L1xx_HAL_Driver/Src/stm32l1xx_hal_dma.c ****     /* Clear the transfer complete flag */
 641:..//Source/stm/lib/STM32L1xx_HAL_Driver/Src/stm32l1xx_hal_dma.c ****     hdma->DmaBaseAddress->IFCR = (DMA_ISR_TCIF1 << (hdma->ChannelIndex & 0x1CU));
 642:..//Source/stm/lib/STM32L1xx_HAL_Driver/Src/stm32l1xx_hal_dma.c **** 
 643:..//Source/stm/lib/STM32L1xx_HAL_Driver/Src/stm32l1xx_hal_dma.c ****     /* Process Unlocked */
 644:..//Source/stm/lib/STM32L1xx_HAL_Driver/Src/stm32l1xx_hal_dma.c ****     __HAL_UNLOCK(hdma);
 645:..//Source/stm/lib/STM32L1xx_HAL_Driver/Src/stm32l1xx_hal_dma.c **** 
 646:..//Source/stm/lib/STM32L1xx_HAL_Driver/Src/stm32l1xx_hal_dma.c ****     if(hdma->XferCpltCallback != NULL)
 647:..//Source/stm/lib/STM32L1xx_HAL_Driver/Src/stm32l1xx_hal_dma.c ****     {
 648:..//Source/stm/lib/STM32L1xx_HAL_Driver/Src/stm32l1xx_hal_dma.c ****       /* Transfer complete callback */
 649:..//Source/stm/lib/STM32L1xx_HAL_Driver/Src/stm32l1xx_hal_dma.c ****       hdma->XferCpltCallback(hdma);
 650:..//Source/stm/lib/STM32L1xx_HAL_Driver/Src/stm32l1xx_hal_dma.c ****     }
 651:..//Source/stm/lib/STM32L1xx_HAL_Driver/Src/stm32l1xx_hal_dma.c ****   }
 652:..//Source/stm/lib/STM32L1xx_HAL_Driver/Src/stm32l1xx_hal_dma.c **** 
 653:..//Source/stm/lib/STM32L1xx_HAL_Driver/Src/stm32l1xx_hal_dma.c ****   /* Transfer Error Interrupt management **************************************/
 654:..//Source/stm/lib/STM32L1xx_HAL_Driver/Src/stm32l1xx_hal_dma.c ****   else if (((flag_it & (DMA_FLAG_TE1 << (hdma->ChannelIndex & 0x1CU))) != 0U) && ((source_it & DMA_
 655:..//Source/stm/lib/STM32L1xx_HAL_Driver/Src/stm32l1xx_hal_dma.c ****   {
 656:..//Source/stm/lib/STM32L1xx_HAL_Driver/Src/stm32l1xx_hal_dma.c ****     /* When a DMA transfer error occurs */
 657:..//Source/stm/lib/STM32L1xx_HAL_Driver/Src/stm32l1xx_hal_dma.c ****     /* A hardware clear of its EN bits is performed */
 658:..//Source/stm/lib/STM32L1xx_HAL_Driver/Src/stm32l1xx_hal_dma.c ****     /* Disable ALL DMA IT */
 659:..//Source/stm/lib/STM32L1xx_HAL_Driver/Src/stm32l1xx_hal_dma.c ****     __HAL_DMA_DISABLE_IT(hdma, (DMA_IT_TC | DMA_IT_HT | DMA_IT_TE));
 660:..//Source/stm/lib/STM32L1xx_HAL_Driver/Src/stm32l1xx_hal_dma.c **** 
 661:..//Source/stm/lib/STM32L1xx_HAL_Driver/Src/stm32l1xx_hal_dma.c ****     /* Clear all flags */
ARM GAS  /tmp/cctrNPm4.s 			page 13


 662:..//Source/stm/lib/STM32L1xx_HAL_Driver/Src/stm32l1xx_hal_dma.c ****     hdma->DmaBaseAddress->IFCR = (DMA_ISR_GIF1 << (hdma->ChannelIndex & 0x1CU));
 663:..//Source/stm/lib/STM32L1xx_HAL_Driver/Src/stm32l1xx_hal_dma.c **** 
 664:..//Source/stm/lib/STM32L1xx_HAL_Driver/Src/stm32l1xx_hal_dma.c ****     /* Update error code */
 665:..//Source/stm/lib/STM32L1xx_HAL_Driver/Src/stm32l1xx_hal_dma.c ****     hdma->ErrorCode = HAL_DMA_ERROR_TE;
 666:..//Source/stm/lib/STM32L1xx_HAL_Driver/Src/stm32l1xx_hal_dma.c **** 
 667:..//Source/stm/lib/STM32L1xx_HAL_Driver/Src/stm32l1xx_hal_dma.c ****     /* Change the DMA state */
 668:..//Source/stm/lib/STM32L1xx_HAL_Driver/Src/stm32l1xx_hal_dma.c ****     hdma->State = HAL_DMA_STATE_READY;
 669:..//Source/stm/lib/STM32L1xx_HAL_Driver/Src/stm32l1xx_hal_dma.c **** 
 670:..//Source/stm/lib/STM32L1xx_HAL_Driver/Src/stm32l1xx_hal_dma.c ****     /* Process Unlocked */
 671:..//Source/stm/lib/STM32L1xx_HAL_Driver/Src/stm32l1xx_hal_dma.c ****     __HAL_UNLOCK(hdma);
 672:..//Source/stm/lib/STM32L1xx_HAL_Driver/Src/stm32l1xx_hal_dma.c **** 
 673:..//Source/stm/lib/STM32L1xx_HAL_Driver/Src/stm32l1xx_hal_dma.c ****     if (hdma->XferErrorCallback != NULL)
 674:..//Source/stm/lib/STM32L1xx_HAL_Driver/Src/stm32l1xx_hal_dma.c ****     {
 675:..//Source/stm/lib/STM32L1xx_HAL_Driver/Src/stm32l1xx_hal_dma.c ****       /* Transfer error callback */
 676:..//Source/stm/lib/STM32L1xx_HAL_Driver/Src/stm32l1xx_hal_dma.c ****       hdma->XferErrorCallback(hdma);
 677:..//Source/stm/lib/STM32L1xx_HAL_Driver/Src/stm32l1xx_hal_dma.c ****     }
 678:..//Source/stm/lib/STM32L1xx_HAL_Driver/Src/stm32l1xx_hal_dma.c ****   }
 679:..//Source/stm/lib/STM32L1xx_HAL_Driver/Src/stm32l1xx_hal_dma.c ****   else
 680:..//Source/stm/lib/STM32L1xx_HAL_Driver/Src/stm32l1xx_hal_dma.c ****   {
 681:..//Source/stm/lib/STM32L1xx_HAL_Driver/Src/stm32l1xx_hal_dma.c ****     /* Nothing To Do */
 682:..//Source/stm/lib/STM32L1xx_HAL_Driver/Src/stm32l1xx_hal_dma.c ****   }
 683:..//Source/stm/lib/STM32L1xx_HAL_Driver/Src/stm32l1xx_hal_dma.c ****   return;
 684:..//Source/stm/lib/STM32L1xx_HAL_Driver/Src/stm32l1xx_hal_dma.c **** }
 685:..//Source/stm/lib/STM32L1xx_HAL_Driver/Src/stm32l1xx_hal_dma.c **** 
 686:..//Source/stm/lib/STM32L1xx_HAL_Driver/Src/stm32l1xx_hal_dma.c **** /**
 687:..//Source/stm/lib/STM32L1xx_HAL_Driver/Src/stm32l1xx_hal_dma.c ****   * @brief  Register callbacks
 688:..//Source/stm/lib/STM32L1xx_HAL_Driver/Src/stm32l1xx_hal_dma.c ****   * @param  hdma                 pointer to a DMA_HandleTypeDef structure that contains
 689:..//Source/stm/lib/STM32L1xx_HAL_Driver/Src/stm32l1xx_hal_dma.c ****   *                               the configuration information for the specified DMA Channel.
 690:..//Source/stm/lib/STM32L1xx_HAL_Driver/Src/stm32l1xx_hal_dma.c ****   * @param  CallbackID           User Callback identifer
 691:..//Source/stm/lib/STM32L1xx_HAL_Driver/Src/stm32l1xx_hal_dma.c ****   *                               a HAL_DMA_CallbackIDTypeDef ENUM as parameter.
 692:..//Source/stm/lib/STM32L1xx_HAL_Driver/Src/stm32l1xx_hal_dma.c ****   * @param  pCallback            pointer to private callbacsk function which has pointer to
 693:..//Source/stm/lib/STM32L1xx_HAL_Driver/Src/stm32l1xx_hal_dma.c ****   *                               a DMA_HandleTypeDef structure as parameter.
 694:..//Source/stm/lib/STM32L1xx_HAL_Driver/Src/stm32l1xx_hal_dma.c ****   * @retval HAL status
 695:..//Source/stm/lib/STM32L1xx_HAL_Driver/Src/stm32l1xx_hal_dma.c ****   */
 696:..//Source/stm/lib/STM32L1xx_HAL_Driver/Src/stm32l1xx_hal_dma.c **** HAL_StatusTypeDef HAL_DMA_RegisterCallback(DMA_HandleTypeDef *hdma, HAL_DMA_CallbackIDTypeDef Callb
 697:..//Source/stm/lib/STM32L1xx_HAL_Driver/Src/stm32l1xx_hal_dma.c **** {
 698:..//Source/stm/lib/STM32L1xx_HAL_Driver/Src/stm32l1xx_hal_dma.c ****   HAL_StatusTypeDef status = HAL_OK;
 699:..//Source/stm/lib/STM32L1xx_HAL_Driver/Src/stm32l1xx_hal_dma.c **** 
 700:..//Source/stm/lib/STM32L1xx_HAL_Driver/Src/stm32l1xx_hal_dma.c ****   /* Process locked */
 701:..//Source/stm/lib/STM32L1xx_HAL_Driver/Src/stm32l1xx_hal_dma.c ****   __HAL_LOCK(hdma);
 702:..//Source/stm/lib/STM32L1xx_HAL_Driver/Src/stm32l1xx_hal_dma.c **** 
 703:..//Source/stm/lib/STM32L1xx_HAL_Driver/Src/stm32l1xx_hal_dma.c ****   if(HAL_DMA_STATE_READY == hdma->State)
 704:..//Source/stm/lib/STM32L1xx_HAL_Driver/Src/stm32l1xx_hal_dma.c ****   {
 705:..//Source/stm/lib/STM32L1xx_HAL_Driver/Src/stm32l1xx_hal_dma.c ****     switch (CallbackID)
 706:..//Source/stm/lib/STM32L1xx_HAL_Driver/Src/stm32l1xx_hal_dma.c ****     {
 707:..//Source/stm/lib/STM32L1xx_HAL_Driver/Src/stm32l1xx_hal_dma.c ****      case  HAL_DMA_XFER_CPLT_CB_ID:
 708:..//Source/stm/lib/STM32L1xx_HAL_Driver/Src/stm32l1xx_hal_dma.c ****            hdma->XferCpltCallback = pCallback;
 709:..//Source/stm/lib/STM32L1xx_HAL_Driver/Src/stm32l1xx_hal_dma.c ****            break;
 710:..//Source/stm/lib/STM32L1xx_HAL_Driver/Src/stm32l1xx_hal_dma.c **** 
 711:..//Source/stm/lib/STM32L1xx_HAL_Driver/Src/stm32l1xx_hal_dma.c ****      case  HAL_DMA_XFER_HALFCPLT_CB_ID:
 712:..//Source/stm/lib/STM32L1xx_HAL_Driver/Src/stm32l1xx_hal_dma.c ****            hdma->XferHalfCpltCallback = pCallback;
 713:..//Source/stm/lib/STM32L1xx_HAL_Driver/Src/stm32l1xx_hal_dma.c ****            break;
 714:..//Source/stm/lib/STM32L1xx_HAL_Driver/Src/stm32l1xx_hal_dma.c **** 
 715:..//Source/stm/lib/STM32L1xx_HAL_Driver/Src/stm32l1xx_hal_dma.c ****      case  HAL_DMA_XFER_ERROR_CB_ID:
 716:..//Source/stm/lib/STM32L1xx_HAL_Driver/Src/stm32l1xx_hal_dma.c ****            hdma->XferErrorCallback = pCallback;
 717:..//Source/stm/lib/STM32L1xx_HAL_Driver/Src/stm32l1xx_hal_dma.c ****            break;
 718:..//Source/stm/lib/STM32L1xx_HAL_Driver/Src/stm32l1xx_hal_dma.c **** 
ARM GAS  /tmp/cctrNPm4.s 			page 14


 719:..//Source/stm/lib/STM32L1xx_HAL_Driver/Src/stm32l1xx_hal_dma.c ****      case  HAL_DMA_XFER_ABORT_CB_ID:
 720:..//Source/stm/lib/STM32L1xx_HAL_Driver/Src/stm32l1xx_hal_dma.c ****            hdma->XferAbortCallback = pCallback;
 721:..//Source/stm/lib/STM32L1xx_HAL_Driver/Src/stm32l1xx_hal_dma.c ****            break;
 722:..//Source/stm/lib/STM32L1xx_HAL_Driver/Src/stm32l1xx_hal_dma.c **** 
 723:..//Source/stm/lib/STM32L1xx_HAL_Driver/Src/stm32l1xx_hal_dma.c ****      default:
 724:..//Source/stm/lib/STM32L1xx_HAL_Driver/Src/stm32l1xx_hal_dma.c ****            status = HAL_ERROR;
 725:..//Source/stm/lib/STM32L1xx_HAL_Driver/Src/stm32l1xx_hal_dma.c ****            break;
 726:..//Source/stm/lib/STM32L1xx_HAL_Driver/Src/stm32l1xx_hal_dma.c ****     }
 727:..//Source/stm/lib/STM32L1xx_HAL_Driver/Src/stm32l1xx_hal_dma.c ****   }
 728:..//Source/stm/lib/STM32L1xx_HAL_Driver/Src/stm32l1xx_hal_dma.c ****   else
 729:..//Source/stm/lib/STM32L1xx_HAL_Driver/Src/stm32l1xx_hal_dma.c ****   {
 730:..//Source/stm/lib/STM32L1xx_HAL_Driver/Src/stm32l1xx_hal_dma.c ****     status = HAL_ERROR;
 731:..//Source/stm/lib/STM32L1xx_HAL_Driver/Src/stm32l1xx_hal_dma.c ****   }
 732:..//Source/stm/lib/STM32L1xx_HAL_Driver/Src/stm32l1xx_hal_dma.c **** 
 733:..//Source/stm/lib/STM32L1xx_HAL_Driver/Src/stm32l1xx_hal_dma.c ****   /* Release Lock */
 734:..//Source/stm/lib/STM32L1xx_HAL_Driver/Src/stm32l1xx_hal_dma.c ****   __HAL_UNLOCK(hdma);
 735:..//Source/stm/lib/STM32L1xx_HAL_Driver/Src/stm32l1xx_hal_dma.c **** 
 736:..//Source/stm/lib/STM32L1xx_HAL_Driver/Src/stm32l1xx_hal_dma.c ****   return status;
 737:..//Source/stm/lib/STM32L1xx_HAL_Driver/Src/stm32l1xx_hal_dma.c **** }
 738:..//Source/stm/lib/STM32L1xx_HAL_Driver/Src/stm32l1xx_hal_dma.c **** 
 739:..//Source/stm/lib/STM32L1xx_HAL_Driver/Src/stm32l1xx_hal_dma.c **** /**
 740:..//Source/stm/lib/STM32L1xx_HAL_Driver/Src/stm32l1xx_hal_dma.c ****   * @brief  UnRegister callbacks
 741:..//Source/stm/lib/STM32L1xx_HAL_Driver/Src/stm32l1xx_hal_dma.c ****   * @param  hdma                 pointer to a DMA_HandleTypeDef structure that contains
 742:..//Source/stm/lib/STM32L1xx_HAL_Driver/Src/stm32l1xx_hal_dma.c ****   *                               the configuration information for the specified DMA Channel.
 743:..//Source/stm/lib/STM32L1xx_HAL_Driver/Src/stm32l1xx_hal_dma.c ****   * @param  CallbackID           User Callback identifer
 744:..//Source/stm/lib/STM32L1xx_HAL_Driver/Src/stm32l1xx_hal_dma.c ****   *                               a HAL_DMA_CallbackIDTypeDef ENUM as parameter.
 745:..//Source/stm/lib/STM32L1xx_HAL_Driver/Src/stm32l1xx_hal_dma.c ****   * @retval HAL status
 746:..//Source/stm/lib/STM32L1xx_HAL_Driver/Src/stm32l1xx_hal_dma.c ****   */
 747:..//Source/stm/lib/STM32L1xx_HAL_Driver/Src/stm32l1xx_hal_dma.c **** HAL_StatusTypeDef HAL_DMA_UnRegisterCallback(DMA_HandleTypeDef *hdma, HAL_DMA_CallbackIDTypeDef Cal
 748:..//Source/stm/lib/STM32L1xx_HAL_Driver/Src/stm32l1xx_hal_dma.c **** {
 749:..//Source/stm/lib/STM32L1xx_HAL_Driver/Src/stm32l1xx_hal_dma.c ****   HAL_StatusTypeDef status = HAL_OK;
 750:..//Source/stm/lib/STM32L1xx_HAL_Driver/Src/stm32l1xx_hal_dma.c **** 
 751:..//Source/stm/lib/STM32L1xx_HAL_Driver/Src/stm32l1xx_hal_dma.c ****     /* Process locked */
 752:..//Source/stm/lib/STM32L1xx_HAL_Driver/Src/stm32l1xx_hal_dma.c ****   __HAL_LOCK(hdma);
 753:..//Source/stm/lib/STM32L1xx_HAL_Driver/Src/stm32l1xx_hal_dma.c **** 
 754:..//Source/stm/lib/STM32L1xx_HAL_Driver/Src/stm32l1xx_hal_dma.c ****   if(HAL_DMA_STATE_READY == hdma->State)
 755:..//Source/stm/lib/STM32L1xx_HAL_Driver/Src/stm32l1xx_hal_dma.c ****   {
 756:..//Source/stm/lib/STM32L1xx_HAL_Driver/Src/stm32l1xx_hal_dma.c ****     switch (CallbackID)
 757:..//Source/stm/lib/STM32L1xx_HAL_Driver/Src/stm32l1xx_hal_dma.c ****     {
 758:..//Source/stm/lib/STM32L1xx_HAL_Driver/Src/stm32l1xx_hal_dma.c ****      case  HAL_DMA_XFER_CPLT_CB_ID:
 759:..//Source/stm/lib/STM32L1xx_HAL_Driver/Src/stm32l1xx_hal_dma.c ****            hdma->XferCpltCallback = NULL;
 760:..//Source/stm/lib/STM32L1xx_HAL_Driver/Src/stm32l1xx_hal_dma.c ****            break;
 761:..//Source/stm/lib/STM32L1xx_HAL_Driver/Src/stm32l1xx_hal_dma.c **** 
 762:..//Source/stm/lib/STM32L1xx_HAL_Driver/Src/stm32l1xx_hal_dma.c ****      case  HAL_DMA_XFER_HALFCPLT_CB_ID:
 763:..//Source/stm/lib/STM32L1xx_HAL_Driver/Src/stm32l1xx_hal_dma.c ****            hdma->XferHalfCpltCallback = NULL;
 764:..//Source/stm/lib/STM32L1xx_HAL_Driver/Src/stm32l1xx_hal_dma.c ****            break;
 765:..//Source/stm/lib/STM32L1xx_HAL_Driver/Src/stm32l1xx_hal_dma.c **** 
 766:..//Source/stm/lib/STM32L1xx_HAL_Driver/Src/stm32l1xx_hal_dma.c ****      case  HAL_DMA_XFER_ERROR_CB_ID:
 767:..//Source/stm/lib/STM32L1xx_HAL_Driver/Src/stm32l1xx_hal_dma.c ****            hdma->XferErrorCallback = NULL;
 768:..//Source/stm/lib/STM32L1xx_HAL_Driver/Src/stm32l1xx_hal_dma.c ****            break;
 769:..//Source/stm/lib/STM32L1xx_HAL_Driver/Src/stm32l1xx_hal_dma.c **** 
 770:..//Source/stm/lib/STM32L1xx_HAL_Driver/Src/stm32l1xx_hal_dma.c ****      case  HAL_DMA_XFER_ABORT_CB_ID:
 771:..//Source/stm/lib/STM32L1xx_HAL_Driver/Src/stm32l1xx_hal_dma.c ****            hdma->XferAbortCallback = NULL;
 772:..//Source/stm/lib/STM32L1xx_HAL_Driver/Src/stm32l1xx_hal_dma.c ****            break;
 773:..//Source/stm/lib/STM32L1xx_HAL_Driver/Src/stm32l1xx_hal_dma.c **** 
 774:..//Source/stm/lib/STM32L1xx_HAL_Driver/Src/stm32l1xx_hal_dma.c ****     case   HAL_DMA_XFER_ALL_CB_ID:
 775:..//Source/stm/lib/STM32L1xx_HAL_Driver/Src/stm32l1xx_hal_dma.c ****            hdma->XferCpltCallback = NULL;
ARM GAS  /tmp/cctrNPm4.s 			page 15


 776:..//Source/stm/lib/STM32L1xx_HAL_Driver/Src/stm32l1xx_hal_dma.c ****            hdma->XferHalfCpltCallback = NULL;
 777:..//Source/stm/lib/STM32L1xx_HAL_Driver/Src/stm32l1xx_hal_dma.c ****            hdma->XferErrorCallback = NULL;
 778:..//Source/stm/lib/STM32L1xx_HAL_Driver/Src/stm32l1xx_hal_dma.c ****            hdma->XferAbortCallback = NULL;
 779:..//Source/stm/lib/STM32L1xx_HAL_Driver/Src/stm32l1xx_hal_dma.c ****            break;
 780:..//Source/stm/lib/STM32L1xx_HAL_Driver/Src/stm32l1xx_hal_dma.c **** 
 781:..//Source/stm/lib/STM32L1xx_HAL_Driver/Src/stm32l1xx_hal_dma.c ****     default:
 782:..//Source/stm/lib/STM32L1xx_HAL_Driver/Src/stm32l1xx_hal_dma.c ****            status = HAL_ERROR;
 783:..//Source/stm/lib/STM32L1xx_HAL_Driver/Src/stm32l1xx_hal_dma.c ****            break;
 784:..//Source/stm/lib/STM32L1xx_HAL_Driver/Src/stm32l1xx_hal_dma.c ****     }
 785:..//Source/stm/lib/STM32L1xx_HAL_Driver/Src/stm32l1xx_hal_dma.c ****   }
 786:..//Source/stm/lib/STM32L1xx_HAL_Driver/Src/stm32l1xx_hal_dma.c ****   else
 787:..//Source/stm/lib/STM32L1xx_HAL_Driver/Src/stm32l1xx_hal_dma.c ****   {
 788:..//Source/stm/lib/STM32L1xx_HAL_Driver/Src/stm32l1xx_hal_dma.c ****     status = HAL_ERROR;
 789:..//Source/stm/lib/STM32L1xx_HAL_Driver/Src/stm32l1xx_hal_dma.c ****   }
 790:..//Source/stm/lib/STM32L1xx_HAL_Driver/Src/stm32l1xx_hal_dma.c **** 
 791:..//Source/stm/lib/STM32L1xx_HAL_Driver/Src/stm32l1xx_hal_dma.c ****   /* Release Lock */
 792:..//Source/stm/lib/STM32L1xx_HAL_Driver/Src/stm32l1xx_hal_dma.c ****   __HAL_UNLOCK(hdma);
 793:..//Source/stm/lib/STM32L1xx_HAL_Driver/Src/stm32l1xx_hal_dma.c **** 
 794:..//Source/stm/lib/STM32L1xx_HAL_Driver/Src/stm32l1xx_hal_dma.c ****   return status;
 795:..//Source/stm/lib/STM32L1xx_HAL_Driver/Src/stm32l1xx_hal_dma.c **** }
 796:..//Source/stm/lib/STM32L1xx_HAL_Driver/Src/stm32l1xx_hal_dma.c **** 
 797:..//Source/stm/lib/STM32L1xx_HAL_Driver/Src/stm32l1xx_hal_dma.c **** /**
 798:..//Source/stm/lib/STM32L1xx_HAL_Driver/Src/stm32l1xx_hal_dma.c ****   * @}
 799:..//Source/stm/lib/STM32L1xx_HAL_Driver/Src/stm32l1xx_hal_dma.c ****   */
 800:..//Source/stm/lib/STM32L1xx_HAL_Driver/Src/stm32l1xx_hal_dma.c **** 
 801:..//Source/stm/lib/STM32L1xx_HAL_Driver/Src/stm32l1xx_hal_dma.c **** 
 802:..//Source/stm/lib/STM32L1xx_HAL_Driver/Src/stm32l1xx_hal_dma.c **** 
 803:..//Source/stm/lib/STM32L1xx_HAL_Driver/Src/stm32l1xx_hal_dma.c **** /** @defgroup DMA_Exported_Functions_Group3 Peripheral State and Errors functions
 804:..//Source/stm/lib/STM32L1xx_HAL_Driver/Src/stm32l1xx_hal_dma.c ****  *  @brief    Peripheral State and Errors functions
 805:..//Source/stm/lib/STM32L1xx_HAL_Driver/Src/stm32l1xx_hal_dma.c ****  *
 806:..//Source/stm/lib/STM32L1xx_HAL_Driver/Src/stm32l1xx_hal_dma.c **** @verbatim
 807:..//Source/stm/lib/STM32L1xx_HAL_Driver/Src/stm32l1xx_hal_dma.c ****  ===============================================================================
 808:..//Source/stm/lib/STM32L1xx_HAL_Driver/Src/stm32l1xx_hal_dma.c ****             ##### Peripheral State and Errors functions #####
 809:..//Source/stm/lib/STM32L1xx_HAL_Driver/Src/stm32l1xx_hal_dma.c ****  ===============================================================================
 810:..//Source/stm/lib/STM32L1xx_HAL_Driver/Src/stm32l1xx_hal_dma.c ****     [..]
 811:..//Source/stm/lib/STM32L1xx_HAL_Driver/Src/stm32l1xx_hal_dma.c ****     This subsection provides functions allowing to
 812:..//Source/stm/lib/STM32L1xx_HAL_Driver/Src/stm32l1xx_hal_dma.c ****       (+) Check the DMA state
 813:..//Source/stm/lib/STM32L1xx_HAL_Driver/Src/stm32l1xx_hal_dma.c ****       (+) Get error code
 814:..//Source/stm/lib/STM32L1xx_HAL_Driver/Src/stm32l1xx_hal_dma.c **** 
 815:..//Source/stm/lib/STM32L1xx_HAL_Driver/Src/stm32l1xx_hal_dma.c **** @endverbatim
 816:..//Source/stm/lib/STM32L1xx_HAL_Driver/Src/stm32l1xx_hal_dma.c ****   * @{
 817:..//Source/stm/lib/STM32L1xx_HAL_Driver/Src/stm32l1xx_hal_dma.c ****   */
 818:..//Source/stm/lib/STM32L1xx_HAL_Driver/Src/stm32l1xx_hal_dma.c **** 
 819:..//Source/stm/lib/STM32L1xx_HAL_Driver/Src/stm32l1xx_hal_dma.c **** /**
 820:..//Source/stm/lib/STM32L1xx_HAL_Driver/Src/stm32l1xx_hal_dma.c ****   * @brief  Return the DMA handle state.
 821:..//Source/stm/lib/STM32L1xx_HAL_Driver/Src/stm32l1xx_hal_dma.c ****   * @param  hdma pointer to a DMA_HandleTypeDef structure that contains
 822:..//Source/stm/lib/STM32L1xx_HAL_Driver/Src/stm32l1xx_hal_dma.c ****   *               the configuration information for the specified DMA Channel.
 823:..//Source/stm/lib/STM32L1xx_HAL_Driver/Src/stm32l1xx_hal_dma.c ****   * @retval HAL state
 824:..//Source/stm/lib/STM32L1xx_HAL_Driver/Src/stm32l1xx_hal_dma.c ****   */
 825:..//Source/stm/lib/STM32L1xx_HAL_Driver/Src/stm32l1xx_hal_dma.c **** HAL_DMA_StateTypeDef HAL_DMA_GetState(DMA_HandleTypeDef *hdma)
 826:..//Source/stm/lib/STM32L1xx_HAL_Driver/Src/stm32l1xx_hal_dma.c **** {
 827:..//Source/stm/lib/STM32L1xx_HAL_Driver/Src/stm32l1xx_hal_dma.c ****   /* Return DMA handle state */
 828:..//Source/stm/lib/STM32L1xx_HAL_Driver/Src/stm32l1xx_hal_dma.c ****   return hdma->State;
 829:..//Source/stm/lib/STM32L1xx_HAL_Driver/Src/stm32l1xx_hal_dma.c **** }
 830:..//Source/stm/lib/STM32L1xx_HAL_Driver/Src/stm32l1xx_hal_dma.c **** 
 831:..//Source/stm/lib/STM32L1xx_HAL_Driver/Src/stm32l1xx_hal_dma.c **** /**
 832:..//Source/stm/lib/STM32L1xx_HAL_Driver/Src/stm32l1xx_hal_dma.c ****   * @brief  Return the DMA error code.
ARM GAS  /tmp/cctrNPm4.s 			page 16


 833:..//Source/stm/lib/STM32L1xx_HAL_Driver/Src/stm32l1xx_hal_dma.c ****   * @param  hdma pointer to a DMA_HandleTypeDef structure that contains
 834:..//Source/stm/lib/STM32L1xx_HAL_Driver/Src/stm32l1xx_hal_dma.c ****   *              the configuration information for the specified DMA Channel.
 835:..//Source/stm/lib/STM32L1xx_HAL_Driver/Src/stm32l1xx_hal_dma.c ****   * @retval DMA Error Code
 836:..//Source/stm/lib/STM32L1xx_HAL_Driver/Src/stm32l1xx_hal_dma.c ****   */
 837:..//Source/stm/lib/STM32L1xx_HAL_Driver/Src/stm32l1xx_hal_dma.c **** uint32_t HAL_DMA_GetError(DMA_HandleTypeDef *hdma)
 838:..//Source/stm/lib/STM32L1xx_HAL_Driver/Src/stm32l1xx_hal_dma.c **** {
 839:..//Source/stm/lib/STM32L1xx_HAL_Driver/Src/stm32l1xx_hal_dma.c ****   return hdma->ErrorCode;
 840:..//Source/stm/lib/STM32L1xx_HAL_Driver/Src/stm32l1xx_hal_dma.c **** }
 841:..//Source/stm/lib/STM32L1xx_HAL_Driver/Src/stm32l1xx_hal_dma.c **** 
 842:..//Source/stm/lib/STM32L1xx_HAL_Driver/Src/stm32l1xx_hal_dma.c **** /**
 843:..//Source/stm/lib/STM32L1xx_HAL_Driver/Src/stm32l1xx_hal_dma.c ****   * @}
 844:..//Source/stm/lib/STM32L1xx_HAL_Driver/Src/stm32l1xx_hal_dma.c ****   */
 845:..//Source/stm/lib/STM32L1xx_HAL_Driver/Src/stm32l1xx_hal_dma.c **** 
 846:..//Source/stm/lib/STM32L1xx_HAL_Driver/Src/stm32l1xx_hal_dma.c **** /**
 847:..//Source/stm/lib/STM32L1xx_HAL_Driver/Src/stm32l1xx_hal_dma.c ****   * @}
 848:..//Source/stm/lib/STM32L1xx_HAL_Driver/Src/stm32l1xx_hal_dma.c ****   */
 849:..//Source/stm/lib/STM32L1xx_HAL_Driver/Src/stm32l1xx_hal_dma.c **** 
 850:..//Source/stm/lib/STM32L1xx_HAL_Driver/Src/stm32l1xx_hal_dma.c **** /** @addtogroup DMA_Private_Functions
 851:..//Source/stm/lib/STM32L1xx_HAL_Driver/Src/stm32l1xx_hal_dma.c ****   * @{
 852:..//Source/stm/lib/STM32L1xx_HAL_Driver/Src/stm32l1xx_hal_dma.c ****   */
 853:..//Source/stm/lib/STM32L1xx_HAL_Driver/Src/stm32l1xx_hal_dma.c **** 
 854:..//Source/stm/lib/STM32L1xx_HAL_Driver/Src/stm32l1xx_hal_dma.c **** /**
 855:..//Source/stm/lib/STM32L1xx_HAL_Driver/Src/stm32l1xx_hal_dma.c ****   * @brief  Sets the DMA Transfer parameter.
 856:..//Source/stm/lib/STM32L1xx_HAL_Driver/Src/stm32l1xx_hal_dma.c ****   * @param  hdma       pointer to a DMA_HandleTypeDef structure that contains
 857:..//Source/stm/lib/STM32L1xx_HAL_Driver/Src/stm32l1xx_hal_dma.c ****   *                     the configuration information for the specified DMA Channel.
 858:..//Source/stm/lib/STM32L1xx_HAL_Driver/Src/stm32l1xx_hal_dma.c ****   * @param  SrcAddress The source memory Buffer address
 859:..//Source/stm/lib/STM32L1xx_HAL_Driver/Src/stm32l1xx_hal_dma.c ****   * @param  DstAddress The destination memory Buffer address
 860:..//Source/stm/lib/STM32L1xx_HAL_Driver/Src/stm32l1xx_hal_dma.c ****   * @param  DataLength The length of data to be transferred from source to destination
 861:..//Source/stm/lib/STM32L1xx_HAL_Driver/Src/stm32l1xx_hal_dma.c ****   * @retval HAL status
 862:..//Source/stm/lib/STM32L1xx_HAL_Driver/Src/stm32l1xx_hal_dma.c ****   */
 863:..//Source/stm/lib/STM32L1xx_HAL_Driver/Src/stm32l1xx_hal_dma.c **** static void DMA_SetConfig(DMA_HandleTypeDef *hdma, uint32_t SrcAddress, uint32_t DstAddress, uint32
 864:..//Source/stm/lib/STM32L1xx_HAL_Driver/Src/stm32l1xx_hal_dma.c **** {
  25              		.loc 1 864 0
  26              		.cfi_startproc
  27              		@ args = 0, pretend = 0, frame = 0
  28              		@ frame_needed = 0, uses_anonymous_args = 0
  29              		@ link register save eliminated.
  30              	.LVL0:
  31 0000 70B4     		push	{r4, r5, r6}
  32              	.LCFI0:
  33              		.cfi_def_cfa_offset 12
  34              		.cfi_offset 4, -12
  35              		.cfi_offset 5, -8
  36              		.cfi_offset 6, -4
 865:..//Source/stm/lib/STM32L1xx_HAL_Driver/Src/stm32l1xx_hal_dma.c ****   /* Clear all flags */
 866:..//Source/stm/lib/STM32L1xx_HAL_Driver/Src/stm32l1xx_hal_dma.c ****   hdma->DmaBaseAddress->IFCR = (DMA_ISR_GIF1 << (hdma->ChannelIndex & 0x1CU));
  37              		.loc 1 866 0
  38 0002 C66B     		ldr	r6, [r0, #60]
  39 0004 046C     		ldr	r4, [r0, #64]
  40 0006 04F01C05 		and	r5, r4, #28
  41 000a 0124     		movs	r4, #1
  42 000c AC40     		lsls	r4, r4, r5
  43 000e 7460     		str	r4, [r6, #4]
 867:..//Source/stm/lib/STM32L1xx_HAL_Driver/Src/stm32l1xx_hal_dma.c **** 
 868:..//Source/stm/lib/STM32L1xx_HAL_Driver/Src/stm32l1xx_hal_dma.c ****   /* Configure DMA Channel data length */
 869:..//Source/stm/lib/STM32L1xx_HAL_Driver/Src/stm32l1xx_hal_dma.c ****   hdma->Instance->CNDTR = DataLength;
  44              		.loc 1 869 0
ARM GAS  /tmp/cctrNPm4.s 			page 17


  45 0010 0468     		ldr	r4, [r0]
  46 0012 6360     		str	r3, [r4, #4]
 870:..//Source/stm/lib/STM32L1xx_HAL_Driver/Src/stm32l1xx_hal_dma.c **** 
 871:..//Source/stm/lib/STM32L1xx_HAL_Driver/Src/stm32l1xx_hal_dma.c ****   /* Memory to Peripheral */
 872:..//Source/stm/lib/STM32L1xx_HAL_Driver/Src/stm32l1xx_hal_dma.c ****   if((hdma->Init.Direction) == DMA_MEMORY_TO_PERIPH)
  47              		.loc 1 872 0
  48 0014 4368     		ldr	r3, [r0, #4]
  49              	.LVL1:
  50 0016 102B     		cmp	r3, #16
  51 0018 05D0     		beq	.L5
 873:..//Source/stm/lib/STM32L1xx_HAL_Driver/Src/stm32l1xx_hal_dma.c ****   {
 874:..//Source/stm/lib/STM32L1xx_HAL_Driver/Src/stm32l1xx_hal_dma.c ****     /* Configure DMA Channel destination address */
 875:..//Source/stm/lib/STM32L1xx_HAL_Driver/Src/stm32l1xx_hal_dma.c ****     hdma->Instance->CPAR = DstAddress;
 876:..//Source/stm/lib/STM32L1xx_HAL_Driver/Src/stm32l1xx_hal_dma.c **** 
 877:..//Source/stm/lib/STM32L1xx_HAL_Driver/Src/stm32l1xx_hal_dma.c ****     /* Configure DMA Channel source address */
 878:..//Source/stm/lib/STM32L1xx_HAL_Driver/Src/stm32l1xx_hal_dma.c ****     hdma->Instance->CMAR = SrcAddress;
 879:..//Source/stm/lib/STM32L1xx_HAL_Driver/Src/stm32l1xx_hal_dma.c ****   }
 880:..//Source/stm/lib/STM32L1xx_HAL_Driver/Src/stm32l1xx_hal_dma.c ****   /* Peripheral to Memory */
 881:..//Source/stm/lib/STM32L1xx_HAL_Driver/Src/stm32l1xx_hal_dma.c ****   else
 882:..//Source/stm/lib/STM32L1xx_HAL_Driver/Src/stm32l1xx_hal_dma.c ****   {
 883:..//Source/stm/lib/STM32L1xx_HAL_Driver/Src/stm32l1xx_hal_dma.c ****     /* Configure DMA Channel source address */
 884:..//Source/stm/lib/STM32L1xx_HAL_Driver/Src/stm32l1xx_hal_dma.c ****     hdma->Instance->CPAR = SrcAddress;
  52              		.loc 1 884 0
  53 001a 0368     		ldr	r3, [r0]
  54 001c 9960     		str	r1, [r3, #8]
  55              	.LVL2:
 885:..//Source/stm/lib/STM32L1xx_HAL_Driver/Src/stm32l1xx_hal_dma.c **** 
 886:..//Source/stm/lib/STM32L1xx_HAL_Driver/Src/stm32l1xx_hal_dma.c ****     /* Configure DMA Channel destination address */
 887:..//Source/stm/lib/STM32L1xx_HAL_Driver/Src/stm32l1xx_hal_dma.c ****     hdma->Instance->CMAR = DstAddress;
  56              		.loc 1 887 0
  57 001e 0368     		ldr	r3, [r0]
  58 0020 DA60     		str	r2, [r3, #12]
  59              	.L1:
 888:..//Source/stm/lib/STM32L1xx_HAL_Driver/Src/stm32l1xx_hal_dma.c ****   }
 889:..//Source/stm/lib/STM32L1xx_HAL_Driver/Src/stm32l1xx_hal_dma.c **** }
  60              		.loc 1 889 0
  61 0022 70BC     		pop	{r4, r5, r6}
  62              	.LCFI1:
  63              		.cfi_remember_state
  64              		.cfi_restore 6
  65              		.cfi_restore 5
  66              		.cfi_restore 4
  67              		.cfi_def_cfa_offset 0
  68 0024 7047     		bx	lr
  69              	.LVL3:
  70              	.L5:
  71              	.LCFI2:
  72              		.cfi_restore_state
 875:..//Source/stm/lib/STM32L1xx_HAL_Driver/Src/stm32l1xx_hal_dma.c **** 
  73              		.loc 1 875 0
  74 0026 0368     		ldr	r3, [r0]
  75 0028 9A60     		str	r2, [r3, #8]
  76              	.LVL4:
 878:..//Source/stm/lib/STM32L1xx_HAL_Driver/Src/stm32l1xx_hal_dma.c ****   }
  77              		.loc 1 878 0
  78 002a 0368     		ldr	r3, [r0]
  79 002c D960     		str	r1, [r3, #12]
ARM GAS  /tmp/cctrNPm4.s 			page 18


  80 002e F8E7     		b	.L1
  81              		.cfi_endproc
  82              	.LFE84:
  84              		.section	.text.HAL_DMA_Init,"ax",%progbits
  85              		.align	1
  86              		.global	HAL_DMA_Init
  87              		.syntax unified
  88              		.thumb
  89              		.thumb_func
  90              		.fpu softvfp
  92              	HAL_DMA_Init:
  93              	.LFB72:
 144:..//Source/stm/lib/STM32L1xx_HAL_Driver/Src/stm32l1xx_hal_dma.c ****   uint32_t tmp;
  94              		.loc 1 144 0
  95              		.cfi_startproc
  96              		@ args = 0, pretend = 0, frame = 0
  97              		@ frame_needed = 0, uses_anonymous_args = 0
  98              		@ link register save eliminated.
  99              	.LVL5:
 148:..//Source/stm/lib/STM32L1xx_HAL_Driver/Src/stm32l1xx_hal_dma.c ****   {
 100              		.loc 1 148 0
 101 0000 60B3     		cbz	r0, .L8
 144:..//Source/stm/lib/STM32L1xx_HAL_Driver/Src/stm32l1xx_hal_dma.c ****   uint32_t tmp;
 102              		.loc 1 144 0
 103 0002 10B4     		push	{r4}
 104              	.LCFI3:
 105              		.cfi_def_cfa_offset 4
 106              		.cfi_offset 4, -4
 107 0004 0346     		mov	r3, r0
 180:..//Source/stm/lib/STM32L1xx_HAL_Driver/Src/stm32l1xx_hal_dma.c ****   hdma->DmaBaseAddress = DMA1;
 108              		.loc 1 180 0
 109 0006 0068     		ldr	r0, [r0]
 110              	.LVL6:
 111 0008 154A     		ldr	r2, .L13
 112 000a 0244     		add	r2, r2, r0
 113 000c 1549     		ldr	r1, .L13+4
 114 000e A1FB0212 		umull	r1, r2, r1, r2
 115 0012 1209     		lsrs	r2, r2, #4
 116 0014 9200     		lsls	r2, r2, #2
 117 0016 1A64     		str	r2, [r3, #64]
 181:..//Source/stm/lib/STM32L1xx_HAL_Driver/Src/stm32l1xx_hal_dma.c **** #endif
 118              		.loc 1 181 0
 119 0018 134A     		ldr	r2, .L13+8
 120 001a DA63     		str	r2, [r3, #60]
 185:..//Source/stm/lib/STM32L1xx_HAL_Driver/Src/stm32l1xx_hal_dma.c **** 
 121              		.loc 1 185 0
 122 001c 0222     		movs	r2, #2
 123 001e 83F82120 		strb	r2, [r3, #33]
 188:..//Source/stm/lib/STM32L1xx_HAL_Driver/Src/stm32l1xx_hal_dma.c **** 
 124              		.loc 1 188 0
 125 0022 0168     		ldr	r1, [r0]
 126              	.LVL7:
 191:..//Source/stm/lib/STM32L1xx_HAL_Driver/Src/stm32l1xx_hal_dma.c ****                       DMA_CCR_MINC  | DMA_CCR_PINC    | DMA_CCR_CIRC   |
 127              		.loc 1 191 0
 128 0024 21F4FF41 		bic	r1, r1, #32640
 129              	.LVL8:
 130 0028 21F07001 		bic	r1, r1, #112
ARM GAS  /tmp/cctrNPm4.s 			page 19


 131              	.LVL9:
 196:..//Source/stm/lib/STM32L1xx_HAL_Driver/Src/stm32l1xx_hal_dma.c ****           hdma->Init.PeriphInc           | hdma->Init.MemInc           |
 132              		.loc 1 196 0
 133 002c 5A68     		ldr	r2, [r3, #4]
 197:..//Source/stm/lib/STM32L1xx_HAL_Driver/Src/stm32l1xx_hal_dma.c ****           hdma->Init.PeriphDataAlignment | hdma->Init.MemDataAlignment |
 134              		.loc 1 197 0
 135 002e 9C68     		ldr	r4, [r3, #8]
 196:..//Source/stm/lib/STM32L1xx_HAL_Driver/Src/stm32l1xx_hal_dma.c ****           hdma->Init.PeriphInc           | hdma->Init.MemInc           |
 136              		.loc 1 196 0
 137 0030 2243     		orrs	r2, r2, r4
 197:..//Source/stm/lib/STM32L1xx_HAL_Driver/Src/stm32l1xx_hal_dma.c ****           hdma->Init.PeriphDataAlignment | hdma->Init.MemDataAlignment |
 138              		.loc 1 197 0
 139 0032 DC68     		ldr	r4, [r3, #12]
 140 0034 2243     		orrs	r2, r2, r4
 198:..//Source/stm/lib/STM32L1xx_HAL_Driver/Src/stm32l1xx_hal_dma.c ****           hdma->Init.Mode                | hdma->Init.Priority;
 141              		.loc 1 198 0
 142 0036 1C69     		ldr	r4, [r3, #16]
 197:..//Source/stm/lib/STM32L1xx_HAL_Driver/Src/stm32l1xx_hal_dma.c ****           hdma->Init.PeriphDataAlignment | hdma->Init.MemDataAlignment |
 143              		.loc 1 197 0
 144 0038 2243     		orrs	r2, r2, r4
 198:..//Source/stm/lib/STM32L1xx_HAL_Driver/Src/stm32l1xx_hal_dma.c ****           hdma->Init.Mode                | hdma->Init.Priority;
 145              		.loc 1 198 0
 146 003a 5C69     		ldr	r4, [r3, #20]
 147 003c 2243     		orrs	r2, r2, r4
 199:..//Source/stm/lib/STM32L1xx_HAL_Driver/Src/stm32l1xx_hal_dma.c **** 
 148              		.loc 1 199 0
 149 003e 9C69     		ldr	r4, [r3, #24]
 198:..//Source/stm/lib/STM32L1xx_HAL_Driver/Src/stm32l1xx_hal_dma.c ****           hdma->Init.Mode                | hdma->Init.Priority;
 150              		.loc 1 198 0
 151 0040 2243     		orrs	r2, r2, r4
 199:..//Source/stm/lib/STM32L1xx_HAL_Driver/Src/stm32l1xx_hal_dma.c **** 
 152              		.loc 1 199 0
 153 0042 DC69     		ldr	r4, [r3, #28]
 154 0044 2243     		orrs	r2, r2, r4
 196:..//Source/stm/lib/STM32L1xx_HAL_Driver/Src/stm32l1xx_hal_dma.c ****           hdma->Init.PeriphInc           | hdma->Init.MemInc           |
 155              		.loc 1 196 0
 156 0046 0A43     		orrs	r2, r2, r1
 157              	.LVL10:
 202:..//Source/stm/lib/STM32L1xx_HAL_Driver/Src/stm32l1xx_hal_dma.c **** 
 158              		.loc 1 202 0
 159 0048 0260     		str	r2, [r0]
 205:..//Source/stm/lib/STM32L1xx_HAL_Driver/Src/stm32l1xx_hal_dma.c **** 
 160              		.loc 1 205 0
 161 004a 0020     		movs	r0, #0
 162 004c 9863     		str	r0, [r3, #56]
 208:..//Source/stm/lib/STM32L1xx_HAL_Driver/Src/stm32l1xx_hal_dma.c **** 
 163              		.loc 1 208 0
 164 004e 0122     		movs	r2, #1
 165              	.LVL11:
 166 0050 83F82120 		strb	r2, [r3, #33]
 211:..//Source/stm/lib/STM32L1xx_HAL_Driver/Src/stm32l1xx_hal_dma.c **** 
 167              		.loc 1 211 0
 168 0054 83F82000 		strb	r0, [r3, #32]
 214:..//Source/stm/lib/STM32L1xx_HAL_Driver/Src/stm32l1xx_hal_dma.c **** 
 169              		.loc 1 214 0
 170 0058 10BC     		pop	{r4}
 171              	.LCFI4:
ARM GAS  /tmp/cctrNPm4.s 			page 20


 172              		.cfi_restore 4
 173              		.cfi_def_cfa_offset 0
 174 005a 7047     		bx	lr
 175              	.LVL12:
 176              	.L8:
 150:..//Source/stm/lib/STM32L1xx_HAL_Driver/Src/stm32l1xx_hal_dma.c ****   }
 177              		.loc 1 150 0
 178 005c 0120     		movs	r0, #1
 179              	.LVL13:
 180 005e 7047     		bx	lr
 181              	.L14:
 182              		.align	2
 183              	.L13:
 184 0060 F89FFDBF 		.word	-1073897480
 185 0064 CDCCCCCC 		.word	-858993459
 186 0068 00600240 		.word	1073897472
 187              		.cfi_endproc
 188              	.LFE72:
 190              		.section	.text.HAL_DMA_DeInit,"ax",%progbits
 191              		.align	1
 192              		.global	HAL_DMA_DeInit
 193              		.syntax unified
 194              		.thumb
 195              		.thumb_func
 196              		.fpu softvfp
 198              	HAL_DMA_DeInit:
 199              	.LFB73:
 223:..//Source/stm/lib/STM32L1xx_HAL_Driver/Src/stm32l1xx_hal_dma.c **** 
 200              		.loc 1 223 0
 201              		.cfi_startproc
 202              		@ args = 0, pretend = 0, frame = 0
 203              		@ frame_needed = 0, uses_anonymous_args = 0
 204              		@ link register save eliminated.
 205              	.LVL14:
 226:..//Source/stm/lib/STM32L1xx_HAL_Driver/Src/stm32l1xx_hal_dma.c ****   {
 206              		.loc 1 226 0
 207 0000 28B3     		cbz	r0, .L17
 223:..//Source/stm/lib/STM32L1xx_HAL_Driver/Src/stm32l1xx_hal_dma.c **** 
 208              		.loc 1 223 0
 209 0002 10B4     		push	{r4}
 210              	.LCFI5:
 211              		.cfi_def_cfa_offset 4
 212              		.cfi_offset 4, -4
 213 0004 0346     		mov	r3, r0
 235:..//Source/stm/lib/STM32L1xx_HAL_Driver/Src/stm32l1xx_hal_dma.c **** 
 214              		.loc 1 235 0
 215 0006 0168     		ldr	r1, [r0]
 216 0008 0A68     		ldr	r2, [r1]
 217 000a 22F00102 		bic	r2, r2, #1
 218 000e 0A60     		str	r2, [r1]
 254:..//Source/stm/lib/STM32L1xx_HAL_Driver/Src/stm32l1xx_hal_dma.c ****   hdma->DmaBaseAddress = DMA1;
 219              		.loc 1 254 0
 220 0010 0168     		ldr	r1, [r0]
 221 0012 104A     		ldr	r2, .L22
 222 0014 0A44     		add	r2, r2, r1
 223 0016 1048     		ldr	r0, .L22+4
 224              	.LVL15:
ARM GAS  /tmp/cctrNPm4.s 			page 21


 225 0018 A0FB0202 		umull	r0, r2, r0, r2
 226 001c 1209     		lsrs	r2, r2, #4
 227 001e 9200     		lsls	r2, r2, #2
 228 0020 1A64     		str	r2, [r3, #64]
 255:..//Source/stm/lib/STM32L1xx_HAL_Driver/Src/stm32l1xx_hal_dma.c **** #endif
 229              		.loc 1 255 0
 230 0022 0E4A     		ldr	r2, .L22+8
 231 0024 DA63     		str	r2, [r3, #60]
 259:..//Source/stm/lib/STM32L1xx_HAL_Driver/Src/stm32l1xx_hal_dma.c **** 
 232              		.loc 1 259 0
 233 0026 0020     		movs	r0, #0
 234 0028 0860     		str	r0, [r1]
 262:..//Source/stm/lib/STM32L1xx_HAL_Driver/Src/stm32l1xx_hal_dma.c **** 
 235              		.loc 1 262 0
 236 002a DC6B     		ldr	r4, [r3, #60]
 237 002c 1A6C     		ldr	r2, [r3, #64]
 238 002e 02F01C01 		and	r1, r2, #28
 239 0032 0122     		movs	r2, #1
 240 0034 8A40     		lsls	r2, r2, r1
 241 0036 6260     		str	r2, [r4, #4]
 265:..//Source/stm/lib/STM32L1xx_HAL_Driver/Src/stm32l1xx_hal_dma.c ****   hdma->XferHalfCpltCallback = NULL;
 242              		.loc 1 265 0
 243 0038 9862     		str	r0, [r3, #40]
 266:..//Source/stm/lib/STM32L1xx_HAL_Driver/Src/stm32l1xx_hal_dma.c ****   hdma->XferErrorCallback = NULL;
 244              		.loc 1 266 0
 245 003a D862     		str	r0, [r3, #44]
 267:..//Source/stm/lib/STM32L1xx_HAL_Driver/Src/stm32l1xx_hal_dma.c ****   hdma->XferAbortCallback = NULL;
 246              		.loc 1 267 0
 247 003c 1863     		str	r0, [r3, #48]
 268:..//Source/stm/lib/STM32L1xx_HAL_Driver/Src/stm32l1xx_hal_dma.c **** 
 248              		.loc 1 268 0
 249 003e 5863     		str	r0, [r3, #52]
 271:..//Source/stm/lib/STM32L1xx_HAL_Driver/Src/stm32l1xx_hal_dma.c **** 
 250              		.loc 1 271 0
 251 0040 9863     		str	r0, [r3, #56]
 274:..//Source/stm/lib/STM32L1xx_HAL_Driver/Src/stm32l1xx_hal_dma.c **** 
 252              		.loc 1 274 0
 253 0042 83F82100 		strb	r0, [r3, #33]
 277:..//Source/stm/lib/STM32L1xx_HAL_Driver/Src/stm32l1xx_hal_dma.c **** 
 254              		.loc 1 277 0
 255 0046 83F82000 		strb	r0, [r3, #32]
 280:..//Source/stm/lib/STM32L1xx_HAL_Driver/Src/stm32l1xx_hal_dma.c **** 
 256              		.loc 1 280 0
 257 004a 10BC     		pop	{r4}
 258              	.LCFI6:
 259              		.cfi_restore 4
 260              		.cfi_def_cfa_offset 0
 261 004c 7047     		bx	lr
 262              	.LVL16:
 263              	.L17:
 228:..//Source/stm/lib/STM32L1xx_HAL_Driver/Src/stm32l1xx_hal_dma.c ****   }
 264              		.loc 1 228 0
 265 004e 0120     		movs	r0, #1
 266              	.LVL17:
 267 0050 7047     		bx	lr
 268              	.L23:
 269 0052 00BF     		.align	2
ARM GAS  /tmp/cctrNPm4.s 			page 22


 270              	.L22:
 271 0054 F89FFDBF 		.word	-1073897480
 272 0058 CDCCCCCC 		.word	-858993459
 273 005c 00600240 		.word	1073897472
 274              		.cfi_endproc
 275              	.LFE73:
 277              		.section	.text.HAL_DMA_Start,"ax",%progbits
 278              		.align	1
 279              		.global	HAL_DMA_Start
 280              		.syntax unified
 281              		.thumb
 282              		.thumb_func
 283              		.fpu softvfp
 285              	HAL_DMA_Start:
 286              	.LFB74:
 315:..//Source/stm/lib/STM32L1xx_HAL_Driver/Src/stm32l1xx_hal_dma.c ****   HAL_StatusTypeDef status = HAL_OK;
 287              		.loc 1 315 0
 288              		.cfi_startproc
 289              		@ args = 0, pretend = 0, frame = 0
 290              		@ frame_needed = 0, uses_anonymous_args = 0
 291              	.LVL18:
 292 0000 70B5     		push	{r4, r5, r6, lr}
 293              	.LCFI7:
 294              		.cfi_def_cfa_offset 16
 295              		.cfi_offset 4, -16
 296              		.cfi_offset 5, -12
 297              		.cfi_offset 6, -8
 298              		.cfi_offset 14, -4
 299              	.LVL19:
 322:..//Source/stm/lib/STM32L1xx_HAL_Driver/Src/stm32l1xx_hal_dma.c **** 
 300              		.loc 1 322 0
 301 0002 90F82040 		ldrb	r4, [r0, #32]	@ zero_extendqisi2
 302 0006 012C     		cmp	r4, #1
 303 0008 21D0     		beq	.L27
 322:..//Source/stm/lib/STM32L1xx_HAL_Driver/Src/stm32l1xx_hal_dma.c **** 
 304              		.loc 1 322 0 is_stmt 0 discriminator 2
 305 000a 0124     		movs	r4, #1
 306 000c 80F82040 		strb	r4, [r0, #32]
 324:..//Source/stm/lib/STM32L1xx_HAL_Driver/Src/stm32l1xx_hal_dma.c ****   {
 307              		.loc 1 324 0 is_stmt 1 discriminator 2
 308 0010 90F82140 		ldrb	r4, [r0, #33]	@ zero_extendqisi2
 309 0014 E4B2     		uxtb	r4, r4
 310 0016 012C     		cmp	r4, #1
 311 0018 04D0     		beq	.L29
 342:..//Source/stm/lib/STM32L1xx_HAL_Driver/Src/stm32l1xx_hal_dma.c ****     status = HAL_BUSY;
 312              		.loc 1 342 0
 313 001a 0023     		movs	r3, #0
 314              	.LVL20:
 315 001c 80F82030 		strb	r3, [r0, #32]
 316              	.LVL21:
 343:..//Source/stm/lib/STM32L1xx_HAL_Driver/Src/stm32l1xx_hal_dma.c ****   }
 317              		.loc 1 343 0
 318 0020 0220     		movs	r0, #2
 319              	.LVL22:
 320 0022 70BD     		pop	{r4, r5, r6, pc}
 321              	.LVL23:
 322              	.L29:
ARM GAS  /tmp/cctrNPm4.s 			page 23


 323 0024 0546     		mov	r5, r0
 327:..//Source/stm/lib/STM32L1xx_HAL_Driver/Src/stm32l1xx_hal_dma.c ****     hdma->ErrorCode = HAL_DMA_ERROR_NONE;
 324              		.loc 1 327 0
 325 0026 0220     		movs	r0, #2
 326              	.LVL24:
 327 0028 85F82100 		strb	r0, [r5, #33]
 328:..//Source/stm/lib/STM32L1xx_HAL_Driver/Src/stm32l1xx_hal_dma.c **** 
 328              		.loc 1 328 0
 329 002c 0024     		movs	r4, #0
 330 002e AC63     		str	r4, [r5, #56]
 331:..//Source/stm/lib/STM32L1xx_HAL_Driver/Src/stm32l1xx_hal_dma.c **** 
 331              		.loc 1 331 0
 332 0030 2E68     		ldr	r6, [r5]
 333 0032 3068     		ldr	r0, [r6]
 334 0034 20F00100 		bic	r0, r0, #1
 335 0038 3060     		str	r0, [r6]
 334:..//Source/stm/lib/STM32L1xx_HAL_Driver/Src/stm32l1xx_hal_dma.c **** 
 336              		.loc 1 334 0
 337 003a 2846     		mov	r0, r5
 338 003c FFF7FEFF 		bl	DMA_SetConfig
 339              	.LVL25:
 337:..//Source/stm/lib/STM32L1xx_HAL_Driver/Src/stm32l1xx_hal_dma.c ****   }
 340              		.loc 1 337 0
 341 0040 2A68     		ldr	r2, [r5]
 342 0042 1368     		ldr	r3, [r2]
 343 0044 43F00103 		orr	r3, r3, #1
 344 0048 1360     		str	r3, [r2]
 316:..//Source/stm/lib/STM32L1xx_HAL_Driver/Src/stm32l1xx_hal_dma.c **** 
 345              		.loc 1 316 0
 346 004a 2046     		mov	r0, r4
 347 004c 70BD     		pop	{r4, r5, r6, pc}
 348              	.LVL26:
 349              	.L27:
 322:..//Source/stm/lib/STM32L1xx_HAL_Driver/Src/stm32l1xx_hal_dma.c **** 
 350              		.loc 1 322 0
 351 004e 0220     		movs	r0, #2
 352              	.LVL27:
 346:..//Source/stm/lib/STM32L1xx_HAL_Driver/Src/stm32l1xx_hal_dma.c **** 
 353              		.loc 1 346 0
 354 0050 70BD     		pop	{r4, r5, r6, pc}
 355              		.cfi_endproc
 356              	.LFE74:
 358              		.section	.text.HAL_DMA_Start_IT,"ax",%progbits
 359              		.align	1
 360              		.global	HAL_DMA_Start_IT
 361              		.syntax unified
 362              		.thumb
 363              		.thumb_func
 364              		.fpu softvfp
 366              	HAL_DMA_Start_IT:
 367              	.LFB75:
 358:..//Source/stm/lib/STM32L1xx_HAL_Driver/Src/stm32l1xx_hal_dma.c ****   HAL_StatusTypeDef status = HAL_OK;
 368              		.loc 1 358 0
 369              		.cfi_startproc
 370              		@ args = 0, pretend = 0, frame = 0
 371              		@ frame_needed = 0, uses_anonymous_args = 0
 372              	.LVL28:
ARM GAS  /tmp/cctrNPm4.s 			page 24


 373 0000 38B5     		push	{r3, r4, r5, lr}
 374              	.LCFI8:
 375              		.cfi_def_cfa_offset 16
 376              		.cfi_offset 3, -16
 377              		.cfi_offset 4, -12
 378              		.cfi_offset 5, -8
 379              		.cfi_offset 14, -4
 380              	.LVL29:
 365:..//Source/stm/lib/STM32L1xx_HAL_Driver/Src/stm32l1xx_hal_dma.c **** 
 381              		.loc 1 365 0
 382 0002 90F82040 		ldrb	r4, [r0, #32]	@ zero_extendqisi2
 383 0006 012C     		cmp	r4, #1
 384 0008 33D0     		beq	.L35
 365:..//Source/stm/lib/STM32L1xx_HAL_Driver/Src/stm32l1xx_hal_dma.c **** 
 385              		.loc 1 365 0 is_stmt 0 discriminator 2
 386 000a 0124     		movs	r4, #1
 387 000c 80F82040 		strb	r4, [r0, #32]
 367:..//Source/stm/lib/STM32L1xx_HAL_Driver/Src/stm32l1xx_hal_dma.c ****   {
 388              		.loc 1 367 0 is_stmt 1 discriminator 2
 389 0010 90F82140 		ldrb	r4, [r0, #33]	@ zero_extendqisi2
 390 0014 E4B2     		uxtb	r4, r4
 391 0016 012C     		cmp	r4, #1
 392 0018 04D0     		beq	.L37
 398:..//Source/stm/lib/STM32L1xx_HAL_Driver/Src/stm32l1xx_hal_dma.c **** 
 393              		.loc 1 398 0
 394 001a 0023     		movs	r3, #0
 395              	.LVL30:
 396 001c 80F82030 		strb	r3, [r0, #32]
 397              	.LVL31:
 401:..//Source/stm/lib/STM32L1xx_HAL_Driver/Src/stm32l1xx_hal_dma.c ****   }
 398              		.loc 1 401 0
 399 0020 0220     		movs	r0, #2
 400              	.LVL32:
 401 0022 38BD     		pop	{r3, r4, r5, pc}
 402              	.LVL33:
 403              	.L37:
 404 0024 0446     		mov	r4, r0
 370:..//Source/stm/lib/STM32L1xx_HAL_Driver/Src/stm32l1xx_hal_dma.c ****     hdma->ErrorCode = HAL_DMA_ERROR_NONE;
 405              		.loc 1 370 0
 406 0026 0220     		movs	r0, #2
 407              	.LVL34:
 408 0028 84F82100 		strb	r0, [r4, #33]
 371:..//Source/stm/lib/STM32L1xx_HAL_Driver/Src/stm32l1xx_hal_dma.c **** 
 409              		.loc 1 371 0
 410 002c 0020     		movs	r0, #0
 411 002e A063     		str	r0, [r4, #56]
 374:..//Source/stm/lib/STM32L1xx_HAL_Driver/Src/stm32l1xx_hal_dma.c **** 
 412              		.loc 1 374 0
 413 0030 2568     		ldr	r5, [r4]
 414 0032 2868     		ldr	r0, [r5]
 415 0034 20F00100 		bic	r0, r0, #1
 416 0038 2860     		str	r0, [r5]
 377:..//Source/stm/lib/STM32L1xx_HAL_Driver/Src/stm32l1xx_hal_dma.c **** 
 417              		.loc 1 377 0
 418 003a 2046     		mov	r0, r4
 419 003c FFF7FEFF 		bl	DMA_SetConfig
 420              	.LVL35:
ARM GAS  /tmp/cctrNPm4.s 			page 25


 381:..//Source/stm/lib/STM32L1xx_HAL_Driver/Src/stm32l1xx_hal_dma.c ****     {
 421              		.loc 1 381 0
 422 0040 E36A     		ldr	r3, [r4, #44]
 423 0042 5BB1     		cbz	r3, .L33
 384:..//Source/stm/lib/STM32L1xx_HAL_Driver/Src/stm32l1xx_hal_dma.c ****     }
 424              		.loc 1 384 0
 425 0044 2268     		ldr	r2, [r4]
 426 0046 1368     		ldr	r3, [r2]
 427 0048 43F00E03 		orr	r3, r3, #14
 428 004c 1360     		str	r3, [r2]
 429              	.L34:
 393:..//Source/stm/lib/STM32L1xx_HAL_Driver/Src/stm32l1xx_hal_dma.c ****   }
 430              		.loc 1 393 0
 431 004e 2268     		ldr	r2, [r4]
 432 0050 1368     		ldr	r3, [r2]
 433 0052 43F00103 		orr	r3, r3, #1
 434 0056 1360     		str	r3, [r2]
 359:..//Source/stm/lib/STM32L1xx_HAL_Driver/Src/stm32l1xx_hal_dma.c **** 
 435              		.loc 1 359 0
 436 0058 0020     		movs	r0, #0
 437 005a 38BD     		pop	{r3, r4, r5, pc}
 438              	.LVL36:
 439              	.L33:
 388:..//Source/stm/lib/STM32L1xx_HAL_Driver/Src/stm32l1xx_hal_dma.c ****       __HAL_DMA_ENABLE_IT(hdma, (DMA_IT_TC | DMA_IT_TE));
 440              		.loc 1 388 0
 441 005c 2268     		ldr	r2, [r4]
 442 005e 1368     		ldr	r3, [r2]
 443 0060 23F00403 		bic	r3, r3, #4
 444 0064 1360     		str	r3, [r2]
 389:..//Source/stm/lib/STM32L1xx_HAL_Driver/Src/stm32l1xx_hal_dma.c ****     }
 445              		.loc 1 389 0
 446 0066 2268     		ldr	r2, [r4]
 447 0068 1368     		ldr	r3, [r2]
 448 006a 43F00A03 		orr	r3, r3, #10
 449 006e 1360     		str	r3, [r2]
 450 0070 EDE7     		b	.L34
 451              	.LVL37:
 452              	.L35:
 365:..//Source/stm/lib/STM32L1xx_HAL_Driver/Src/stm32l1xx_hal_dma.c **** 
 453              		.loc 1 365 0
 454 0072 0220     		movs	r0, #2
 455              	.LVL38:
 404:..//Source/stm/lib/STM32L1xx_HAL_Driver/Src/stm32l1xx_hal_dma.c **** 
 456              		.loc 1 404 0
 457 0074 38BD     		pop	{r3, r4, r5, pc}
 458              		.cfi_endproc
 459              	.LFE75:
 461              		.section	.text.HAL_DMA_Abort,"ax",%progbits
 462              		.align	1
 463              		.global	HAL_DMA_Abort
 464              		.syntax unified
 465              		.thumb
 466              		.thumb_func
 467              		.fpu softvfp
 469              	HAL_DMA_Abort:
 470              	.LFB76:
 413:..//Source/stm/lib/STM32L1xx_HAL_Driver/Src/stm32l1xx_hal_dma.c ****   HAL_StatusTypeDef status = HAL_OK;
ARM GAS  /tmp/cctrNPm4.s 			page 26


 471              		.loc 1 413 0
 472              		.cfi_startproc
 473              		@ args = 0, pretend = 0, frame = 0
 474              		@ frame_needed = 0, uses_anonymous_args = 0
 475              		@ link register save eliminated.
 476              	.LVL39:
 417:..//Source/stm/lib/STM32L1xx_HAL_Driver/Src/stm32l1xx_hal_dma.c ****   {
 477              		.loc 1 417 0
 478 0000 90F82130 		ldrb	r3, [r0, #33]	@ zero_extendqisi2
 479 0004 DBB2     		uxtb	r3, r3
 480 0006 022B     		cmp	r3, #2
 481 0008 06D0     		beq	.L39
 419:..//Source/stm/lib/STM32L1xx_HAL_Driver/Src/stm32l1xx_hal_dma.c **** 
 482              		.loc 1 419 0
 483 000a 0423     		movs	r3, #4
 484 000c 8363     		str	r3, [r0, #56]
 422:..//Source/stm/lib/STM32L1xx_HAL_Driver/Src/stm32l1xx_hal_dma.c **** 
 485              		.loc 1 422 0
 486 000e 0023     		movs	r3, #0
 487 0010 80F82030 		strb	r3, [r0, #32]
 424:..//Source/stm/lib/STM32L1xx_HAL_Driver/Src/stm32l1xx_hal_dma.c ****   }
 488              		.loc 1 424 0
 489 0014 0120     		movs	r0, #1
 490              	.LVL40:
 491 0016 7047     		bx	lr
 492              	.LVL41:
 493              	.L39:
 429:..//Source/stm/lib/STM32L1xx_HAL_Driver/Src/stm32l1xx_hal_dma.c **** 
 494              		.loc 1 429 0
 495 0018 0268     		ldr	r2, [r0]
 496 001a 1368     		ldr	r3, [r2]
 497 001c 23F00E03 		bic	r3, r3, #14
 498 0020 1360     		str	r3, [r2]
 432:..//Source/stm/lib/STM32L1xx_HAL_Driver/Src/stm32l1xx_hal_dma.c **** 
 499              		.loc 1 432 0
 500 0022 0268     		ldr	r2, [r0]
 501 0024 1368     		ldr	r3, [r2]
 502 0026 23F00103 		bic	r3, r3, #1
 503 002a 1360     		str	r3, [r2]
 435:..//Source/stm/lib/STM32L1xx_HAL_Driver/Src/stm32l1xx_hal_dma.c **** 
 504              		.loc 1 435 0
 505 002c C16B     		ldr	r1, [r0, #60]
 506 002e 036C     		ldr	r3, [r0, #64]
 507 0030 03F01C03 		and	r3, r3, #28
 508 0034 0122     		movs	r2, #1
 509 0036 02FA03F3 		lsl	r3, r2, r3
 510 003a 4B60     		str	r3, [r1, #4]
 438:..//Source/stm/lib/STM32L1xx_HAL_Driver/Src/stm32l1xx_hal_dma.c **** 
 511              		.loc 1 438 0
 512 003c 80F82120 		strb	r2, [r0, #33]
 441:..//Source/stm/lib/STM32L1xx_HAL_Driver/Src/stm32l1xx_hal_dma.c **** 
 513              		.loc 1 441 0
 514 0040 0023     		movs	r3, #0
 515 0042 80F82030 		strb	r3, [r0, #32]
 443:..//Source/stm/lib/STM32L1xx_HAL_Driver/Src/stm32l1xx_hal_dma.c ****   }
 516              		.loc 1 443 0
 517 0046 1846     		mov	r0, r3
ARM GAS  /tmp/cctrNPm4.s 			page 27


 518              	.LVL42:
 445:..//Source/stm/lib/STM32L1xx_HAL_Driver/Src/stm32l1xx_hal_dma.c **** 
 519              		.loc 1 445 0
 520 0048 7047     		bx	lr
 521              		.cfi_endproc
 522              	.LFE76:
 524              		.section	.text.HAL_DMA_Abort_IT,"ax",%progbits
 525              		.align	1
 526              		.global	HAL_DMA_Abort_IT
 527              		.syntax unified
 528              		.thumb
 529              		.thumb_func
 530              		.fpu softvfp
 532              	HAL_DMA_Abort_IT:
 533              	.LFB77:
 454:..//Source/stm/lib/STM32L1xx_HAL_Driver/Src/stm32l1xx_hal_dma.c ****   HAL_StatusTypeDef status = HAL_OK;
 534              		.loc 1 454 0
 535              		.cfi_startproc
 536              		@ args = 0, pretend = 0, frame = 0
 537              		@ frame_needed = 0, uses_anonymous_args = 0
 538              	.LVL43:
 539 0000 08B5     		push	{r3, lr}
 540              	.LCFI9:
 541              		.cfi_def_cfa_offset 8
 542              		.cfi_offset 3, -8
 543              		.cfi_offset 14, -4
 544              	.LVL44:
 457:..//Source/stm/lib/STM32L1xx_HAL_Driver/Src/stm32l1xx_hal_dma.c ****   {
 545              		.loc 1 457 0
 546 0002 90F82130 		ldrb	r3, [r0, #33]	@ zero_extendqisi2
 547 0006 DBB2     		uxtb	r3, r3
 548 0008 022B     		cmp	r3, #2
 549 000a 03D0     		beq	.L42
 460:..//Source/stm/lib/STM32L1xx_HAL_Driver/Src/stm32l1xx_hal_dma.c **** 
 550              		.loc 1 460 0
 551 000c 0423     		movs	r3, #4
 552 000e 8363     		str	r3, [r0, #56]
 553              	.LVL45:
 462:..//Source/stm/lib/STM32L1xx_HAL_Driver/Src/stm32l1xx_hal_dma.c ****   }
 554              		.loc 1 462 0
 555 0010 0120     		movs	r0, #1
 556              	.LVL46:
 557 0012 08BD     		pop	{r3, pc}
 558              	.LVL47:
 559              	.L42:
 467:..//Source/stm/lib/STM32L1xx_HAL_Driver/Src/stm32l1xx_hal_dma.c **** 
 560              		.loc 1 467 0
 561 0014 0268     		ldr	r2, [r0]
 562 0016 1368     		ldr	r3, [r2]
 563 0018 23F00E03 		bic	r3, r3, #14
 564 001c 1360     		str	r3, [r2]
 470:..//Source/stm/lib/STM32L1xx_HAL_Driver/Src/stm32l1xx_hal_dma.c **** 
 565              		.loc 1 470 0
 566 001e 0268     		ldr	r2, [r0]
 567 0020 1368     		ldr	r3, [r2]
 568 0022 23F00103 		bic	r3, r3, #1
 569 0026 1360     		str	r3, [r2]
ARM GAS  /tmp/cctrNPm4.s 			page 28


 473:..//Source/stm/lib/STM32L1xx_HAL_Driver/Src/stm32l1xx_hal_dma.c **** 
 570              		.loc 1 473 0
 571 0028 C16B     		ldr	r1, [r0, #60]
 572 002a 036C     		ldr	r3, [r0, #64]
 573 002c 03F01C03 		and	r3, r3, #28
 574 0030 0122     		movs	r2, #1
 575 0032 02FA03F3 		lsl	r3, r2, r3
 576 0036 4B60     		str	r3, [r1, #4]
 476:..//Source/stm/lib/STM32L1xx_HAL_Driver/Src/stm32l1xx_hal_dma.c **** 
 577              		.loc 1 476 0
 578 0038 80F82120 		strb	r2, [r0, #33]
 479:..//Source/stm/lib/STM32L1xx_HAL_Driver/Src/stm32l1xx_hal_dma.c **** 
 579              		.loc 1 479 0
 580 003c 0023     		movs	r3, #0
 581 003e 80F82030 		strb	r3, [r0, #32]
 482:..//Source/stm/lib/STM32L1xx_HAL_Driver/Src/stm32l1xx_hal_dma.c ****     {
 582              		.loc 1 482 0
 583 0042 436B     		ldr	r3, [r0, #52]
 584 0044 13B1     		cbz	r3, .L44
 484:..//Source/stm/lib/STM32L1xx_HAL_Driver/Src/stm32l1xx_hal_dma.c ****     }
 585              		.loc 1 484 0
 586 0046 9847     		blx	r3
 587              	.LVL48:
 455:..//Source/stm/lib/STM32L1xx_HAL_Driver/Src/stm32l1xx_hal_dma.c **** 
 588              		.loc 1 455 0
 589 0048 0020     		movs	r0, #0
 590 004a 08BD     		pop	{r3, pc}
 591              	.LVL49:
 592              	.L44:
 593 004c 0020     		movs	r0, #0
 594              	.LVL50:
 488:..//Source/stm/lib/STM32L1xx_HAL_Driver/Src/stm32l1xx_hal_dma.c **** 
 595              		.loc 1 488 0
 596 004e 08BD     		pop	{r3, pc}
 597              		.cfi_endproc
 598              	.LFE77:
 600              		.section	.text.HAL_DMA_PollForTransfer,"ax",%progbits
 601              		.align	1
 602              		.global	HAL_DMA_PollForTransfer
 603              		.syntax unified
 604              		.thumb
 605              		.thumb_func
 606              		.fpu softvfp
 608              	HAL_DMA_PollForTransfer:
 609              	.LFB78:
 499:..//Source/stm/lib/STM32L1xx_HAL_Driver/Src/stm32l1xx_hal_dma.c ****   uint32_t temp;
 610              		.loc 1 499 0
 611              		.cfi_startproc
 612              		@ args = 0, pretend = 0, frame = 0
 613              		@ frame_needed = 0, uses_anonymous_args = 0
 614              	.LVL51:
 615 0000 2DE9F843 		push	{r3, r4, r5, r6, r7, r8, r9, lr}
 616              	.LCFI10:
 617              		.cfi_def_cfa_offset 32
 618              		.cfi_offset 3, -32
 619              		.cfi_offset 4, -28
 620              		.cfi_offset 5, -24
ARM GAS  /tmp/cctrNPm4.s 			page 29


 621              		.cfi_offset 6, -20
 622              		.cfi_offset 7, -16
 623              		.cfi_offset 8, -12
 624              		.cfi_offset 9, -8
 625              		.cfi_offset 14, -4
 503:..//Source/stm/lib/STM32L1xx_HAL_Driver/Src/stm32l1xx_hal_dma.c ****   {
 626              		.loc 1 503 0
 627 0004 90F82130 		ldrb	r3, [r0, #33]	@ zero_extendqisi2
 628 0008 DBB2     		uxtb	r3, r3
 629 000a 022B     		cmp	r3, #2
 630 000c 07D0     		beq	.L47
 506:..//Source/stm/lib/STM32L1xx_HAL_Driver/Src/stm32l1xx_hal_dma.c ****     __HAL_UNLOCK(hdma);
 631              		.loc 1 506 0
 632 000e 0423     		movs	r3, #4
 633 0010 8363     		str	r3, [r0, #56]
 507:..//Source/stm/lib/STM32L1xx_HAL_Driver/Src/stm32l1xx_hal_dma.c ****     return HAL_ERROR;
 634              		.loc 1 507 0
 635 0012 0023     		movs	r3, #0
 636 0014 80F82030 		strb	r3, [r0, #32]
 508:..//Source/stm/lib/STM32L1xx_HAL_Driver/Src/stm32l1xx_hal_dma.c ****   }
 637              		.loc 1 508 0
 638 0018 0120     		movs	r0, #1
 639              	.LVL52:
 640 001a BDE8F883 		pop	{r3, r4, r5, r6, r7, r8, r9, pc}
 641              	.LVL53:
 642              	.L47:
 512:..//Source/stm/lib/STM32L1xx_HAL_Driver/Src/stm32l1xx_hal_dma.c ****   {
 643              		.loc 1 512 0
 644 001e 0368     		ldr	r3, [r0]
 645 0020 1B68     		ldr	r3, [r3]
 646 0022 13F0200F 		tst	r3, #32
 647 0026 2DD1     		bne	.L60
 519:..//Source/stm/lib/STM32L1xx_HAL_Driver/Src/stm32l1xx_hal_dma.c ****   {
 648              		.loc 1 519 0
 649 0028 91BB     		cbnz	r1, .L50
 522:..//Source/stm/lib/STM32L1xx_HAL_Driver/Src/stm32l1xx_hal_dma.c ****   }
 650              		.loc 1 522 0
 651 002a 076C     		ldr	r7, [r0, #64]
 652 002c 07F01C07 		and	r7, r7, #28
 653 0030 0223     		movs	r3, #2
 654 0032 03FA07F7 		lsl	r7, r3, r7
 655              	.LVL54:
 656              	.L51:
 657 0036 1646     		mov	r6, r2
 658 0038 8846     		mov	r8, r1
 659 003a 0546     		mov	r5, r0
 531:..//Source/stm/lib/STM32L1xx_HAL_Driver/Src/stm32l1xx_hal_dma.c **** 
 660              		.loc 1 531 0
 661 003c FFF7FEFF 		bl	HAL_GetTick
 662              	.LVL55:
 663 0040 8146     		mov	r9, r0
 664              	.LVL56:
 665              	.L54:
 533:..//Source/stm/lib/STM32L1xx_HAL_Driver/Src/stm32l1xx_hal_dma.c ****   {
 666              		.loc 1 533 0
 667 0042 EA6B     		ldr	r2, [r5, #60]
 668 0044 1368     		ldr	r3, [r2]
ARM GAS  /tmp/cctrNPm4.s 			page 30


 669 0046 1F42     		tst	r7, r3
 670 0048 35D1     		bne	.L61
 535:..//Source/stm/lib/STM32L1xx_HAL_Driver/Src/stm32l1xx_hal_dma.c ****     {
 671              		.loc 1 535 0
 672 004a 1168     		ldr	r1, [r2]
 673 004c 2B6C     		ldr	r3, [r5, #64]
 674 004e 03F01C03 		and	r3, r3, #28
 675 0052 0824     		movs	r4, #8
 676 0054 9C40     		lsls	r4, r4, r3
 677 0056 2142     		tst	r1, r4
 678 0058 21D1     		bne	.L62
 554:..//Source/stm/lib/STM32L1xx_HAL_Driver/Src/stm32l1xx_hal_dma.c ****     {
 679              		.loc 1 554 0
 680 005a B6F1FF3F 		cmp	r6, #-1
 681 005e F0D0     		beq	.L54
 556:..//Source/stm/lib/STM32L1xx_HAL_Driver/Src/stm32l1xx_hal_dma.c ****       {
 682              		.loc 1 556 0
 683 0060 FFF7FEFF 		bl	HAL_GetTick
 684              	.LVL57:
 685 0064 A0EB0900 		sub	r0, r0, r9
 686 0068 8642     		cmp	r6, r0
 687 006a 01D3     		bcc	.L55
 556:..//Source/stm/lib/STM32L1xx_HAL_Driver/Src/stm32l1xx_hal_dma.c ****       {
 688              		.loc 1 556 0 is_stmt 0 discriminator 1
 689 006c 002E     		cmp	r6, #0
 690 006e E8D1     		bne	.L54
 691              	.L55:
 559:..//Source/stm/lib/STM32L1xx_HAL_Driver/Src/stm32l1xx_hal_dma.c **** 
 692              		.loc 1 559 0 is_stmt 1
 693 0070 2023     		movs	r3, #32
 694 0072 AB63     		str	r3, [r5, #56]
 562:..//Source/stm/lib/STM32L1xx_HAL_Driver/Src/stm32l1xx_hal_dma.c **** 
 695              		.loc 1 562 0
 696 0074 0120     		movs	r0, #1
 697 0076 85F82100 		strb	r0, [r5, #33]
 565:..//Source/stm/lib/STM32L1xx_HAL_Driver/Src/stm32l1xx_hal_dma.c **** 
 698              		.loc 1 565 0
 699 007a 0023     		movs	r3, #0
 700 007c 85F82030 		strb	r3, [r5, #32]
 567:..//Source/stm/lib/STM32L1xx_HAL_Driver/Src/stm32l1xx_hal_dma.c ****       }
 701              		.loc 1 567 0
 702 0080 BDE8F883 		pop	{r3, r4, r5, r6, r7, r8, r9, pc}
 703              	.LVL58:
 704              	.L60:
 514:..//Source/stm/lib/STM32L1xx_HAL_Driver/Src/stm32l1xx_hal_dma.c ****     return HAL_ERROR;
 705              		.loc 1 514 0
 706 0084 4FF48073 		mov	r3, #256
 707 0088 8363     		str	r3, [r0, #56]
 515:..//Source/stm/lib/STM32L1xx_HAL_Driver/Src/stm32l1xx_hal_dma.c ****   }
 708              		.loc 1 515 0
 709 008a 0120     		movs	r0, #1
 710              	.LVL59:
 711 008c BDE8F883 		pop	{r3, r4, r5, r6, r7, r8, r9, pc}
 712              	.LVL60:
 713              	.L50:
 527:..//Source/stm/lib/STM32L1xx_HAL_Driver/Src/stm32l1xx_hal_dma.c ****   }
 714              		.loc 1 527 0
ARM GAS  /tmp/cctrNPm4.s 			page 31


 715 0090 076C     		ldr	r7, [r0, #64]
 716 0092 07F01C07 		and	r7, r7, #28
 717 0096 0423     		movs	r3, #4
 718 0098 03FA07F7 		lsl	r7, r3, r7
 719              	.LVL61:
 720 009c CBE7     		b	.L51
 721              	.LVL62:
 722              	.L62:
 540:..//Source/stm/lib/STM32L1xx_HAL_Driver/Src/stm32l1xx_hal_dma.c **** 
 723              		.loc 1 540 0
 724 009e 0120     		movs	r0, #1
 725 00a0 00FA03F3 		lsl	r3, r0, r3
 726 00a4 5360     		str	r3, [r2, #4]
 543:..//Source/stm/lib/STM32L1xx_HAL_Driver/Src/stm32l1xx_hal_dma.c **** 
 727              		.loc 1 543 0
 728 00a6 A863     		str	r0, [r5, #56]
 546:..//Source/stm/lib/STM32L1xx_HAL_Driver/Src/stm32l1xx_hal_dma.c **** 
 729              		.loc 1 546 0
 730 00a8 85F82100 		strb	r0, [r5, #33]
 549:..//Source/stm/lib/STM32L1xx_HAL_Driver/Src/stm32l1xx_hal_dma.c **** 
 731              		.loc 1 549 0
 732 00ac 0023     		movs	r3, #0
 733 00ae 85F82030 		strb	r3, [r5, #32]
 551:..//Source/stm/lib/STM32L1xx_HAL_Driver/Src/stm32l1xx_hal_dma.c ****     }
 734              		.loc 1 551 0
 735 00b2 BDE8F883 		pop	{r3, r4, r5, r6, r7, r8, r9, pc}
 736              	.LVL63:
 737              	.L61:
 572:..//Source/stm/lib/STM32L1xx_HAL_Driver/Src/stm32l1xx_hal_dma.c ****   {
 738              		.loc 1 572 0
 739 00b6 B8F1000F 		cmp	r8, #0
 740 00ba 0DD1     		bne	.L57
 575:..//Source/stm/lib/STM32L1xx_HAL_Driver/Src/stm32l1xx_hal_dma.c **** 
 741              		.loc 1 575 0
 742 00bc 2B6C     		ldr	r3, [r5, #64]
 743 00be 03F01C01 		and	r1, r3, #28
 744 00c2 0223     		movs	r3, #2
 745 00c4 8B40     		lsls	r3, r3, r1
 746 00c6 5360     		str	r3, [r2, #4]
 579:..//Source/stm/lib/STM32L1xx_HAL_Driver/Src/stm32l1xx_hal_dma.c ****   }
 747              		.loc 1 579 0
 748 00c8 0123     		movs	r3, #1
 749 00ca 85F82130 		strb	r3, [r5, #33]
 750              	.L58:
 588:..//Source/stm/lib/STM32L1xx_HAL_Driver/Src/stm32l1xx_hal_dma.c **** 
 751              		.loc 1 588 0
 752 00ce 0020     		movs	r0, #0
 753 00d0 85F82000 		strb	r0, [r5, #32]
 591:..//Source/stm/lib/STM32L1xx_HAL_Driver/Src/stm32l1xx_hal_dma.c **** 
 754              		.loc 1 591 0
 755 00d4 BDE8F883 		pop	{r3, r4, r5, r6, r7, r8, r9, pc}
 756              	.LVL64:
 757              	.L57:
 584:..//Source/stm/lib/STM32L1xx_HAL_Driver/Src/stm32l1xx_hal_dma.c ****   }
 758              		.loc 1 584 0
 759 00d8 2B6C     		ldr	r3, [r5, #64]
 760 00da 03F01C01 		and	r1, r3, #28
ARM GAS  /tmp/cctrNPm4.s 			page 32


 761 00de 0423     		movs	r3, #4
 762 00e0 8B40     		lsls	r3, r3, r1
 763 00e2 5360     		str	r3, [r2, #4]
 764 00e4 F3E7     		b	.L58
 765              		.cfi_endproc
 766              	.LFE78:
 768              		.section	.text.HAL_DMA_IRQHandler,"ax",%progbits
 769              		.align	1
 770              		.global	HAL_DMA_IRQHandler
 771              		.syntax unified
 772              		.thumb
 773              		.thumb_func
 774              		.fpu softvfp
 776              	HAL_DMA_IRQHandler:
 777              	.LFB79:
 600:..//Source/stm/lib/STM32L1xx_HAL_Driver/Src/stm32l1xx_hal_dma.c ****   uint32_t flag_it = hdma->DmaBaseAddress->ISR;
 778              		.loc 1 600 0
 779              		.cfi_startproc
 780              		@ args = 0, pretend = 0, frame = 0
 781              		@ frame_needed = 0, uses_anonymous_args = 0
 782              	.LVL65:
 783 0000 38B5     		push	{r3, r4, r5, lr}
 784              	.LCFI11:
 785              		.cfi_def_cfa_offset 16
 786              		.cfi_offset 3, -16
 787              		.cfi_offset 4, -12
 788              		.cfi_offset 5, -8
 789              		.cfi_offset 14, -4
 601:..//Source/stm/lib/STM32L1xx_HAL_Driver/Src/stm32l1xx_hal_dma.c ****   uint32_t source_it = hdma->Instance->CCR;
 790              		.loc 1 601 0
 791 0002 C36B     		ldr	r3, [r0, #60]
 792 0004 1968     		ldr	r1, [r3]
 793              	.LVL66:
 602:..//Source/stm/lib/STM32L1xx_HAL_Driver/Src/stm32l1xx_hal_dma.c **** 
 794              		.loc 1 602 0
 795 0006 0468     		ldr	r4, [r0]
 796 0008 2568     		ldr	r5, [r4]
 797              	.LVL67:
 605:..//Source/stm/lib/STM32L1xx_HAL_Driver/Src/stm32l1xx_hal_dma.c ****   {
 798              		.loc 1 605 0
 799 000a 036C     		ldr	r3, [r0, #64]
 800 000c 03F01C03 		and	r3, r3, #28
 801 0010 0422     		movs	r2, #4
 802 0012 9A40     		lsls	r2, r2, r3
 803 0014 1142     		tst	r1, r2
 804 0016 16D0     		beq	.L64
 605:..//Source/stm/lib/STM32L1xx_HAL_Driver/Src/stm32l1xx_hal_dma.c ****   {
 805              		.loc 1 605 0 is_stmt 0 discriminator 1
 806 0018 15F0040F 		tst	r5, #4
 807 001c 13D0     		beq	.L64
 608:..//Source/stm/lib/STM32L1xx_HAL_Driver/Src/stm32l1xx_hal_dma.c ****     {
 808              		.loc 1 608 0 is_stmt 1
 809 001e 2368     		ldr	r3, [r4]
 810 0020 13F0200F 		tst	r3, #32
 811 0024 03D1     		bne	.L65
 611:..//Source/stm/lib/STM32L1xx_HAL_Driver/Src/stm32l1xx_hal_dma.c ****     }
 812              		.loc 1 611 0
ARM GAS  /tmp/cctrNPm4.s 			page 33


 813 0026 2368     		ldr	r3, [r4]
 814 0028 23F00403 		bic	r3, r3, #4
 815 002c 2360     		str	r3, [r4]
 816              	.L65:
 614:..//Source/stm/lib/STM32L1xx_HAL_Driver/Src/stm32l1xx_hal_dma.c **** 
 817              		.loc 1 614 0
 818 002e C16B     		ldr	r1, [r0, #60]
 819              	.LVL68:
 820 0030 036C     		ldr	r3, [r0, #64]
 821 0032 03F01C02 		and	r2, r3, #28
 822 0036 0423     		movs	r3, #4
 823 0038 9340     		lsls	r3, r3, r2
 824 003a 4B60     		str	r3, [r1, #4]
 619:..//Source/stm/lib/STM32L1xx_HAL_Driver/Src/stm32l1xx_hal_dma.c ****     {
 825              		.loc 1 619 0
 826 003c C36A     		ldr	r3, [r0, #44]
 827 003e 002B     		cmp	r3, #0
 828 0040 3ED0     		beq	.L63
 622:..//Source/stm/lib/STM32L1xx_HAL_Driver/Src/stm32l1xx_hal_dma.c ****     }
 829              		.loc 1 622 0
 830 0042 9847     		blx	r3
 831              	.LVL69:
 832 0044 38BD     		pop	{r3, r4, r5, pc}
 833              	.LVL70:
 834              	.L64:
 627:..//Source/stm/lib/STM32L1xx_HAL_Driver/Src/stm32l1xx_hal_dma.c ****   {
 835              		.loc 1 627 0
 836 0046 0222     		movs	r2, #2
 837 0048 9A40     		lsls	r2, r2, r3
 838 004a 1142     		tst	r1, r2
 839 004c 1BD0     		beq	.L67
 627:..//Source/stm/lib/STM32L1xx_HAL_Driver/Src/stm32l1xx_hal_dma.c ****   {
 840              		.loc 1 627 0 is_stmt 0 discriminator 1
 841 004e 15F0020F 		tst	r5, #2
 842 0052 18D0     		beq	.L67
 630:..//Source/stm/lib/STM32L1xx_HAL_Driver/Src/stm32l1xx_hal_dma.c ****     {
 843              		.loc 1 630 0 is_stmt 1
 844 0054 2368     		ldr	r3, [r4]
 845 0056 13F0200F 		tst	r3, #32
 846 005a 06D1     		bne	.L68
 635:..//Source/stm/lib/STM32L1xx_HAL_Driver/Src/stm32l1xx_hal_dma.c **** 
 847              		.loc 1 635 0
 848 005c 2368     		ldr	r3, [r4]
 849 005e 23F00A03 		bic	r3, r3, #10
 850 0062 2360     		str	r3, [r4]
 638:..//Source/stm/lib/STM32L1xx_HAL_Driver/Src/stm32l1xx_hal_dma.c ****     }
 851              		.loc 1 638 0
 852 0064 0123     		movs	r3, #1
 853 0066 80F82130 		strb	r3, [r0, #33]
 854              	.L68:
 641:..//Source/stm/lib/STM32L1xx_HAL_Driver/Src/stm32l1xx_hal_dma.c **** 
 855              		.loc 1 641 0
 856 006a C16B     		ldr	r1, [r0, #60]
 857              	.LVL71:
 858 006c 036C     		ldr	r3, [r0, #64]
 859 006e 03F01C02 		and	r2, r3, #28
 860 0072 0223     		movs	r3, #2
ARM GAS  /tmp/cctrNPm4.s 			page 34


 861 0074 9340     		lsls	r3, r3, r2
 862 0076 4B60     		str	r3, [r1, #4]
 644:..//Source/stm/lib/STM32L1xx_HAL_Driver/Src/stm32l1xx_hal_dma.c **** 
 863              		.loc 1 644 0
 864 0078 0023     		movs	r3, #0
 865 007a 80F82030 		strb	r3, [r0, #32]
 646:..//Source/stm/lib/STM32L1xx_HAL_Driver/Src/stm32l1xx_hal_dma.c ****     {
 866              		.loc 1 646 0
 867 007e 836A     		ldr	r3, [r0, #40]
 868 0080 F3B1     		cbz	r3, .L63
 649:..//Source/stm/lib/STM32L1xx_HAL_Driver/Src/stm32l1xx_hal_dma.c ****     }
 869              		.loc 1 649 0
 870 0082 9847     		blx	r3
 871              	.LVL72:
 872 0084 38BD     		pop	{r3, r4, r5, pc}
 873              	.LVL73:
 874              	.L67:
 654:..//Source/stm/lib/STM32L1xx_HAL_Driver/Src/stm32l1xx_hal_dma.c ****   {
 875              		.loc 1 654 0
 876 0086 0822     		movs	r2, #8
 877 0088 02FA03F3 		lsl	r3, r2, r3
 878 008c 1942     		tst	r1, r3
 879 008e 17D0     		beq	.L63
 654:..//Source/stm/lib/STM32L1xx_HAL_Driver/Src/stm32l1xx_hal_dma.c ****   {
 880              		.loc 1 654 0 is_stmt 0 discriminator 1
 881 0090 15F0080F 		tst	r5, #8
 882 0094 14D0     		beq	.L63
 659:..//Source/stm/lib/STM32L1xx_HAL_Driver/Src/stm32l1xx_hal_dma.c **** 
 883              		.loc 1 659 0 is_stmt 1
 884 0096 2368     		ldr	r3, [r4]
 885 0098 23F00E03 		bic	r3, r3, #14
 886 009c 2360     		str	r3, [r4]
 662:..//Source/stm/lib/STM32L1xx_HAL_Driver/Src/stm32l1xx_hal_dma.c **** 
 887              		.loc 1 662 0
 888 009e C16B     		ldr	r1, [r0, #60]
 889              	.LVL74:
 890 00a0 036C     		ldr	r3, [r0, #64]
 891 00a2 03F01C03 		and	r3, r3, #28
 892 00a6 0122     		movs	r2, #1
 893 00a8 02FA03F3 		lsl	r3, r2, r3
 894 00ac 4B60     		str	r3, [r1, #4]
 665:..//Source/stm/lib/STM32L1xx_HAL_Driver/Src/stm32l1xx_hal_dma.c **** 
 895              		.loc 1 665 0
 896 00ae 8263     		str	r2, [r0, #56]
 668:..//Source/stm/lib/STM32L1xx_HAL_Driver/Src/stm32l1xx_hal_dma.c **** 
 897              		.loc 1 668 0
 898 00b0 80F82120 		strb	r2, [r0, #33]
 671:..//Source/stm/lib/STM32L1xx_HAL_Driver/Src/stm32l1xx_hal_dma.c **** 
 899              		.loc 1 671 0
 900 00b4 0023     		movs	r3, #0
 901 00b6 80F82030 		strb	r3, [r0, #32]
 673:..//Source/stm/lib/STM32L1xx_HAL_Driver/Src/stm32l1xx_hal_dma.c ****     {
 902              		.loc 1 673 0
 903 00ba 036B     		ldr	r3, [r0, #48]
 904 00bc 03B1     		cbz	r3, .L63
 676:..//Source/stm/lib/STM32L1xx_HAL_Driver/Src/stm32l1xx_hal_dma.c ****     }
 905              		.loc 1 676 0
ARM GAS  /tmp/cctrNPm4.s 			page 35


 906 00be 9847     		blx	r3
 907              	.LVL75:
 908              	.L63:
 909 00c0 38BD     		pop	{r3, r4, r5, pc}
 910              		.cfi_endproc
 911              	.LFE79:
 913              		.section	.text.HAL_DMA_RegisterCallback,"ax",%progbits
 914              		.align	1
 915              		.global	HAL_DMA_RegisterCallback
 916              		.syntax unified
 917              		.thumb
 918              		.thumb_func
 919              		.fpu softvfp
 921              	HAL_DMA_RegisterCallback:
 922              	.LFB80:
 697:..//Source/stm/lib/STM32L1xx_HAL_Driver/Src/stm32l1xx_hal_dma.c ****   HAL_StatusTypeDef status = HAL_OK;
 923              		.loc 1 697 0
 924              		.cfi_startproc
 925              		@ args = 0, pretend = 0, frame = 0
 926              		@ frame_needed = 0, uses_anonymous_args = 0
 927              		@ link register save eliminated.
 928              	.LVL76:
 929 0000 0346     		mov	r3, r0
 930              	.LVL77:
 701:..//Source/stm/lib/STM32L1xx_HAL_Driver/Src/stm32l1xx_hal_dma.c **** 
 931              		.loc 1 701 0
 932 0002 90F82000 		ldrb	r0, [r0, #32]	@ zero_extendqisi2
 933              	.LVL78:
 934 0006 0128     		cmp	r0, #1
 935 0008 20D0     		beq	.L78
 701:..//Source/stm/lib/STM32L1xx_HAL_Driver/Src/stm32l1xx_hal_dma.c **** 
 936              		.loc 1 701 0 is_stmt 0 discriminator 2
 937 000a 0120     		movs	r0, #1
 938 000c 83F82000 		strb	r0, [r3, #32]
 703:..//Source/stm/lib/STM32L1xx_HAL_Driver/Src/stm32l1xx_hal_dma.c ****   {
 939              		.loc 1 703 0 is_stmt 1 discriminator 2
 940 0010 93F82100 		ldrb	r0, [r3, #33]	@ zero_extendqisi2
 941 0014 C0B2     		uxtb	r0, r0
 942 0016 0128     		cmp	r0, #1
 943 0018 04D0     		beq	.L81
 730:..//Source/stm/lib/STM32L1xx_HAL_Driver/Src/stm32l1xx_hal_dma.c ****   }
 944              		.loc 1 730 0
 945 001a 0120     		movs	r0, #1
 946              	.L72:
 947              	.LVL79:
 734:..//Source/stm/lib/STM32L1xx_HAL_Driver/Src/stm32l1xx_hal_dma.c **** 
 948              		.loc 1 734 0
 949 001c 0022     		movs	r2, #0
 950              	.LVL80:
 951 001e 83F82020 		strb	r2, [r3, #32]
 736:..//Source/stm/lib/STM32L1xx_HAL_Driver/Src/stm32l1xx_hal_dma.c **** }
 952              		.loc 1 736 0
 953 0022 7047     		bx	lr
 954              	.LVL81:
 955              	.L81:
 705:..//Source/stm/lib/STM32L1xx_HAL_Driver/Src/stm32l1xx_hal_dma.c ****     {
 956              		.loc 1 705 0
ARM GAS  /tmp/cctrNPm4.s 			page 36


 957 0024 0329     		cmp	r1, #3
 958 0026 0FD8     		bhi	.L80
 959 0028 DFE801F0 		tbb	[pc, r1]
 960              	.L74:
 961 002c 02       		.byte	(.L73-.L74)/2
 962 002d 05       		.byte	(.L75-.L74)/2
 963 002e 08       		.byte	(.L76-.L74)/2
 964 002f 0B       		.byte	(.L77-.L74)/2
 965              		.p2align 1
 966              	.L73:
 708:..//Source/stm/lib/STM32L1xx_HAL_Driver/Src/stm32l1xx_hal_dma.c ****            break;
 967              		.loc 1 708 0
 968 0030 9A62     		str	r2, [r3, #40]
 698:..//Source/stm/lib/STM32L1xx_HAL_Driver/Src/stm32l1xx_hal_dma.c **** 
 969              		.loc 1 698 0
 970 0032 0020     		movs	r0, #0
 709:..//Source/stm/lib/STM32L1xx_HAL_Driver/Src/stm32l1xx_hal_dma.c **** 
 971              		.loc 1 709 0
 972 0034 F2E7     		b	.L72
 973              	.L75:
 712:..//Source/stm/lib/STM32L1xx_HAL_Driver/Src/stm32l1xx_hal_dma.c ****            break;
 974              		.loc 1 712 0
 975 0036 DA62     		str	r2, [r3, #44]
 698:..//Source/stm/lib/STM32L1xx_HAL_Driver/Src/stm32l1xx_hal_dma.c **** 
 976              		.loc 1 698 0
 977 0038 0020     		movs	r0, #0
 713:..//Source/stm/lib/STM32L1xx_HAL_Driver/Src/stm32l1xx_hal_dma.c **** 
 978              		.loc 1 713 0
 979 003a EFE7     		b	.L72
 980              	.L76:
 716:..//Source/stm/lib/STM32L1xx_HAL_Driver/Src/stm32l1xx_hal_dma.c ****            break;
 981              		.loc 1 716 0
 982 003c 1A63     		str	r2, [r3, #48]
 698:..//Source/stm/lib/STM32L1xx_HAL_Driver/Src/stm32l1xx_hal_dma.c **** 
 983              		.loc 1 698 0
 984 003e 0020     		movs	r0, #0
 717:..//Source/stm/lib/STM32L1xx_HAL_Driver/Src/stm32l1xx_hal_dma.c **** 
 985              		.loc 1 717 0
 986 0040 ECE7     		b	.L72
 987              	.L77:
 720:..//Source/stm/lib/STM32L1xx_HAL_Driver/Src/stm32l1xx_hal_dma.c ****            break;
 988              		.loc 1 720 0
 989 0042 5A63     		str	r2, [r3, #52]
 698:..//Source/stm/lib/STM32L1xx_HAL_Driver/Src/stm32l1xx_hal_dma.c **** 
 990              		.loc 1 698 0
 991 0044 0020     		movs	r0, #0
 721:..//Source/stm/lib/STM32L1xx_HAL_Driver/Src/stm32l1xx_hal_dma.c **** 
 992              		.loc 1 721 0
 993 0046 E9E7     		b	.L72
 994              	.L80:
 724:..//Source/stm/lib/STM32L1xx_HAL_Driver/Src/stm32l1xx_hal_dma.c ****            break;
 995              		.loc 1 724 0
 996 0048 0120     		movs	r0, #1
 997 004a E7E7     		b	.L72
 998              	.L78:
 701:..//Source/stm/lib/STM32L1xx_HAL_Driver/Src/stm32l1xx_hal_dma.c **** 
 999              		.loc 1 701 0
ARM GAS  /tmp/cctrNPm4.s 			page 37


 1000 004c 0220     		movs	r0, #2
 737:..//Source/stm/lib/STM32L1xx_HAL_Driver/Src/stm32l1xx_hal_dma.c **** 
 1001              		.loc 1 737 0
 1002 004e 7047     		bx	lr
 1003              		.cfi_endproc
 1004              	.LFE80:
 1006              		.section	.text.HAL_DMA_UnRegisterCallback,"ax",%progbits
 1007              		.align	1
 1008              		.global	HAL_DMA_UnRegisterCallback
 1009              		.syntax unified
 1010              		.thumb
 1011              		.thumb_func
 1012              		.fpu softvfp
 1014              	HAL_DMA_UnRegisterCallback:
 1015              	.LFB81:
 748:..//Source/stm/lib/STM32L1xx_HAL_Driver/Src/stm32l1xx_hal_dma.c ****   HAL_StatusTypeDef status = HAL_OK;
 1016              		.loc 1 748 0
 1017              		.cfi_startproc
 1018              		@ args = 0, pretend = 0, frame = 0
 1019              		@ frame_needed = 0, uses_anonymous_args = 0
 1020              		@ link register save eliminated.
 1021              	.LVL82:
 1022 0000 0346     		mov	r3, r0
 1023              	.LVL83:
 752:..//Source/stm/lib/STM32L1xx_HAL_Driver/Src/stm32l1xx_hal_dma.c **** 
 1024              		.loc 1 752 0
 1025 0002 90F82020 		ldrb	r2, [r0, #32]	@ zero_extendqisi2
 1026 0006 012A     		cmp	r2, #1
 1027 0008 27D0     		beq	.L91
 752:..//Source/stm/lib/STM32L1xx_HAL_Driver/Src/stm32l1xx_hal_dma.c **** 
 1028              		.loc 1 752 0 is_stmt 0 discriminator 2
 1029 000a 0122     		movs	r2, #1
 1030 000c 80F82020 		strb	r2, [r0, #32]
 754:..//Source/stm/lib/STM32L1xx_HAL_Driver/Src/stm32l1xx_hal_dma.c ****   {
 1031              		.loc 1 754 0 is_stmt 1 discriminator 2
 1032 0010 90F82120 		ldrb	r2, [r0, #33]	@ zero_extendqisi2
 1033 0014 D2B2     		uxtb	r2, r2
 1034 0016 012A     		cmp	r2, #1
 1035 0018 04D0     		beq	.L94
 788:..//Source/stm/lib/STM32L1xx_HAL_Driver/Src/stm32l1xx_hal_dma.c ****   }
 1036              		.loc 1 788 0
 1037 001a 0120     		movs	r0, #1
 1038              	.LVL84:
 1039              	.L84:
 792:..//Source/stm/lib/STM32L1xx_HAL_Driver/Src/stm32l1xx_hal_dma.c **** 
 1040              		.loc 1 792 0
 1041 001c 0022     		movs	r2, #0
 1042 001e 83F82020 		strb	r2, [r3, #32]
 794:..//Source/stm/lib/STM32L1xx_HAL_Driver/Src/stm32l1xx_hal_dma.c **** }
 1043              		.loc 1 794 0
 1044 0022 7047     		bx	lr
 1045              	.LVL85:
 1046              	.L94:
 756:..//Source/stm/lib/STM32L1xx_HAL_Driver/Src/stm32l1xx_hal_dma.c ****     {
 1047              		.loc 1 756 0
 1048 0024 0429     		cmp	r1, #4
 1049 0026 16D8     		bhi	.L93
ARM GAS  /tmp/cctrNPm4.s 			page 38


 1050 0028 DFE801F0 		tbb	[pc, r1]
 1051              	.L86:
 1052 002c 03       		.byte	(.L85-.L86)/2
 1053 002d 06       		.byte	(.L87-.L86)/2
 1054 002e 09       		.byte	(.L88-.L86)/2
 1055 002f 0C       		.byte	(.L89-.L86)/2
 1056 0030 0F       		.byte	(.L90-.L86)/2
 1057 0031 00       		.p2align 1
 1058              	.L85:
 759:..//Source/stm/lib/STM32L1xx_HAL_Driver/Src/stm32l1xx_hal_dma.c ****            break;
 1059              		.loc 1 759 0
 1060 0032 0020     		movs	r0, #0
 1061              	.LVL86:
 1062 0034 9862     		str	r0, [r3, #40]
 760:..//Source/stm/lib/STM32L1xx_HAL_Driver/Src/stm32l1xx_hal_dma.c **** 
 1063              		.loc 1 760 0
 1064 0036 F1E7     		b	.L84
 1065              	.LVL87:
 1066              	.L87:
 763:..//Source/stm/lib/STM32L1xx_HAL_Driver/Src/stm32l1xx_hal_dma.c ****            break;
 1067              		.loc 1 763 0
 1068 0038 0020     		movs	r0, #0
 1069              	.LVL88:
 1070 003a D862     		str	r0, [r3, #44]
 764:..//Source/stm/lib/STM32L1xx_HAL_Driver/Src/stm32l1xx_hal_dma.c **** 
 1071              		.loc 1 764 0
 1072 003c EEE7     		b	.L84
 1073              	.LVL89:
 1074              	.L88:
 767:..//Source/stm/lib/STM32L1xx_HAL_Driver/Src/stm32l1xx_hal_dma.c ****            break;
 1075              		.loc 1 767 0
 1076 003e 0020     		movs	r0, #0
 1077              	.LVL90:
 1078 0040 1863     		str	r0, [r3, #48]
 768:..//Source/stm/lib/STM32L1xx_HAL_Driver/Src/stm32l1xx_hal_dma.c **** 
 1079              		.loc 1 768 0
 1080 0042 EBE7     		b	.L84
 1081              	.LVL91:
 1082              	.L89:
 771:..//Source/stm/lib/STM32L1xx_HAL_Driver/Src/stm32l1xx_hal_dma.c ****            break;
 1083              		.loc 1 771 0
 1084 0044 0020     		movs	r0, #0
 1085              	.LVL92:
 1086 0046 5863     		str	r0, [r3, #52]
 772:..//Source/stm/lib/STM32L1xx_HAL_Driver/Src/stm32l1xx_hal_dma.c **** 
 1087              		.loc 1 772 0
 1088 0048 E8E7     		b	.L84
 1089              	.LVL93:
 1090              	.L90:
 775:..//Source/stm/lib/STM32L1xx_HAL_Driver/Src/stm32l1xx_hal_dma.c ****            hdma->XferHalfCpltCallback = NULL;
 1091              		.loc 1 775 0
 1092 004a 0020     		movs	r0, #0
 1093              	.LVL94:
 1094 004c 9862     		str	r0, [r3, #40]
 776:..//Source/stm/lib/STM32L1xx_HAL_Driver/Src/stm32l1xx_hal_dma.c ****            hdma->XferErrorCallback = NULL;
 1095              		.loc 1 776 0
 1096 004e D862     		str	r0, [r3, #44]
ARM GAS  /tmp/cctrNPm4.s 			page 39


 777:..//Source/stm/lib/STM32L1xx_HAL_Driver/Src/stm32l1xx_hal_dma.c ****            hdma->XferAbortCallback = NULL;
 1097              		.loc 1 777 0
 1098 0050 1863     		str	r0, [r3, #48]
 778:..//Source/stm/lib/STM32L1xx_HAL_Driver/Src/stm32l1xx_hal_dma.c ****            break;
 1099              		.loc 1 778 0
 1100 0052 5863     		str	r0, [r3, #52]
 779:..//Source/stm/lib/STM32L1xx_HAL_Driver/Src/stm32l1xx_hal_dma.c **** 
 1101              		.loc 1 779 0
 1102 0054 E2E7     		b	.L84
 1103              	.LVL95:
 1104              	.L93:
 782:..//Source/stm/lib/STM32L1xx_HAL_Driver/Src/stm32l1xx_hal_dma.c ****            break;
 1105              		.loc 1 782 0
 1106 0056 0120     		movs	r0, #1
 1107              	.LVL96:
 1108 0058 E0E7     		b	.L84
 1109              	.LVL97:
 1110              	.L91:
 752:..//Source/stm/lib/STM32L1xx_HAL_Driver/Src/stm32l1xx_hal_dma.c **** 
 1111              		.loc 1 752 0
 1112 005a 0220     		movs	r0, #2
 1113              	.LVL98:
 795:..//Source/stm/lib/STM32L1xx_HAL_Driver/Src/stm32l1xx_hal_dma.c **** 
 1114              		.loc 1 795 0
 1115 005c 7047     		bx	lr
 1116              		.cfi_endproc
 1117              	.LFE81:
 1119              		.section	.text.HAL_DMA_GetState,"ax",%progbits
 1120              		.align	1
 1121              		.global	HAL_DMA_GetState
 1122              		.syntax unified
 1123              		.thumb
 1124              		.thumb_func
 1125              		.fpu softvfp
 1127              	HAL_DMA_GetState:
 1128              	.LFB82:
 826:..//Source/stm/lib/STM32L1xx_HAL_Driver/Src/stm32l1xx_hal_dma.c ****   /* Return DMA handle state */
 1129              		.loc 1 826 0
 1130              		.cfi_startproc
 1131              		@ args = 0, pretend = 0, frame = 0
 1132              		@ frame_needed = 0, uses_anonymous_args = 0
 1133              		@ link register save eliminated.
 1134              	.LVL99:
 828:..//Source/stm/lib/STM32L1xx_HAL_Driver/Src/stm32l1xx_hal_dma.c **** }
 1135              		.loc 1 828 0
 1136 0000 90F82100 		ldrb	r0, [r0, #33]	@ zero_extendqisi2
 1137              	.LVL100:
 829:..//Source/stm/lib/STM32L1xx_HAL_Driver/Src/stm32l1xx_hal_dma.c **** 
 1138              		.loc 1 829 0
 1139 0004 7047     		bx	lr
 1140              		.cfi_endproc
 1141              	.LFE82:
 1143              		.section	.text.HAL_DMA_GetError,"ax",%progbits
 1144              		.align	1
 1145              		.global	HAL_DMA_GetError
 1146              		.syntax unified
 1147              		.thumb
ARM GAS  /tmp/cctrNPm4.s 			page 40


 1148              		.thumb_func
 1149              		.fpu softvfp
 1151              	HAL_DMA_GetError:
 1152              	.LFB83:
 838:..//Source/stm/lib/STM32L1xx_HAL_Driver/Src/stm32l1xx_hal_dma.c ****   return hdma->ErrorCode;
 1153              		.loc 1 838 0
 1154              		.cfi_startproc
 1155              		@ args = 0, pretend = 0, frame = 0
 1156              		@ frame_needed = 0, uses_anonymous_args = 0
 1157              		@ link register save eliminated.
 1158              	.LVL101:
 839:..//Source/stm/lib/STM32L1xx_HAL_Driver/Src/stm32l1xx_hal_dma.c **** }
 1159              		.loc 1 839 0
 1160 0000 806B     		ldr	r0, [r0, #56]
 1161              	.LVL102:
 840:..//Source/stm/lib/STM32L1xx_HAL_Driver/Src/stm32l1xx_hal_dma.c **** 
 1162              		.loc 1 840 0
 1163 0002 7047     		bx	lr
 1164              		.cfi_endproc
 1165              	.LFE83:
 1167              		.text
 1168              	.Letext0:
 1169              		.file 2 "/usr/include/newlib/machine/_default_types.h"
 1170              		.file 3 "/usr/include/newlib/sys/_stdint.h"
 1171              		.file 4 "..//Source/stm/lib/CMSIS/Include/core_cm3.h"
 1172              		.file 5 "..//Source/stm/lib/CMSIS/Device/ST/STM32L1xx/Include/system_stm32l1xx.h"
 1173              		.file 6 "..//Source/stm/lib/CMSIS/Device/ST/STM32L1xx/Include/stm32l151xba.h"
 1174              		.file 7 "..//Source/stm/lib/STM32L1xx_HAL_Driver/Inc/stm32l1xx_hal_def.h"
 1175              		.file 8 "..//Source/stm/lib/STM32L1xx_HAL_Driver/Inc/stm32l1xx_hal_dma.h"
 1176              		.file 9 "..//Source/stm/lib/STM32L1xx_HAL_Driver/Inc/stm32l1xx_hal.h"
ARM GAS  /tmp/cctrNPm4.s 			page 41

