ARM GAS  /tmp/ccTaTHmG.s 			page 1


   1              		.cpu cortex-m3
   2              		.eabi_attribute 20, 1
   3              		.eabi_attribute 21, 1
   4              		.eabi_attribute 23, 3
   5              		.eabi_attribute 24, 1
   6              		.eabi_attribute 25, 1
   7              		.eabi_attribute 26, 1
   8              		.eabi_attribute 30, 1
   9              		.eabi_attribute 34, 1
  10              		.eabi_attribute 18, 4
  11              		.file	"stm32l1xx_hal_rtc_ex.c"
  12              		.text
  13              	.Ltext0:
  14              		.cfi_sections	.debug_frame
  15              		.section	.text.HAL_RTCEx_SetTimeStamp,"ax",%progbits
  16              		.align	1
  17              		.global	HAL_RTCEx_SetTimeStamp
  18              		.syntax unified
  19              		.thumb
  20              		.thumb_func
  21              		.fpu softvfp
  23              	HAL_RTCEx_SetTimeStamp:
  24              	.LFB72:
  25              		.file 1 "..//Source/stm/lib/STM32L1xx_HAL_Driver/Src/stm32l1xx_hal_rtc_ex.c"
   1:..//Source/stm/lib/STM32L1xx_HAL_Driver/Src/stm32l1xx_hal_rtc_ex.c **** /**
   2:..//Source/stm/lib/STM32L1xx_HAL_Driver/Src/stm32l1xx_hal_rtc_ex.c ****   ******************************************************************************
   3:..//Source/stm/lib/STM32L1xx_HAL_Driver/Src/stm32l1xx_hal_rtc_ex.c ****   * @file    stm32l1xx_hal_rtc_ex.c
   4:..//Source/stm/lib/STM32L1xx_HAL_Driver/Src/stm32l1xx_hal_rtc_ex.c ****   * @author  MCD Application Team
   5:..//Source/stm/lib/STM32L1xx_HAL_Driver/Src/stm32l1xx_hal_rtc_ex.c ****   * @brief   Extended RTC HAL module driver.
   6:..//Source/stm/lib/STM32L1xx_HAL_Driver/Src/stm32l1xx_hal_rtc_ex.c ****   *          This file provides firmware functions to manage the following
   7:..//Source/stm/lib/STM32L1xx_HAL_Driver/Src/stm32l1xx_hal_rtc_ex.c ****   *          functionalities of the Real Time Clock (RTC) Extended peripheral:
   8:..//Source/stm/lib/STM32L1xx_HAL_Driver/Src/stm32l1xx_hal_rtc_ex.c ****   *           + RTC Time Stamp functions
   9:..//Source/stm/lib/STM32L1xx_HAL_Driver/Src/stm32l1xx_hal_rtc_ex.c ****   *           + RTC Tamper functions
  10:..//Source/stm/lib/STM32L1xx_HAL_Driver/Src/stm32l1xx_hal_rtc_ex.c ****   *           + RTC Wake-up functions
  11:..//Source/stm/lib/STM32L1xx_HAL_Driver/Src/stm32l1xx_hal_rtc_ex.c ****   *           + Extended Control functions
  12:..//Source/stm/lib/STM32L1xx_HAL_Driver/Src/stm32l1xx_hal_rtc_ex.c ****   *           + Extended RTC features functions
  13:..//Source/stm/lib/STM32L1xx_HAL_Driver/Src/stm32l1xx_hal_rtc_ex.c ****   *
  14:..//Source/stm/lib/STM32L1xx_HAL_Driver/Src/stm32l1xx_hal_rtc_ex.c ****   @verbatim
  15:..//Source/stm/lib/STM32L1xx_HAL_Driver/Src/stm32l1xx_hal_rtc_ex.c ****   ==============================================================================
  16:..//Source/stm/lib/STM32L1xx_HAL_Driver/Src/stm32l1xx_hal_rtc_ex.c ****                   ##### How to use this driver #####
  17:..//Source/stm/lib/STM32L1xx_HAL_Driver/Src/stm32l1xx_hal_rtc_ex.c ****   ==============================================================================
  18:..//Source/stm/lib/STM32L1xx_HAL_Driver/Src/stm32l1xx_hal_rtc_ex.c ****   [..]
  19:..//Source/stm/lib/STM32L1xx_HAL_Driver/Src/stm32l1xx_hal_rtc_ex.c ****     (+) Enable the RTC domain access.
  20:..//Source/stm/lib/STM32L1xx_HAL_Driver/Src/stm32l1xx_hal_rtc_ex.c ****     (+) Configure the RTC Prescaler (Asynchronous and Synchronous) and RTC hour
  21:..//Source/stm/lib/STM32L1xx_HAL_Driver/Src/stm32l1xx_hal_rtc_ex.c ****         format using the HAL_RTC_Init() function.
  22:..//Source/stm/lib/STM32L1xx_HAL_Driver/Src/stm32l1xx_hal_rtc_ex.c **** 
  23:..//Source/stm/lib/STM32L1xx_HAL_Driver/Src/stm32l1xx_hal_rtc_ex.c ****   *** RTC Wakeup configuration ***
  24:..//Source/stm/lib/STM32L1xx_HAL_Driver/Src/stm32l1xx_hal_rtc_ex.c ****   ================================
  25:..//Source/stm/lib/STM32L1xx_HAL_Driver/Src/stm32l1xx_hal_rtc_ex.c ****   [..]
  26:..//Source/stm/lib/STM32L1xx_HAL_Driver/Src/stm32l1xx_hal_rtc_ex.c ****     (+) To configure the RTC Wakeup Clock source and Counter use the HAL_RTCEx_SetWakeUpTimer()
  27:..//Source/stm/lib/STM32L1xx_HAL_Driver/Src/stm32l1xx_hal_rtc_ex.c ****         function. You can also configure the RTC Wakeup timer with interrupt mode
  28:..//Source/stm/lib/STM32L1xx_HAL_Driver/Src/stm32l1xx_hal_rtc_ex.c ****         using the HAL_RTCEx_SetWakeUpTimer_IT() function.
  29:..//Source/stm/lib/STM32L1xx_HAL_Driver/Src/stm32l1xx_hal_rtc_ex.c ****     (+) To read the RTC WakeUp Counter register, use the HAL_RTCEx_GetWakeUpTimer()
  30:..//Source/stm/lib/STM32L1xx_HAL_Driver/Src/stm32l1xx_hal_rtc_ex.c ****         function.
  31:..//Source/stm/lib/STM32L1xx_HAL_Driver/Src/stm32l1xx_hal_rtc_ex.c **** 
  32:..//Source/stm/lib/STM32L1xx_HAL_Driver/Src/stm32l1xx_hal_rtc_ex.c ****   *** TimeStamp configuration ***
  33:..//Source/stm/lib/STM32L1xx_HAL_Driver/Src/stm32l1xx_hal_rtc_ex.c ****   ===============================
ARM GAS  /tmp/ccTaTHmG.s 			page 2


  34:..//Source/stm/lib/STM32L1xx_HAL_Driver/Src/stm32l1xx_hal_rtc_ex.c ****   [..]
  35:..//Source/stm/lib/STM32L1xx_HAL_Driver/Src/stm32l1xx_hal_rtc_ex.c ****     (+) Configure the RTC_AFx trigger and enable the RTC TimeStamp using the
  36:..//Source/stm/lib/STM32L1xx_HAL_Driver/Src/stm32l1xx_hal_rtc_ex.c ****         HAL_RTCEx_SetTimeStamp() function. You can also configure the RTC TimeStamp with
  37:..//Source/stm/lib/STM32L1xx_HAL_Driver/Src/stm32l1xx_hal_rtc_ex.c ****         interrupt mode using the HAL_RTCEx_SetTimeStamp_IT() function.
  38:..//Source/stm/lib/STM32L1xx_HAL_Driver/Src/stm32l1xx_hal_rtc_ex.c ****     (+) To read the RTC TimeStamp Time and Date register, use the HAL_RTCEx_GetTimeStamp()
  39:..//Source/stm/lib/STM32L1xx_HAL_Driver/Src/stm32l1xx_hal_rtc_ex.c ****         function.
  40:..//Source/stm/lib/STM32L1xx_HAL_Driver/Src/stm32l1xx_hal_rtc_ex.c ****     (+) The TIMESTAMP alternate function can be mapped to RTC_AF1 (PC13).
  41:..//Source/stm/lib/STM32L1xx_HAL_Driver/Src/stm32l1xx_hal_rtc_ex.c **** 
  42:..//Source/stm/lib/STM32L1xx_HAL_Driver/Src/stm32l1xx_hal_rtc_ex.c ****   *** Tamper configuration ***
  43:..//Source/stm/lib/STM32L1xx_HAL_Driver/Src/stm32l1xx_hal_rtc_ex.c ****   ============================
  44:..//Source/stm/lib/STM32L1xx_HAL_Driver/Src/stm32l1xx_hal_rtc_ex.c ****   [..]
  45:..//Source/stm/lib/STM32L1xx_HAL_Driver/Src/stm32l1xx_hal_rtc_ex.c ****     (+) Enable the RTC Tamper and configure the Tamper filter count, trigger Edge
  46:..//Source/stm/lib/STM32L1xx_HAL_Driver/Src/stm32l1xx_hal_rtc_ex.c ****         or Level according to the Tamper filter (if equal to 0 Edge else Level)
  47:..//Source/stm/lib/STM32L1xx_HAL_Driver/Src/stm32l1xx_hal_rtc_ex.c ****         value, sampling frequency, precharge or discharge and Pull-UP using the
  48:..//Source/stm/lib/STM32L1xx_HAL_Driver/Src/stm32l1xx_hal_rtc_ex.c ****         HAL_RTCEx_SetTamper() function. You can configure RTC Tamper with interrupt
  49:..//Source/stm/lib/STM32L1xx_HAL_Driver/Src/stm32l1xx_hal_rtc_ex.c ****         mode using HAL_RTCEx_SetTamper_IT() function.
  50:..//Source/stm/lib/STM32L1xx_HAL_Driver/Src/stm32l1xx_hal_rtc_ex.c ****     (+) The TAMPER1 alternate function can be mapped to RTC_AF1 (PC13).
  51:..//Source/stm/lib/STM32L1xx_HAL_Driver/Src/stm32l1xx_hal_rtc_ex.c **** 
  52:..//Source/stm/lib/STM32L1xx_HAL_Driver/Src/stm32l1xx_hal_rtc_ex.c ****   *** Backup Data Registers configuration ***
  53:..//Source/stm/lib/STM32L1xx_HAL_Driver/Src/stm32l1xx_hal_rtc_ex.c ****   ===========================================
  54:..//Source/stm/lib/STM32L1xx_HAL_Driver/Src/stm32l1xx_hal_rtc_ex.c ****   [..]
  55:..//Source/stm/lib/STM32L1xx_HAL_Driver/Src/stm32l1xx_hal_rtc_ex.c ****     (+) To write to the RTC Backup Data registers, use the HAL_RTCEx_BKUPWrite()
  56:..//Source/stm/lib/STM32L1xx_HAL_Driver/Src/stm32l1xx_hal_rtc_ex.c ****         function.
  57:..//Source/stm/lib/STM32L1xx_HAL_Driver/Src/stm32l1xx_hal_rtc_ex.c ****     (+) To read the RTC Backup Data registers, use the HAL_RTCEx_BKUPRead()
  58:..//Source/stm/lib/STM32L1xx_HAL_Driver/Src/stm32l1xx_hal_rtc_ex.c ****         function.
  59:..//Source/stm/lib/STM32L1xx_HAL_Driver/Src/stm32l1xx_hal_rtc_ex.c **** 
  60:..//Source/stm/lib/STM32L1xx_HAL_Driver/Src/stm32l1xx_hal_rtc_ex.c ****    @endverbatim
  61:..//Source/stm/lib/STM32L1xx_HAL_Driver/Src/stm32l1xx_hal_rtc_ex.c ****   ******************************************************************************
  62:..//Source/stm/lib/STM32L1xx_HAL_Driver/Src/stm32l1xx_hal_rtc_ex.c ****   * @attention
  63:..//Source/stm/lib/STM32L1xx_HAL_Driver/Src/stm32l1xx_hal_rtc_ex.c ****   *
  64:..//Source/stm/lib/STM32L1xx_HAL_Driver/Src/stm32l1xx_hal_rtc_ex.c ****   * <h2><center>&copy; Copyright (c) 2017 STMicroelectronics.
  65:..//Source/stm/lib/STM32L1xx_HAL_Driver/Src/stm32l1xx_hal_rtc_ex.c ****   * All rights reserved.</center></h2>
  66:..//Source/stm/lib/STM32L1xx_HAL_Driver/Src/stm32l1xx_hal_rtc_ex.c ****   *
  67:..//Source/stm/lib/STM32L1xx_HAL_Driver/Src/stm32l1xx_hal_rtc_ex.c ****   * This software component is licensed by ST under BSD 3-Clause license,
  68:..//Source/stm/lib/STM32L1xx_HAL_Driver/Src/stm32l1xx_hal_rtc_ex.c ****   * the "License"; You may not use this file except in compliance with the
  69:..//Source/stm/lib/STM32L1xx_HAL_Driver/Src/stm32l1xx_hal_rtc_ex.c ****   * License. You may obtain a copy of the License at:
  70:..//Source/stm/lib/STM32L1xx_HAL_Driver/Src/stm32l1xx_hal_rtc_ex.c ****   *                        opensource.org/licenses/BSD-3-Clause
  71:..//Source/stm/lib/STM32L1xx_HAL_Driver/Src/stm32l1xx_hal_rtc_ex.c ****   *
  72:..//Source/stm/lib/STM32L1xx_HAL_Driver/Src/stm32l1xx_hal_rtc_ex.c ****   ******************************************************************************
  73:..//Source/stm/lib/STM32L1xx_HAL_Driver/Src/stm32l1xx_hal_rtc_ex.c ****   */
  74:..//Source/stm/lib/STM32L1xx_HAL_Driver/Src/stm32l1xx_hal_rtc_ex.c **** 
  75:..//Source/stm/lib/STM32L1xx_HAL_Driver/Src/stm32l1xx_hal_rtc_ex.c **** /* Includes ------------------------------------------------------------------*/
  76:..//Source/stm/lib/STM32L1xx_HAL_Driver/Src/stm32l1xx_hal_rtc_ex.c **** #include "stm32l1xx_hal.h"
  77:..//Source/stm/lib/STM32L1xx_HAL_Driver/Src/stm32l1xx_hal_rtc_ex.c **** 
  78:..//Source/stm/lib/STM32L1xx_HAL_Driver/Src/stm32l1xx_hal_rtc_ex.c **** /** @addtogroup STM32L1xx_HAL_Driver
  79:..//Source/stm/lib/STM32L1xx_HAL_Driver/Src/stm32l1xx_hal_rtc_ex.c ****   * @{
  80:..//Source/stm/lib/STM32L1xx_HAL_Driver/Src/stm32l1xx_hal_rtc_ex.c ****   */
  81:..//Source/stm/lib/STM32L1xx_HAL_Driver/Src/stm32l1xx_hal_rtc_ex.c **** 
  82:..//Source/stm/lib/STM32L1xx_HAL_Driver/Src/stm32l1xx_hal_rtc_ex.c **** /** @addtogroup RTCEx
  83:..//Source/stm/lib/STM32L1xx_HAL_Driver/Src/stm32l1xx_hal_rtc_ex.c ****   * @brief RTC Extended HAL module driver
  84:..//Source/stm/lib/STM32L1xx_HAL_Driver/Src/stm32l1xx_hal_rtc_ex.c ****   * @{
  85:..//Source/stm/lib/STM32L1xx_HAL_Driver/Src/stm32l1xx_hal_rtc_ex.c ****   */
  86:..//Source/stm/lib/STM32L1xx_HAL_Driver/Src/stm32l1xx_hal_rtc_ex.c **** 
  87:..//Source/stm/lib/STM32L1xx_HAL_Driver/Src/stm32l1xx_hal_rtc_ex.c **** #ifdef HAL_RTC_MODULE_ENABLED
  88:..//Source/stm/lib/STM32L1xx_HAL_Driver/Src/stm32l1xx_hal_rtc_ex.c **** 
  89:..//Source/stm/lib/STM32L1xx_HAL_Driver/Src/stm32l1xx_hal_rtc_ex.c **** /* Private typedef -----------------------------------------------------------*/
  90:..//Source/stm/lib/STM32L1xx_HAL_Driver/Src/stm32l1xx_hal_rtc_ex.c **** /* Private define ------------------------------------------------------------*/
ARM GAS  /tmp/ccTaTHmG.s 			page 3


  91:..//Source/stm/lib/STM32L1xx_HAL_Driver/Src/stm32l1xx_hal_rtc_ex.c **** /* Private macro -------------------------------------------------------------*/
  92:..//Source/stm/lib/STM32L1xx_HAL_Driver/Src/stm32l1xx_hal_rtc_ex.c **** /* Private variables ---------------------------------------------------------*/
  93:..//Source/stm/lib/STM32L1xx_HAL_Driver/Src/stm32l1xx_hal_rtc_ex.c **** /* Private function prototypes -----------------------------------------------*/
  94:..//Source/stm/lib/STM32L1xx_HAL_Driver/Src/stm32l1xx_hal_rtc_ex.c **** /* Exported functions --------------------------------------------------------*/
  95:..//Source/stm/lib/STM32L1xx_HAL_Driver/Src/stm32l1xx_hal_rtc_ex.c **** 
  96:..//Source/stm/lib/STM32L1xx_HAL_Driver/Src/stm32l1xx_hal_rtc_ex.c **** /** @addtogroup RTCEx_Exported_Functions
  97:..//Source/stm/lib/STM32L1xx_HAL_Driver/Src/stm32l1xx_hal_rtc_ex.c ****   * @{
  98:..//Source/stm/lib/STM32L1xx_HAL_Driver/Src/stm32l1xx_hal_rtc_ex.c ****   */
  99:..//Source/stm/lib/STM32L1xx_HAL_Driver/Src/stm32l1xx_hal_rtc_ex.c **** 
 100:..//Source/stm/lib/STM32L1xx_HAL_Driver/Src/stm32l1xx_hal_rtc_ex.c **** 
 101:..//Source/stm/lib/STM32L1xx_HAL_Driver/Src/stm32l1xx_hal_rtc_ex.c **** /** @addtogroup RTCEx_Exported_Functions_Group1
 102:..//Source/stm/lib/STM32L1xx_HAL_Driver/Src/stm32l1xx_hal_rtc_ex.c ****   * @brief    RTC TimeStamp and Tamper functions
 103:..//Source/stm/lib/STM32L1xx_HAL_Driver/Src/stm32l1xx_hal_rtc_ex.c ****   *
 104:..//Source/stm/lib/STM32L1xx_HAL_Driver/Src/stm32l1xx_hal_rtc_ex.c **** @verbatim
 105:..//Source/stm/lib/STM32L1xx_HAL_Driver/Src/stm32l1xx_hal_rtc_ex.c ****  ===============================================================================
 106:..//Source/stm/lib/STM32L1xx_HAL_Driver/Src/stm32l1xx_hal_rtc_ex.c ****                  ##### RTC TimeStamp and Tamper functions #####
 107:..//Source/stm/lib/STM32L1xx_HAL_Driver/Src/stm32l1xx_hal_rtc_ex.c ****  ===============================================================================
 108:..//Source/stm/lib/STM32L1xx_HAL_Driver/Src/stm32l1xx_hal_rtc_ex.c **** 
 109:..//Source/stm/lib/STM32L1xx_HAL_Driver/Src/stm32l1xx_hal_rtc_ex.c ****  [..] This section provides functions allowing to configure TimeStamp feature
 110:..//Source/stm/lib/STM32L1xx_HAL_Driver/Src/stm32l1xx_hal_rtc_ex.c **** 
 111:..//Source/stm/lib/STM32L1xx_HAL_Driver/Src/stm32l1xx_hal_rtc_ex.c **** @endverbatim
 112:..//Source/stm/lib/STM32L1xx_HAL_Driver/Src/stm32l1xx_hal_rtc_ex.c ****   * @{
 113:..//Source/stm/lib/STM32L1xx_HAL_Driver/Src/stm32l1xx_hal_rtc_ex.c ****   */
 114:..//Source/stm/lib/STM32L1xx_HAL_Driver/Src/stm32l1xx_hal_rtc_ex.c **** 
 115:..//Source/stm/lib/STM32L1xx_HAL_Driver/Src/stm32l1xx_hal_rtc_ex.c **** /**
 116:..//Source/stm/lib/STM32L1xx_HAL_Driver/Src/stm32l1xx_hal_rtc_ex.c ****   * @brief  Set TimeStamp.
 117:..//Source/stm/lib/STM32L1xx_HAL_Driver/Src/stm32l1xx_hal_rtc_ex.c ****   * @note   This API must be called before enabling the TimeStamp feature.
 118:..//Source/stm/lib/STM32L1xx_HAL_Driver/Src/stm32l1xx_hal_rtc_ex.c ****   * @param  hrtc RTC handle
 119:..//Source/stm/lib/STM32L1xx_HAL_Driver/Src/stm32l1xx_hal_rtc_ex.c ****   * @param  TimeStampEdge Specifies the pin edge on which the TimeStamp is
 120:..//Source/stm/lib/STM32L1xx_HAL_Driver/Src/stm32l1xx_hal_rtc_ex.c ****   *         activated.
 121:..//Source/stm/lib/STM32L1xx_HAL_Driver/Src/stm32l1xx_hal_rtc_ex.c ****   *          This parameter can be one of the following values:
 122:..//Source/stm/lib/STM32L1xx_HAL_Driver/Src/stm32l1xx_hal_rtc_ex.c ****   *             @arg RTC_TIMESTAMPEDGE_RISING: the Time stamp event occurs on the
 123:..//Source/stm/lib/STM32L1xx_HAL_Driver/Src/stm32l1xx_hal_rtc_ex.c ****   *                                        rising edge of the related pin.
 124:..//Source/stm/lib/STM32L1xx_HAL_Driver/Src/stm32l1xx_hal_rtc_ex.c ****   *             @arg RTC_TIMESTAMPEDGE_FALLING: the Time stamp event occurs on the
 125:..//Source/stm/lib/STM32L1xx_HAL_Driver/Src/stm32l1xx_hal_rtc_ex.c ****   *                                         falling edge of the related pin.
 126:..//Source/stm/lib/STM32L1xx_HAL_Driver/Src/stm32l1xx_hal_rtc_ex.c ****   * @retval HAL status
 127:..//Source/stm/lib/STM32L1xx_HAL_Driver/Src/stm32l1xx_hal_rtc_ex.c ****   */
 128:..//Source/stm/lib/STM32L1xx_HAL_Driver/Src/stm32l1xx_hal_rtc_ex.c **** HAL_StatusTypeDef HAL_RTCEx_SetTimeStamp(RTC_HandleTypeDef *hrtc, uint32_t TimeStampEdge)
 129:..//Source/stm/lib/STM32L1xx_HAL_Driver/Src/stm32l1xx_hal_rtc_ex.c **** {
  26              		.loc 1 129 0
  27              		.cfi_startproc
  28              		@ args = 0, pretend = 0, frame = 0
  29              		@ frame_needed = 0, uses_anonymous_args = 0
  30              		@ link register save eliminated.
  31              	.LVL0:
 130:..//Source/stm/lib/STM32L1xx_HAL_Driver/Src/stm32l1xx_hal_rtc_ex.c ****   uint32_t tmpreg;
 131:..//Source/stm/lib/STM32L1xx_HAL_Driver/Src/stm32l1xx_hal_rtc_ex.c **** 
 132:..//Source/stm/lib/STM32L1xx_HAL_Driver/Src/stm32l1xx_hal_rtc_ex.c ****   /* Check the parameters */
 133:..//Source/stm/lib/STM32L1xx_HAL_Driver/Src/stm32l1xx_hal_rtc_ex.c ****   assert_param(IS_TIMESTAMP_EDGE(TimeStampEdge));
 134:..//Source/stm/lib/STM32L1xx_HAL_Driver/Src/stm32l1xx_hal_rtc_ex.c **** 
 135:..//Source/stm/lib/STM32L1xx_HAL_Driver/Src/stm32l1xx_hal_rtc_ex.c ****   /* Process Locked */
 136:..//Source/stm/lib/STM32L1xx_HAL_Driver/Src/stm32l1xx_hal_rtc_ex.c ****   __HAL_LOCK(hrtc);
  32              		.loc 1 136 0
  33 0000 027F     		ldrb	r2, [r0, #28]	@ zero_extendqisi2
  34 0002 012A     		cmp	r2, #1
  35 0004 20D0     		beq	.L3
 129:..//Source/stm/lib/STM32L1xx_HAL_Driver/Src/stm32l1xx_hal_rtc_ex.c ****   uint32_t tmpreg;
ARM GAS  /tmp/ccTaTHmG.s 			page 4


  36              		.loc 1 129 0 discriminator 2
  37 0006 10B4     		push	{r4}
  38              	.LCFI0:
  39              		.cfi_def_cfa_offset 4
  40              		.cfi_offset 4, -4
  41              		.loc 1 136 0 discriminator 2
  42 0008 0122     		movs	r2, #1
  43 000a 0277     		strb	r2, [r0, #28]
 137:..//Source/stm/lib/STM32L1xx_HAL_Driver/Src/stm32l1xx_hal_rtc_ex.c **** 
 138:..//Source/stm/lib/STM32L1xx_HAL_Driver/Src/stm32l1xx_hal_rtc_ex.c ****   hrtc->State = HAL_RTC_STATE_BUSY;
  44              		.loc 1 138 0 discriminator 2
  45 000c 0223     		movs	r3, #2
  46 000e 4377     		strb	r3, [r0, #29]
 139:..//Source/stm/lib/STM32L1xx_HAL_Driver/Src/stm32l1xx_hal_rtc_ex.c **** 
 140:..//Source/stm/lib/STM32L1xx_HAL_Driver/Src/stm32l1xx_hal_rtc_ex.c ****   /* Get the RTC_CR register and clear the bits to be configured */
 141:..//Source/stm/lib/STM32L1xx_HAL_Driver/Src/stm32l1xx_hal_rtc_ex.c ****   tmpreg = (uint32_t)(hrtc->Instance->CR & (uint32_t)~(RTC_CR_TSEDGE | RTC_CR_TSE));
  47              		.loc 1 141 0 discriminator 2
  48 0010 0468     		ldr	r4, [r0]
  49 0012 A368     		ldr	r3, [r4, #8]
  50 0014 23F40063 		bic	r3, r3, #2048
  51 0018 23F00803 		bic	r3, r3, #8
  52              	.LVL1:
 142:..//Source/stm/lib/STM32L1xx_HAL_Driver/Src/stm32l1xx_hal_rtc_ex.c **** 
 143:..//Source/stm/lib/STM32L1xx_HAL_Driver/Src/stm32l1xx_hal_rtc_ex.c ****   tmpreg |= TimeStampEdge;
  53              		.loc 1 143 0 discriminator 2
  54 001c 0B43     		orrs	r3, r3, r1
  55              	.LVL2:
 144:..//Source/stm/lib/STM32L1xx_HAL_Driver/Src/stm32l1xx_hal_rtc_ex.c **** 
 145:..//Source/stm/lib/STM32L1xx_HAL_Driver/Src/stm32l1xx_hal_rtc_ex.c ****   /* Disable the write protection for RTC registers */
 146:..//Source/stm/lib/STM32L1xx_HAL_Driver/Src/stm32l1xx_hal_rtc_ex.c ****   __HAL_RTC_WRITEPROTECTION_DISABLE(hrtc);
  56              		.loc 1 146 0 discriminator 2
  57 001e CA21     		movs	r1, #202
  58              	.LVL3:
  59 0020 6162     		str	r1, [r4, #36]
  60 0022 0168     		ldr	r1, [r0]
  61 0024 5324     		movs	r4, #83
  62 0026 4C62     		str	r4, [r1, #36]
 147:..//Source/stm/lib/STM32L1xx_HAL_Driver/Src/stm32l1xx_hal_rtc_ex.c **** 
 148:..//Source/stm/lib/STM32L1xx_HAL_Driver/Src/stm32l1xx_hal_rtc_ex.c ****   /* Configure the Time Stamp TSEDGE and Enable bits */
 149:..//Source/stm/lib/STM32L1xx_HAL_Driver/Src/stm32l1xx_hal_rtc_ex.c ****   hrtc->Instance->CR = (uint32_t)tmpreg;
  63              		.loc 1 149 0 discriminator 2
  64 0028 0168     		ldr	r1, [r0]
  65 002a 8B60     		str	r3, [r1, #8]
 150:..//Source/stm/lib/STM32L1xx_HAL_Driver/Src/stm32l1xx_hal_rtc_ex.c **** 
 151:..//Source/stm/lib/STM32L1xx_HAL_Driver/Src/stm32l1xx_hal_rtc_ex.c ****   __HAL_RTC_TIMESTAMP_ENABLE(hrtc);
  66              		.loc 1 151 0 discriminator 2
  67 002c 0168     		ldr	r1, [r0]
  68 002e 8B68     		ldr	r3, [r1, #8]
  69              	.LVL4:
  70 0030 43F40063 		orr	r3, r3, #2048
  71 0034 8B60     		str	r3, [r1, #8]
 152:..//Source/stm/lib/STM32L1xx_HAL_Driver/Src/stm32l1xx_hal_rtc_ex.c **** 
 153:..//Source/stm/lib/STM32L1xx_HAL_Driver/Src/stm32l1xx_hal_rtc_ex.c ****   /* Enable the write protection for RTC registers */
 154:..//Source/stm/lib/STM32L1xx_HAL_Driver/Src/stm32l1xx_hal_rtc_ex.c ****   __HAL_RTC_WRITEPROTECTION_ENABLE(hrtc);
  72              		.loc 1 154 0 discriminator 2
  73 0036 0368     		ldr	r3, [r0]
  74 0038 FF21     		movs	r1, #255
ARM GAS  /tmp/ccTaTHmG.s 			page 5


  75 003a 5962     		str	r1, [r3, #36]
 155:..//Source/stm/lib/STM32L1xx_HAL_Driver/Src/stm32l1xx_hal_rtc_ex.c **** 
 156:..//Source/stm/lib/STM32L1xx_HAL_Driver/Src/stm32l1xx_hal_rtc_ex.c ****   /* Change RTC state */
 157:..//Source/stm/lib/STM32L1xx_HAL_Driver/Src/stm32l1xx_hal_rtc_ex.c ****   hrtc->State = HAL_RTC_STATE_READY;
  76              		.loc 1 157 0 discriminator 2
  77 003c 4277     		strb	r2, [r0, #29]
 158:..//Source/stm/lib/STM32L1xx_HAL_Driver/Src/stm32l1xx_hal_rtc_ex.c **** 
 159:..//Source/stm/lib/STM32L1xx_HAL_Driver/Src/stm32l1xx_hal_rtc_ex.c ****   /* Process Unlocked */
 160:..//Source/stm/lib/STM32L1xx_HAL_Driver/Src/stm32l1xx_hal_rtc_ex.c ****   __HAL_UNLOCK(hrtc);
  78              		.loc 1 160 0 discriminator 2
  79 003e 0023     		movs	r3, #0
  80 0040 0377     		strb	r3, [r0, #28]
 161:..//Source/stm/lib/STM32L1xx_HAL_Driver/Src/stm32l1xx_hal_rtc_ex.c **** 
 162:..//Source/stm/lib/STM32L1xx_HAL_Driver/Src/stm32l1xx_hal_rtc_ex.c ****   return HAL_OK;
  81              		.loc 1 162 0 discriminator 2
  82 0042 1846     		mov	r0, r3
  83              	.LVL5:
 163:..//Source/stm/lib/STM32L1xx_HAL_Driver/Src/stm32l1xx_hal_rtc_ex.c **** }
  84              		.loc 1 163 0 discriminator 2
  85 0044 10BC     		pop	{r4}
  86              	.LCFI1:
  87              		.cfi_restore 4
  88              		.cfi_def_cfa_offset 0
  89 0046 7047     		bx	lr
  90              	.LVL6:
  91              	.L3:
 136:..//Source/stm/lib/STM32L1xx_HAL_Driver/Src/stm32l1xx_hal_rtc_ex.c **** 
  92              		.loc 1 136 0
  93 0048 0220     		movs	r0, #2
  94              	.LVL7:
  95 004a 7047     		bx	lr
  96              		.cfi_endproc
  97              	.LFE72:
  99              		.section	.text.HAL_RTCEx_SetTimeStamp_IT,"ax",%progbits
 100              		.align	1
 101              		.global	HAL_RTCEx_SetTimeStamp_IT
 102              		.syntax unified
 103              		.thumb
 104              		.thumb_func
 105              		.fpu softvfp
 107              	HAL_RTCEx_SetTimeStamp_IT:
 108              	.LFB73:
 164:..//Source/stm/lib/STM32L1xx_HAL_Driver/Src/stm32l1xx_hal_rtc_ex.c **** 
 165:..//Source/stm/lib/STM32L1xx_HAL_Driver/Src/stm32l1xx_hal_rtc_ex.c **** /**
 166:..//Source/stm/lib/STM32L1xx_HAL_Driver/Src/stm32l1xx_hal_rtc_ex.c ****   * @brief  Set TimeStamp with Interrupt.
 167:..//Source/stm/lib/STM32L1xx_HAL_Driver/Src/stm32l1xx_hal_rtc_ex.c ****   * @param  hrtc RTC handle
 168:..//Source/stm/lib/STM32L1xx_HAL_Driver/Src/stm32l1xx_hal_rtc_ex.c ****   * @note   This API must be called before enabling the TimeStamp feature.
 169:..//Source/stm/lib/STM32L1xx_HAL_Driver/Src/stm32l1xx_hal_rtc_ex.c ****   * @param  TimeStampEdge Specifies the pin edge on which the TimeStamp is
 170:..//Source/stm/lib/STM32L1xx_HAL_Driver/Src/stm32l1xx_hal_rtc_ex.c ****   *         activated.
 171:..//Source/stm/lib/STM32L1xx_HAL_Driver/Src/stm32l1xx_hal_rtc_ex.c ****   *          This parameter can be one of the following values:
 172:..//Source/stm/lib/STM32L1xx_HAL_Driver/Src/stm32l1xx_hal_rtc_ex.c ****   *             @arg RTC_TIMESTAMPEDGE_RISING: the Time stamp event occurs on the
 173:..//Source/stm/lib/STM32L1xx_HAL_Driver/Src/stm32l1xx_hal_rtc_ex.c ****   *                                        rising edge of the related pin.
 174:..//Source/stm/lib/STM32L1xx_HAL_Driver/Src/stm32l1xx_hal_rtc_ex.c ****   *             @arg RTC_TIMESTAMPEDGE_FALLING: the Time stamp event occurs on the
 175:..//Source/stm/lib/STM32L1xx_HAL_Driver/Src/stm32l1xx_hal_rtc_ex.c ****   *                                         falling edge of the related pin.
 176:..//Source/stm/lib/STM32L1xx_HAL_Driver/Src/stm32l1xx_hal_rtc_ex.c ****   * @retval HAL status
 177:..//Source/stm/lib/STM32L1xx_HAL_Driver/Src/stm32l1xx_hal_rtc_ex.c ****   */
 178:..//Source/stm/lib/STM32L1xx_HAL_Driver/Src/stm32l1xx_hal_rtc_ex.c **** HAL_StatusTypeDef HAL_RTCEx_SetTimeStamp_IT(RTC_HandleTypeDef *hrtc, uint32_t TimeStampEdge)
ARM GAS  /tmp/ccTaTHmG.s 			page 6


 179:..//Source/stm/lib/STM32L1xx_HAL_Driver/Src/stm32l1xx_hal_rtc_ex.c **** {
 109              		.loc 1 179 0
 110              		.cfi_startproc
 111              		@ args = 0, pretend = 0, frame = 0
 112              		@ frame_needed = 0, uses_anonymous_args = 0
 113              		@ link register save eliminated.
 114              	.LVL8:
 180:..//Source/stm/lib/STM32L1xx_HAL_Driver/Src/stm32l1xx_hal_rtc_ex.c ****   uint32_t tmpreg;
 181:..//Source/stm/lib/STM32L1xx_HAL_Driver/Src/stm32l1xx_hal_rtc_ex.c **** 
 182:..//Source/stm/lib/STM32L1xx_HAL_Driver/Src/stm32l1xx_hal_rtc_ex.c ****   /* Check the parameters */
 183:..//Source/stm/lib/STM32L1xx_HAL_Driver/Src/stm32l1xx_hal_rtc_ex.c ****   assert_param(IS_TIMESTAMP_EDGE(TimeStampEdge));
 184:..//Source/stm/lib/STM32L1xx_HAL_Driver/Src/stm32l1xx_hal_rtc_ex.c **** 
 185:..//Source/stm/lib/STM32L1xx_HAL_Driver/Src/stm32l1xx_hal_rtc_ex.c ****   /* Process Locked */
 186:..//Source/stm/lib/STM32L1xx_HAL_Driver/Src/stm32l1xx_hal_rtc_ex.c ****   __HAL_LOCK(hrtc);
 115              		.loc 1 186 0
 116 0000 027F     		ldrb	r2, [r0, #28]	@ zero_extendqisi2
 117 0002 012A     		cmp	r2, #1
 118 0004 2ED0     		beq	.L10
 179:..//Source/stm/lib/STM32L1xx_HAL_Driver/Src/stm32l1xx_hal_rtc_ex.c ****   uint32_t tmpreg;
 119              		.loc 1 179 0 discriminator 2
 120 0006 10B4     		push	{r4}
 121              	.LCFI2:
 122              		.cfi_def_cfa_offset 4
 123              		.cfi_offset 4, -4
 124              		.loc 1 186 0 discriminator 2
 125 0008 0124     		movs	r4, #1
 126 000a 0477     		strb	r4, [r0, #28]
 187:..//Source/stm/lib/STM32L1xx_HAL_Driver/Src/stm32l1xx_hal_rtc_ex.c **** 
 188:..//Source/stm/lib/STM32L1xx_HAL_Driver/Src/stm32l1xx_hal_rtc_ex.c ****   hrtc->State = HAL_RTC_STATE_BUSY;
 127              		.loc 1 188 0 discriminator 2
 128 000c 0223     		movs	r3, #2
 129 000e 4377     		strb	r3, [r0, #29]
 189:..//Source/stm/lib/STM32L1xx_HAL_Driver/Src/stm32l1xx_hal_rtc_ex.c **** 
 190:..//Source/stm/lib/STM32L1xx_HAL_Driver/Src/stm32l1xx_hal_rtc_ex.c ****   /* Get the RTC_CR register and clear the bits to be configured */
 191:..//Source/stm/lib/STM32L1xx_HAL_Driver/Src/stm32l1xx_hal_rtc_ex.c ****   tmpreg = (uint32_t)(hrtc->Instance->CR & (uint32_t)~(RTC_CR_TSEDGE | RTC_CR_TSE));
 130              		.loc 1 191 0 discriminator 2
 131 0010 0268     		ldr	r2, [r0]
 132 0012 9368     		ldr	r3, [r2, #8]
 133 0014 23F40063 		bic	r3, r3, #2048
 134 0018 23F00803 		bic	r3, r3, #8
 135              	.LVL9:
 192:..//Source/stm/lib/STM32L1xx_HAL_Driver/Src/stm32l1xx_hal_rtc_ex.c **** 
 193:..//Source/stm/lib/STM32L1xx_HAL_Driver/Src/stm32l1xx_hal_rtc_ex.c ****   tmpreg |= TimeStampEdge;
 136              		.loc 1 193 0 discriminator 2
 137 001c 0B43     		orrs	r3, r3, r1
 138              	.LVL10:
 194:..//Source/stm/lib/STM32L1xx_HAL_Driver/Src/stm32l1xx_hal_rtc_ex.c **** 
 195:..//Source/stm/lib/STM32L1xx_HAL_Driver/Src/stm32l1xx_hal_rtc_ex.c ****   /* Disable the write protection for RTC registers */
 196:..//Source/stm/lib/STM32L1xx_HAL_Driver/Src/stm32l1xx_hal_rtc_ex.c ****   __HAL_RTC_WRITEPROTECTION_DISABLE(hrtc);
 139              		.loc 1 196 0 discriminator 2
 140 001e CA21     		movs	r1, #202
 141              	.LVL11:
 142 0020 5162     		str	r1, [r2, #36]
 143 0022 0268     		ldr	r2, [r0]
 144 0024 5321     		movs	r1, #83
 145 0026 5162     		str	r1, [r2, #36]
 197:..//Source/stm/lib/STM32L1xx_HAL_Driver/Src/stm32l1xx_hal_rtc_ex.c **** 
ARM GAS  /tmp/ccTaTHmG.s 			page 7


 198:..//Source/stm/lib/STM32L1xx_HAL_Driver/Src/stm32l1xx_hal_rtc_ex.c ****   /* Configure the Time Stamp TSEDGE and Enable bits */
 199:..//Source/stm/lib/STM32L1xx_HAL_Driver/Src/stm32l1xx_hal_rtc_ex.c ****   hrtc->Instance->CR = (uint32_t)tmpreg;
 146              		.loc 1 199 0 discriminator 2
 147 0028 0268     		ldr	r2, [r0]
 148 002a 9360     		str	r3, [r2, #8]
 200:..//Source/stm/lib/STM32L1xx_HAL_Driver/Src/stm32l1xx_hal_rtc_ex.c **** 
 201:..//Source/stm/lib/STM32L1xx_HAL_Driver/Src/stm32l1xx_hal_rtc_ex.c ****   __HAL_RTC_TIMESTAMP_ENABLE(hrtc);
 149              		.loc 1 201 0 discriminator 2
 150 002c 0268     		ldr	r2, [r0]
 151 002e 9368     		ldr	r3, [r2, #8]
 152              	.LVL12:
 153 0030 43F40063 		orr	r3, r3, #2048
 154 0034 9360     		str	r3, [r2, #8]
 202:..//Source/stm/lib/STM32L1xx_HAL_Driver/Src/stm32l1xx_hal_rtc_ex.c **** 
 203:..//Source/stm/lib/STM32L1xx_HAL_Driver/Src/stm32l1xx_hal_rtc_ex.c ****   /* Enable IT timestamp */
 204:..//Source/stm/lib/STM32L1xx_HAL_Driver/Src/stm32l1xx_hal_rtc_ex.c ****   __HAL_RTC_TIMESTAMP_ENABLE_IT(hrtc, RTC_IT_TS);
 155              		.loc 1 204 0 discriminator 2
 156 0036 0268     		ldr	r2, [r0]
 157 0038 9368     		ldr	r3, [r2, #8]
 158 003a 43F40043 		orr	r3, r3, #32768
 159 003e 9360     		str	r3, [r2, #8]
 205:..//Source/stm/lib/STM32L1xx_HAL_Driver/Src/stm32l1xx_hal_rtc_ex.c **** 
 206:..//Source/stm/lib/STM32L1xx_HAL_Driver/Src/stm32l1xx_hal_rtc_ex.c ****   /* RTC timestamp Interrupt Configuration: EXTI configuration */
 207:..//Source/stm/lib/STM32L1xx_HAL_Driver/Src/stm32l1xx_hal_rtc_ex.c ****   __HAL_RTC_TAMPER_TIMESTAMP_EXTI_ENABLE_IT();
 160              		.loc 1 207 0 discriminator 2
 161 0040 094B     		ldr	r3, .L15
 162 0042 1A68     		ldr	r2, [r3]
 163 0044 42F40022 		orr	r2, r2, #524288
 164 0048 1A60     		str	r2, [r3]
 208:..//Source/stm/lib/STM32L1xx_HAL_Driver/Src/stm32l1xx_hal_rtc_ex.c **** 
 209:..//Source/stm/lib/STM32L1xx_HAL_Driver/Src/stm32l1xx_hal_rtc_ex.c ****   __HAL_RTC_TAMPER_TIMESTAMP_EXTI_ENABLE_RISING_EDGE();
 165              		.loc 1 209 0 discriminator 2
 166 004a 9A68     		ldr	r2, [r3, #8]
 167 004c 42F40022 		orr	r2, r2, #524288
 168 0050 9A60     		str	r2, [r3, #8]
 210:..//Source/stm/lib/STM32L1xx_HAL_Driver/Src/stm32l1xx_hal_rtc_ex.c **** 
 211:..//Source/stm/lib/STM32L1xx_HAL_Driver/Src/stm32l1xx_hal_rtc_ex.c ****   /* Enable the write protection for RTC registers */
 212:..//Source/stm/lib/STM32L1xx_HAL_Driver/Src/stm32l1xx_hal_rtc_ex.c ****   __HAL_RTC_WRITEPROTECTION_ENABLE(hrtc);
 169              		.loc 1 212 0 discriminator 2
 170 0052 0368     		ldr	r3, [r0]
 171 0054 FF22     		movs	r2, #255
 172 0056 5A62     		str	r2, [r3, #36]
 213:..//Source/stm/lib/STM32L1xx_HAL_Driver/Src/stm32l1xx_hal_rtc_ex.c **** 
 214:..//Source/stm/lib/STM32L1xx_HAL_Driver/Src/stm32l1xx_hal_rtc_ex.c ****   hrtc->State = HAL_RTC_STATE_READY;
 173              		.loc 1 214 0 discriminator 2
 174 0058 4477     		strb	r4, [r0, #29]
 215:..//Source/stm/lib/STM32L1xx_HAL_Driver/Src/stm32l1xx_hal_rtc_ex.c **** 
 216:..//Source/stm/lib/STM32L1xx_HAL_Driver/Src/stm32l1xx_hal_rtc_ex.c ****   /* Process Unlocked */
 217:..//Source/stm/lib/STM32L1xx_HAL_Driver/Src/stm32l1xx_hal_rtc_ex.c ****   __HAL_UNLOCK(hrtc);
 175              		.loc 1 217 0 discriminator 2
 176 005a 0023     		movs	r3, #0
 177 005c 0377     		strb	r3, [r0, #28]
 218:..//Source/stm/lib/STM32L1xx_HAL_Driver/Src/stm32l1xx_hal_rtc_ex.c **** 
 219:..//Source/stm/lib/STM32L1xx_HAL_Driver/Src/stm32l1xx_hal_rtc_ex.c ****   return HAL_OK;
 178              		.loc 1 219 0 discriminator 2
 179 005e 1846     		mov	r0, r3
 180              	.LVL13:
ARM GAS  /tmp/ccTaTHmG.s 			page 8


 220:..//Source/stm/lib/STM32L1xx_HAL_Driver/Src/stm32l1xx_hal_rtc_ex.c **** }
 181              		.loc 1 220 0 discriminator 2
 182 0060 10BC     		pop	{r4}
 183              	.LCFI3:
 184              		.cfi_restore 4
 185              		.cfi_def_cfa_offset 0
 186 0062 7047     		bx	lr
 187              	.LVL14:
 188              	.L10:
 186:..//Source/stm/lib/STM32L1xx_HAL_Driver/Src/stm32l1xx_hal_rtc_ex.c **** 
 189              		.loc 1 186 0
 190 0064 0220     		movs	r0, #2
 191              	.LVL15:
 192 0066 7047     		bx	lr
 193              	.L16:
 194              		.align	2
 195              	.L15:
 196 0068 00040140 		.word	1073808384
 197              		.cfi_endproc
 198              	.LFE73:
 200              		.section	.text.HAL_RTCEx_DeactivateTimeStamp,"ax",%progbits
 201              		.align	1
 202              		.global	HAL_RTCEx_DeactivateTimeStamp
 203              		.syntax unified
 204              		.thumb
 205              		.thumb_func
 206              		.fpu softvfp
 208              	HAL_RTCEx_DeactivateTimeStamp:
 209              	.LFB74:
 221:..//Source/stm/lib/STM32L1xx_HAL_Driver/Src/stm32l1xx_hal_rtc_ex.c **** 
 222:..//Source/stm/lib/STM32L1xx_HAL_Driver/Src/stm32l1xx_hal_rtc_ex.c **** /**
 223:..//Source/stm/lib/STM32L1xx_HAL_Driver/Src/stm32l1xx_hal_rtc_ex.c ****   * @brief  Deactivate TimeStamp.
 224:..//Source/stm/lib/STM32L1xx_HAL_Driver/Src/stm32l1xx_hal_rtc_ex.c ****   * @param  hrtc RTC handle
 225:..//Source/stm/lib/STM32L1xx_HAL_Driver/Src/stm32l1xx_hal_rtc_ex.c ****   * @retval HAL status
 226:..//Source/stm/lib/STM32L1xx_HAL_Driver/Src/stm32l1xx_hal_rtc_ex.c ****   */
 227:..//Source/stm/lib/STM32L1xx_HAL_Driver/Src/stm32l1xx_hal_rtc_ex.c **** HAL_StatusTypeDef HAL_RTCEx_DeactivateTimeStamp(RTC_HandleTypeDef *hrtc)
 228:..//Source/stm/lib/STM32L1xx_HAL_Driver/Src/stm32l1xx_hal_rtc_ex.c **** {
 210              		.loc 1 228 0
 211              		.cfi_startproc
 212              		@ args = 0, pretend = 0, frame = 0
 213              		@ frame_needed = 0, uses_anonymous_args = 0
 214              		@ link register save eliminated.
 215              	.LVL16:
 229:..//Source/stm/lib/STM32L1xx_HAL_Driver/Src/stm32l1xx_hal_rtc_ex.c ****   uint32_t tmpreg;
 230:..//Source/stm/lib/STM32L1xx_HAL_Driver/Src/stm32l1xx_hal_rtc_ex.c **** 
 231:..//Source/stm/lib/STM32L1xx_HAL_Driver/Src/stm32l1xx_hal_rtc_ex.c ****   /* Process Locked */
 232:..//Source/stm/lib/STM32L1xx_HAL_Driver/Src/stm32l1xx_hal_rtc_ex.c ****   __HAL_LOCK(hrtc);
 216              		.loc 1 232 0
 217 0000 037F     		ldrb	r3, [r0, #28]	@ zero_extendqisi2
 218 0002 012B     		cmp	r3, #1
 219 0004 1DD0     		beq	.L19
 220              		.loc 1 232 0 is_stmt 0 discriminator 2
 221 0006 0122     		movs	r2, #1
 222 0008 0277     		strb	r2, [r0, #28]
 233:..//Source/stm/lib/STM32L1xx_HAL_Driver/Src/stm32l1xx_hal_rtc_ex.c **** 
 234:..//Source/stm/lib/STM32L1xx_HAL_Driver/Src/stm32l1xx_hal_rtc_ex.c ****   hrtc->State = HAL_RTC_STATE_BUSY;
 223              		.loc 1 234 0 is_stmt 1 discriminator 2
ARM GAS  /tmp/ccTaTHmG.s 			page 9


 224 000a 0223     		movs	r3, #2
 225 000c 4377     		strb	r3, [r0, #29]
 235:..//Source/stm/lib/STM32L1xx_HAL_Driver/Src/stm32l1xx_hal_rtc_ex.c **** 
 236:..//Source/stm/lib/STM32L1xx_HAL_Driver/Src/stm32l1xx_hal_rtc_ex.c ****   /* Disable the write protection for RTC registers */
 237:..//Source/stm/lib/STM32L1xx_HAL_Driver/Src/stm32l1xx_hal_rtc_ex.c ****   __HAL_RTC_WRITEPROTECTION_DISABLE(hrtc);
 226              		.loc 1 237 0 discriminator 2
 227 000e 0368     		ldr	r3, [r0]
 228 0010 CA21     		movs	r1, #202
 229 0012 5962     		str	r1, [r3, #36]
 230 0014 0368     		ldr	r3, [r0]
 231 0016 5321     		movs	r1, #83
 232 0018 5962     		str	r1, [r3, #36]
 238:..//Source/stm/lib/STM32L1xx_HAL_Driver/Src/stm32l1xx_hal_rtc_ex.c **** 
 239:..//Source/stm/lib/STM32L1xx_HAL_Driver/Src/stm32l1xx_hal_rtc_ex.c ****   /* In case of interrupt mode is used, the interrupt source must disabled */
 240:..//Source/stm/lib/STM32L1xx_HAL_Driver/Src/stm32l1xx_hal_rtc_ex.c ****   __HAL_RTC_TIMESTAMP_DISABLE_IT(hrtc, RTC_IT_TS);
 233              		.loc 1 240 0 discriminator 2
 234 001a 0168     		ldr	r1, [r0]
 235 001c 8B68     		ldr	r3, [r1, #8]
 236 001e 23F40043 		bic	r3, r3, #32768
 237 0022 8B60     		str	r3, [r1, #8]
 241:..//Source/stm/lib/STM32L1xx_HAL_Driver/Src/stm32l1xx_hal_rtc_ex.c **** 
 242:..//Source/stm/lib/STM32L1xx_HAL_Driver/Src/stm32l1xx_hal_rtc_ex.c ****   /* Get the RTC_CR register and clear the bits to be configured */
 243:..//Source/stm/lib/STM32L1xx_HAL_Driver/Src/stm32l1xx_hal_rtc_ex.c ****   tmpreg = (uint32_t)(hrtc->Instance->CR & (uint32_t)~(RTC_CR_TSEDGE | RTC_CR_TSE));
 238              		.loc 1 243 0 discriminator 2
 239 0024 0168     		ldr	r1, [r0]
 240 0026 8B68     		ldr	r3, [r1, #8]
 241 0028 23F40063 		bic	r3, r3, #2048
 242 002c 23F00803 		bic	r3, r3, #8
 243              	.LVL17:
 244:..//Source/stm/lib/STM32L1xx_HAL_Driver/Src/stm32l1xx_hal_rtc_ex.c **** 
 245:..//Source/stm/lib/STM32L1xx_HAL_Driver/Src/stm32l1xx_hal_rtc_ex.c ****   /* Configure the Time Stamp TSEDGE and Enable bits */
 246:..//Source/stm/lib/STM32L1xx_HAL_Driver/Src/stm32l1xx_hal_rtc_ex.c ****   hrtc->Instance->CR = (uint32_t)tmpreg;
 244              		.loc 1 246 0 discriminator 2
 245 0030 8B60     		str	r3, [r1, #8]
 247:..//Source/stm/lib/STM32L1xx_HAL_Driver/Src/stm32l1xx_hal_rtc_ex.c **** 
 248:..//Source/stm/lib/STM32L1xx_HAL_Driver/Src/stm32l1xx_hal_rtc_ex.c ****   /* Enable the write protection for RTC registers */
 249:..//Source/stm/lib/STM32L1xx_HAL_Driver/Src/stm32l1xx_hal_rtc_ex.c ****   __HAL_RTC_WRITEPROTECTION_ENABLE(hrtc);
 246              		.loc 1 249 0 discriminator 2
 247 0032 0368     		ldr	r3, [r0]
 248              	.LVL18:
 249 0034 FF21     		movs	r1, #255
 250              	.LVL19:
 251 0036 5962     		str	r1, [r3, #36]
 250:..//Source/stm/lib/STM32L1xx_HAL_Driver/Src/stm32l1xx_hal_rtc_ex.c **** 
 251:..//Source/stm/lib/STM32L1xx_HAL_Driver/Src/stm32l1xx_hal_rtc_ex.c ****   hrtc->State = HAL_RTC_STATE_READY;
 252              		.loc 1 251 0 discriminator 2
 253 0038 4277     		strb	r2, [r0, #29]
 252:..//Source/stm/lib/STM32L1xx_HAL_Driver/Src/stm32l1xx_hal_rtc_ex.c **** 
 253:..//Source/stm/lib/STM32L1xx_HAL_Driver/Src/stm32l1xx_hal_rtc_ex.c ****   /* Process Unlocked */
 254:..//Source/stm/lib/STM32L1xx_HAL_Driver/Src/stm32l1xx_hal_rtc_ex.c ****   __HAL_UNLOCK(hrtc);
 254              		.loc 1 254 0 discriminator 2
 255 003a 0023     		movs	r3, #0
 256 003c 0377     		strb	r3, [r0, #28]
 255:..//Source/stm/lib/STM32L1xx_HAL_Driver/Src/stm32l1xx_hal_rtc_ex.c **** 
 256:..//Source/stm/lib/STM32L1xx_HAL_Driver/Src/stm32l1xx_hal_rtc_ex.c ****   return HAL_OK;
 257              		.loc 1 256 0 discriminator 2
 258 003e 1846     		mov	r0, r3
ARM GAS  /tmp/ccTaTHmG.s 			page 10


 259              	.LVL20:
 260 0040 7047     		bx	lr
 261              	.LVL21:
 262              	.L19:
 232:..//Source/stm/lib/STM32L1xx_HAL_Driver/Src/stm32l1xx_hal_rtc_ex.c **** 
 263              		.loc 1 232 0
 264 0042 0220     		movs	r0, #2
 265              	.LVL22:
 257:..//Source/stm/lib/STM32L1xx_HAL_Driver/Src/stm32l1xx_hal_rtc_ex.c **** }
 266              		.loc 1 257 0
 267 0044 7047     		bx	lr
 268              		.cfi_endproc
 269              	.LFE74:
 271              		.section	.text.HAL_RTCEx_GetTimeStamp,"ax",%progbits
 272              		.align	1
 273              		.global	HAL_RTCEx_GetTimeStamp
 274              		.syntax unified
 275              		.thumb
 276              		.thumb_func
 277              		.fpu softvfp
 279              	HAL_RTCEx_GetTimeStamp:
 280              	.LFB75:
 258:..//Source/stm/lib/STM32L1xx_HAL_Driver/Src/stm32l1xx_hal_rtc_ex.c **** 
 259:..//Source/stm/lib/STM32L1xx_HAL_Driver/Src/stm32l1xx_hal_rtc_ex.c **** /**
 260:..//Source/stm/lib/STM32L1xx_HAL_Driver/Src/stm32l1xx_hal_rtc_ex.c ****   * @brief  Get the RTC TimeStamp value.
 261:..//Source/stm/lib/STM32L1xx_HAL_Driver/Src/stm32l1xx_hal_rtc_ex.c ****   * @param  hrtc RTC handle
 262:..//Source/stm/lib/STM32L1xx_HAL_Driver/Src/stm32l1xx_hal_rtc_ex.c ****   * @param  sTimeStamp Pointer to Time structure
 263:..//Source/stm/lib/STM32L1xx_HAL_Driver/Src/stm32l1xx_hal_rtc_ex.c ****   * @param  sTimeStampDate Pointer to Date structure
 264:..//Source/stm/lib/STM32L1xx_HAL_Driver/Src/stm32l1xx_hal_rtc_ex.c ****   * @param  Format specifies the format of the entered parameters.
 265:..//Source/stm/lib/STM32L1xx_HAL_Driver/Src/stm32l1xx_hal_rtc_ex.c ****   *          This parameter can be one of the following values:
 266:..//Source/stm/lib/STM32L1xx_HAL_Driver/Src/stm32l1xx_hal_rtc_ex.c ****   *             @arg RTC_FORMAT_BIN: Binary data format
 267:..//Source/stm/lib/STM32L1xx_HAL_Driver/Src/stm32l1xx_hal_rtc_ex.c ****   *             @arg RTC_FORMAT_BCD: BCD data format
 268:..//Source/stm/lib/STM32L1xx_HAL_Driver/Src/stm32l1xx_hal_rtc_ex.c ****   * @retval HAL status
 269:..//Source/stm/lib/STM32L1xx_HAL_Driver/Src/stm32l1xx_hal_rtc_ex.c ****   */
 270:..//Source/stm/lib/STM32L1xx_HAL_Driver/Src/stm32l1xx_hal_rtc_ex.c **** HAL_StatusTypeDef HAL_RTCEx_GetTimeStamp(RTC_HandleTypeDef *hrtc, RTC_TimeTypeDef *sTimeStamp, RTC_
 271:..//Source/stm/lib/STM32L1xx_HAL_Driver/Src/stm32l1xx_hal_rtc_ex.c **** {
 281              		.loc 1 271 0
 282              		.cfi_startproc
 283              		@ args = 0, pretend = 0, frame = 0
 284              		@ frame_needed = 0, uses_anonymous_args = 0
 285              	.LVL23:
 286 0000 F8B5     		push	{r3, r4, r5, r6, r7, lr}
 287              	.LCFI4:
 288              		.cfi_def_cfa_offset 24
 289              		.cfi_offset 3, -24
 290              		.cfi_offset 4, -20
 291              		.cfi_offset 5, -16
 292              		.cfi_offset 6, -12
 293              		.cfi_offset 7, -8
 294              		.cfi_offset 14, -4
 295 0002 0646     		mov	r6, r0
 296 0004 0C46     		mov	r4, r1
 297 0006 1546     		mov	r5, r2
 272:..//Source/stm/lib/STM32L1xx_HAL_Driver/Src/stm32l1xx_hal_rtc_ex.c ****   uint32_t tmptime, tmpdate;
 273:..//Source/stm/lib/STM32L1xx_HAL_Driver/Src/stm32l1xx_hal_rtc_ex.c **** 
 274:..//Source/stm/lib/STM32L1xx_HAL_Driver/Src/stm32l1xx_hal_rtc_ex.c ****   /* Check the parameters */
 275:..//Source/stm/lib/STM32L1xx_HAL_Driver/Src/stm32l1xx_hal_rtc_ex.c ****   assert_param(IS_RTC_FORMAT(Format));
ARM GAS  /tmp/ccTaTHmG.s 			page 11


 276:..//Source/stm/lib/STM32L1xx_HAL_Driver/Src/stm32l1xx_hal_rtc_ex.c **** 
 277:..//Source/stm/lib/STM32L1xx_HAL_Driver/Src/stm32l1xx_hal_rtc_ex.c ****   /* Get the TimeStamp time and date registers values */
 278:..//Source/stm/lib/STM32L1xx_HAL_Driver/Src/stm32l1xx_hal_rtc_ex.c ****   tmptime = (uint32_t)(hrtc->Instance->TSTR & RTC_TR_RESERVED_MASK);
 298              		.loc 1 278 0
 299 0008 0268     		ldr	r2, [r0]
 300              	.LVL24:
 301 000a 116B     		ldr	r1, [r2, #48]
 302              	.LVL25:
 303 000c 01F07F31 		and	r1, r1, #2139062143
 304 0010 21F0FE41 		bic	r1, r1, #2130706432
 305              	.LVL26:
 279:..//Source/stm/lib/STM32L1xx_HAL_Driver/Src/stm32l1xx_hal_rtc_ex.c ****   tmpdate = (uint32_t)(hrtc->Instance->TSDR & RTC_DR_RESERVED_MASK);
 306              		.loc 1 279 0
 307 0014 526B     		ldr	r2, [r2, #52]
 308 0016 22F07F42 		bic	r2, r2, #-16777216
 309 001a 22F0C002 		bic	r2, r2, #192
 310              	.LVL27:
 280:..//Source/stm/lib/STM32L1xx_HAL_Driver/Src/stm32l1xx_hal_rtc_ex.c **** 
 281:..//Source/stm/lib/STM32L1xx_HAL_Driver/Src/stm32l1xx_hal_rtc_ex.c ****   /* Fill the Time structure fields with the read parameters */
 282:..//Source/stm/lib/STM32L1xx_HAL_Driver/Src/stm32l1xx_hal_rtc_ex.c ****   sTimeStamp->Hours = (uint8_t)((tmptime & (RTC_TR_HT | RTC_TR_HU)) >> 16U);
 311              		.loc 1 282 0
 312 001e 080C     		lsrs	r0, r1, #16
 313              	.LVL28:
 314 0020 00F03F07 		and	r7, r0, #63
 315 0024 2770     		strb	r7, [r4]
 283:..//Source/stm/lib/STM32L1xx_HAL_Driver/Src/stm32l1xx_hal_rtc_ex.c ****   sTimeStamp->Minutes = (uint8_t)((tmptime & (RTC_TR_MNT | RTC_TR_MNU)) >> 8U);
 316              		.loc 1 283 0
 317 0026 C1F30627 		ubfx	r7, r1, #8, #7
 318 002a 6770     		strb	r7, [r4, #1]
 284:..//Source/stm/lib/STM32L1xx_HAL_Driver/Src/stm32l1xx_hal_rtc_ex.c ****   sTimeStamp->Seconds = (uint8_t)(tmptime & (RTC_TR_ST | RTC_TR_SU));
 319              		.loc 1 284 0
 320 002c A170     		strb	r1, [r4, #2]
 285:..//Source/stm/lib/STM32L1xx_HAL_Driver/Src/stm32l1xx_hal_rtc_ex.c ****   sTimeStamp->TimeFormat = (uint8_t)((tmptime & (RTC_TR_PM)) >> 16);
 321              		.loc 1 285 0
 322 002e 00F04000 		and	r0, r0, #64
 323 0032 E070     		strb	r0, [r4, #3]
 286:..//Source/stm/lib/STM32L1xx_HAL_Driver/Src/stm32l1xx_hal_rtc_ex.c **** #if defined(STM32L100xBA) || defined (STM32L151xBA) || defined (STM32L152xBA) || defined(STM32L100x
 287:..//Source/stm/lib/STM32L1xx_HAL_Driver/Src/stm32l1xx_hal_rtc_ex.c ****   sTimeStamp->SubSeconds = (uint32_t)((hrtc->Instance->TSSSR) & RTC_TSSSR_SS);
 324              		.loc 1 287 0
 325 0034 3168     		ldr	r1, [r6]
 326              	.LVL29:
 327 0036 896B     		ldr	r1, [r1, #56]
 328 0038 89B2     		uxth	r1, r1
 329 003a 6160     		str	r1, [r4, #4]
 288:..//Source/stm/lib/STM32L1xx_HAL_Driver/Src/stm32l1xx_hal_rtc_ex.c **** #endif /* STM32L100xBA || STM32L151xBA || STM32L152xBA || STM32L100xC || STM32L151xC || STM32L152xC
 289:..//Source/stm/lib/STM32L1xx_HAL_Driver/Src/stm32l1xx_hal_rtc_ex.c **** 
 290:..//Source/stm/lib/STM32L1xx_HAL_Driver/Src/stm32l1xx_hal_rtc_ex.c ****   /* Fill the Date structure fields with the read parameters */
 291:..//Source/stm/lib/STM32L1xx_HAL_Driver/Src/stm32l1xx_hal_rtc_ex.c ****   sTimeStampDate->Year = 0U;
 330              		.loc 1 291 0
 331 003c 0021     		movs	r1, #0
 332 003e E970     		strb	r1, [r5, #3]
 292:..//Source/stm/lib/STM32L1xx_HAL_Driver/Src/stm32l1xx_hal_rtc_ex.c ****   sTimeStampDate->Month = (uint8_t)((tmpdate & (RTC_DR_MT | RTC_DR_MU)) >> 8U);
 333              		.loc 1 292 0
 334 0040 C2F30421 		ubfx	r1, r2, #8, #5
 335 0044 6970     		strb	r1, [r5, #1]
 293:..//Source/stm/lib/STM32L1xx_HAL_Driver/Src/stm32l1xx_hal_rtc_ex.c ****   sTimeStampDate->Date = (uint8_t)(tmpdate & (RTC_DR_DT | RTC_DR_DU));
 336              		.loc 1 293 0
ARM GAS  /tmp/ccTaTHmG.s 			page 12


 337 0046 AA70     		strb	r2, [r5, #2]
 294:..//Source/stm/lib/STM32L1xx_HAL_Driver/Src/stm32l1xx_hal_rtc_ex.c ****   sTimeStampDate->WeekDay = (uint8_t)((tmpdate & (RTC_DR_WDU)) >> 13U);
 338              		.loc 1 294 0
 339 0048 C2F34232 		ubfx	r2, r2, #13, #3
 340              	.LVL30:
 341 004c 2A70     		strb	r2, [r5]
 295:..//Source/stm/lib/STM32L1xx_HAL_Driver/Src/stm32l1xx_hal_rtc_ex.c **** 
 296:..//Source/stm/lib/STM32L1xx_HAL_Driver/Src/stm32l1xx_hal_rtc_ex.c ****   /* Check the input parameters format */
 297:..//Source/stm/lib/STM32L1xx_HAL_Driver/Src/stm32l1xx_hal_rtc_ex.c ****   if (Format == RTC_FORMAT_BIN)
 342              		.loc 1 297 0
 343 004e 3BB1     		cbz	r3, .L23
 344              	.LVL31:
 345              	.L21:
 298:..//Source/stm/lib/STM32L1xx_HAL_Driver/Src/stm32l1xx_hal_rtc_ex.c ****   {
 299:..//Source/stm/lib/STM32L1xx_HAL_Driver/Src/stm32l1xx_hal_rtc_ex.c ****     /* Convert the TimeStamp structure parameters to Binary format */
 300:..//Source/stm/lib/STM32L1xx_HAL_Driver/Src/stm32l1xx_hal_rtc_ex.c ****     sTimeStamp->Hours = (uint8_t)RTC_Bcd2ToByte(sTimeStamp->Hours);
 301:..//Source/stm/lib/STM32L1xx_HAL_Driver/Src/stm32l1xx_hal_rtc_ex.c ****     sTimeStamp->Minutes = (uint8_t)RTC_Bcd2ToByte(sTimeStamp->Minutes);
 302:..//Source/stm/lib/STM32L1xx_HAL_Driver/Src/stm32l1xx_hal_rtc_ex.c ****     sTimeStamp->Seconds = (uint8_t)RTC_Bcd2ToByte(sTimeStamp->Seconds);
 303:..//Source/stm/lib/STM32L1xx_HAL_Driver/Src/stm32l1xx_hal_rtc_ex.c **** 
 304:..//Source/stm/lib/STM32L1xx_HAL_Driver/Src/stm32l1xx_hal_rtc_ex.c ****     /* Convert the DateTimeStamp structure parameters to Binary format */
 305:..//Source/stm/lib/STM32L1xx_HAL_Driver/Src/stm32l1xx_hal_rtc_ex.c ****     sTimeStampDate->Month = (uint8_t)RTC_Bcd2ToByte(sTimeStampDate->Month);
 306:..//Source/stm/lib/STM32L1xx_HAL_Driver/Src/stm32l1xx_hal_rtc_ex.c ****     sTimeStampDate->Date = (uint8_t)RTC_Bcd2ToByte(sTimeStampDate->Date);
 307:..//Source/stm/lib/STM32L1xx_HAL_Driver/Src/stm32l1xx_hal_rtc_ex.c ****     sTimeStampDate->WeekDay = (uint8_t)RTC_Bcd2ToByte(sTimeStampDate->WeekDay);
 308:..//Source/stm/lib/STM32L1xx_HAL_Driver/Src/stm32l1xx_hal_rtc_ex.c ****   }
 309:..//Source/stm/lib/STM32L1xx_HAL_Driver/Src/stm32l1xx_hal_rtc_ex.c **** 
 310:..//Source/stm/lib/STM32L1xx_HAL_Driver/Src/stm32l1xx_hal_rtc_ex.c ****   /* Clear the TIMESTAMP Flag */
 311:..//Source/stm/lib/STM32L1xx_HAL_Driver/Src/stm32l1xx_hal_rtc_ex.c ****   __HAL_RTC_TIMESTAMP_CLEAR_FLAG(hrtc, RTC_FLAG_TSF);
 346              		.loc 1 311 0
 347 0050 3268     		ldr	r2, [r6]
 348 0052 D368     		ldr	r3, [r2, #12]
 349 0054 DBB2     		uxtb	r3, r3
 350 0056 63F40863 		orn	r3, r3, #2176
 351 005a D360     		str	r3, [r2, #12]
 312:..//Source/stm/lib/STM32L1xx_HAL_Driver/Src/stm32l1xx_hal_rtc_ex.c **** 
 313:..//Source/stm/lib/STM32L1xx_HAL_Driver/Src/stm32l1xx_hal_rtc_ex.c ****   return HAL_OK;
 314:..//Source/stm/lib/STM32L1xx_HAL_Driver/Src/stm32l1xx_hal_rtc_ex.c **** }
 352              		.loc 1 314 0
 353 005c 0020     		movs	r0, #0
 354 005e F8BD     		pop	{r3, r4, r5, r6, r7, pc}
 355              	.LVL32:
 356              	.L23:
 300:..//Source/stm/lib/STM32L1xx_HAL_Driver/Src/stm32l1xx_hal_rtc_ex.c ****     sTimeStamp->Minutes = (uint8_t)RTC_Bcd2ToByte(sTimeStamp->Minutes);
 357              		.loc 1 300 0
 358 0060 2078     		ldrb	r0, [r4]	@ zero_extendqisi2
 359 0062 FFF7FEFF 		bl	RTC_Bcd2ToByte
 360              	.LVL33:
 361 0066 2070     		strb	r0, [r4]
 301:..//Source/stm/lib/STM32L1xx_HAL_Driver/Src/stm32l1xx_hal_rtc_ex.c ****     sTimeStamp->Seconds = (uint8_t)RTC_Bcd2ToByte(sTimeStamp->Seconds);
 362              		.loc 1 301 0
 363 0068 6078     		ldrb	r0, [r4, #1]	@ zero_extendqisi2
 364 006a FFF7FEFF 		bl	RTC_Bcd2ToByte
 365              	.LVL34:
 366 006e 6070     		strb	r0, [r4, #1]
 302:..//Source/stm/lib/STM32L1xx_HAL_Driver/Src/stm32l1xx_hal_rtc_ex.c **** 
 367              		.loc 1 302 0
 368 0070 A078     		ldrb	r0, [r4, #2]	@ zero_extendqisi2
 369 0072 FFF7FEFF 		bl	RTC_Bcd2ToByte
ARM GAS  /tmp/ccTaTHmG.s 			page 13


 370              	.LVL35:
 371 0076 A070     		strb	r0, [r4, #2]
 305:..//Source/stm/lib/STM32L1xx_HAL_Driver/Src/stm32l1xx_hal_rtc_ex.c ****     sTimeStampDate->Date = (uint8_t)RTC_Bcd2ToByte(sTimeStampDate->Date);
 372              		.loc 1 305 0
 373 0078 6878     		ldrb	r0, [r5, #1]	@ zero_extendqisi2
 374 007a FFF7FEFF 		bl	RTC_Bcd2ToByte
 375              	.LVL36:
 376 007e 6870     		strb	r0, [r5, #1]
 306:..//Source/stm/lib/STM32L1xx_HAL_Driver/Src/stm32l1xx_hal_rtc_ex.c ****     sTimeStampDate->WeekDay = (uint8_t)RTC_Bcd2ToByte(sTimeStampDate->WeekDay);
 377              		.loc 1 306 0
 378 0080 A878     		ldrb	r0, [r5, #2]	@ zero_extendqisi2
 379 0082 FFF7FEFF 		bl	RTC_Bcd2ToByte
 380              	.LVL37:
 381 0086 A870     		strb	r0, [r5, #2]
 307:..//Source/stm/lib/STM32L1xx_HAL_Driver/Src/stm32l1xx_hal_rtc_ex.c ****   }
 382              		.loc 1 307 0
 383 0088 2878     		ldrb	r0, [r5]	@ zero_extendqisi2
 384 008a FFF7FEFF 		bl	RTC_Bcd2ToByte
 385              	.LVL38:
 386 008e 2870     		strb	r0, [r5]
 387 0090 DEE7     		b	.L21
 388              		.cfi_endproc
 389              	.LFE75:
 391              		.section	.text.HAL_RTCEx_SetTamper,"ax",%progbits
 392              		.align	1
 393              		.global	HAL_RTCEx_SetTamper
 394              		.syntax unified
 395              		.thumb
 396              		.thumb_func
 397              		.fpu softvfp
 399              	HAL_RTCEx_SetTamper:
 400              	.LFB76:
 315:..//Source/stm/lib/STM32L1xx_HAL_Driver/Src/stm32l1xx_hal_rtc_ex.c **** 
 316:..//Source/stm/lib/STM32L1xx_HAL_Driver/Src/stm32l1xx_hal_rtc_ex.c **** /**
 317:..//Source/stm/lib/STM32L1xx_HAL_Driver/Src/stm32l1xx_hal_rtc_ex.c ****   * @brief  Set Tamper
 318:..//Source/stm/lib/STM32L1xx_HAL_Driver/Src/stm32l1xx_hal_rtc_ex.c ****   * @note   By calling this API we disable the tamper interrupt for all tampers.
 319:..//Source/stm/lib/STM32L1xx_HAL_Driver/Src/stm32l1xx_hal_rtc_ex.c ****   * @param  hrtc RTC handle
 320:..//Source/stm/lib/STM32L1xx_HAL_Driver/Src/stm32l1xx_hal_rtc_ex.c ****   * @param  sTamper Pointer to Tamper Structure.
 321:..//Source/stm/lib/STM32L1xx_HAL_Driver/Src/stm32l1xx_hal_rtc_ex.c ****   * @retval HAL status
 322:..//Source/stm/lib/STM32L1xx_HAL_Driver/Src/stm32l1xx_hal_rtc_ex.c ****   */
 323:..//Source/stm/lib/STM32L1xx_HAL_Driver/Src/stm32l1xx_hal_rtc_ex.c **** HAL_StatusTypeDef HAL_RTCEx_SetTamper(RTC_HandleTypeDef *hrtc, RTC_TamperTypeDef *sTamper)
 324:..//Source/stm/lib/STM32L1xx_HAL_Driver/Src/stm32l1xx_hal_rtc_ex.c **** {
 401              		.loc 1 324 0
 402              		.cfi_startproc
 403              		@ args = 0, pretend = 0, frame = 0
 404              		@ frame_needed = 0, uses_anonymous_args = 0
 405              		@ link register save eliminated.
 406              	.LVL39:
 325:..//Source/stm/lib/STM32L1xx_HAL_Driver/Src/stm32l1xx_hal_rtc_ex.c ****   uint32_t tmpreg;
 326:..//Source/stm/lib/STM32L1xx_HAL_Driver/Src/stm32l1xx_hal_rtc_ex.c **** 
 327:..//Source/stm/lib/STM32L1xx_HAL_Driver/Src/stm32l1xx_hal_rtc_ex.c ****   /* Check the parameters */
 328:..//Source/stm/lib/STM32L1xx_HAL_Driver/Src/stm32l1xx_hal_rtc_ex.c ****   assert_param(IS_RTC_TAMPER(sTamper->Tamper));
 329:..//Source/stm/lib/STM32L1xx_HAL_Driver/Src/stm32l1xx_hal_rtc_ex.c ****   assert_param(IS_RTC_TAMPER_TRIGGER(sTamper->Trigger));
 330:..//Source/stm/lib/STM32L1xx_HAL_Driver/Src/stm32l1xx_hal_rtc_ex.c **** #if defined(STM32L100xBA) || defined (STM32L151xBA) || defined (STM32L152xBA) || defined(STM32L100x
 331:..//Source/stm/lib/STM32L1xx_HAL_Driver/Src/stm32l1xx_hal_rtc_ex.c ****   assert_param(IS_RTC_TAMPER_FILTER(sTamper->Filter));
 332:..//Source/stm/lib/STM32L1xx_HAL_Driver/Src/stm32l1xx_hal_rtc_ex.c ****   assert_param(IS_RTC_TAMPER_SAMPLING_FREQ(sTamper->SamplingFrequency));
 333:..//Source/stm/lib/STM32L1xx_HAL_Driver/Src/stm32l1xx_hal_rtc_ex.c ****   assert_param(IS_RTC_TAMPER_PRECHARGE_DURATION(sTamper->PrechargeDuration));
ARM GAS  /tmp/ccTaTHmG.s 			page 14


 334:..//Source/stm/lib/STM32L1xx_HAL_Driver/Src/stm32l1xx_hal_rtc_ex.c ****   assert_param(IS_RTC_TAMPER_PULLUP_STATE(sTamper->TamperPullUp));
 335:..//Source/stm/lib/STM32L1xx_HAL_Driver/Src/stm32l1xx_hal_rtc_ex.c ****   assert_param(IS_RTC_TAMPER_TIMESTAMPONTAMPER_DETECTION(sTamper->TimeStampOnTamperDetection));
 336:..//Source/stm/lib/STM32L1xx_HAL_Driver/Src/stm32l1xx_hal_rtc_ex.c **** #endif /* STM32L100xBA || STM32L151xBA || STM32L152xBA || STM32L100xC || STM32L151xC || STM32L152xC
 337:..//Source/stm/lib/STM32L1xx_HAL_Driver/Src/stm32l1xx_hal_rtc_ex.c **** 
 338:..//Source/stm/lib/STM32L1xx_HAL_Driver/Src/stm32l1xx_hal_rtc_ex.c ****   /* Process Locked */
 339:..//Source/stm/lib/STM32L1xx_HAL_Driver/Src/stm32l1xx_hal_rtc_ex.c ****   __HAL_LOCK(hrtc);
 407              		.loc 1 339 0
 408 0000 037F     		ldrb	r3, [r0, #28]	@ zero_extendqisi2
 409 0002 012B     		cmp	r3, #1
 410 0004 2ED0     		beq	.L28
 324:..//Source/stm/lib/STM32L1xx_HAL_Driver/Src/stm32l1xx_hal_rtc_ex.c ****   uint32_t tmpreg;
 411              		.loc 1 324 0 discriminator 2
 412 0006 10B4     		push	{r4}
 413              	.LCFI5:
 414              		.cfi_def_cfa_offset 4
 415              		.cfi_offset 4, -4
 416              		.loc 1 339 0 discriminator 2
 417 0008 0123     		movs	r3, #1
 418 000a 0377     		strb	r3, [r0, #28]
 340:..//Source/stm/lib/STM32L1xx_HAL_Driver/Src/stm32l1xx_hal_rtc_ex.c **** 
 341:..//Source/stm/lib/STM32L1xx_HAL_Driver/Src/stm32l1xx_hal_rtc_ex.c ****   hrtc->State = HAL_RTC_STATE_BUSY;
 419              		.loc 1 341 0 discriminator 2
 420 000c 0223     		movs	r3, #2
 421 000e 4377     		strb	r3, [r0, #29]
 342:..//Source/stm/lib/STM32L1xx_HAL_Driver/Src/stm32l1xx_hal_rtc_ex.c **** 
 343:..//Source/stm/lib/STM32L1xx_HAL_Driver/Src/stm32l1xx_hal_rtc_ex.c **** #if defined(STM32L100xBA) || defined (STM32L151xBA) || defined (STM32L152xBA) || defined(STM32L100x
 344:..//Source/stm/lib/STM32L1xx_HAL_Driver/Src/stm32l1xx_hal_rtc_ex.c ****   if ((sTamper->Trigger == RTC_TAMPERTRIGGER_RISINGEDGE))
 422              		.loc 1 344 0 discriminator 2
 423 0010 4B68     		ldr	r3, [r1, #4]
 424 0012 1BBB     		cbnz	r3, .L26
 345:..//Source/stm/lib/STM32L1xx_HAL_Driver/Src/stm32l1xx_hal_rtc_ex.c ****   {
 346:..//Source/stm/lib/STM32L1xx_HAL_Driver/Src/stm32l1xx_hal_rtc_ex.c ****     /* Configure the RTC_TAFCR register */
 347:..//Source/stm/lib/STM32L1xx_HAL_Driver/Src/stm32l1xx_hal_rtc_ex.c ****     sTamper->Trigger = RTC_TAMPERTRIGGER_RISINGEDGE;
 425              		.loc 1 347 0
 426 0014 4B60     		str	r3, [r1, #4]
 427              	.L27:
 348:..//Source/stm/lib/STM32L1xx_HAL_Driver/Src/stm32l1xx_hal_rtc_ex.c ****   }
 349:..//Source/stm/lib/STM32L1xx_HAL_Driver/Src/stm32l1xx_hal_rtc_ex.c ****   else
 350:..//Source/stm/lib/STM32L1xx_HAL_Driver/Src/stm32l1xx_hal_rtc_ex.c ****   {
 351:..//Source/stm/lib/STM32L1xx_HAL_Driver/Src/stm32l1xx_hal_rtc_ex.c ****     sTamper->Trigger = (uint32_t)(sTamper->Tamper << 1);
 352:..//Source/stm/lib/STM32L1xx_HAL_Driver/Src/stm32l1xx_hal_rtc_ex.c ****   }
 353:..//Source/stm/lib/STM32L1xx_HAL_Driver/Src/stm32l1xx_hal_rtc_ex.c **** 
 354:..//Source/stm/lib/STM32L1xx_HAL_Driver/Src/stm32l1xx_hal_rtc_ex.c ****   tmpreg = ((uint32_t)sTamper->Tamper | (uint32_t)sTamper->Trigger | (uint32_t)sTamper->Filter | \
 428              		.loc 1 354 0
 429 0016 0A68     		ldr	r2, [r1]
 430 0018 4B68     		ldr	r3, [r1, #4]
 431 001a 1343     		orrs	r3, r3, r2
 432 001c 8C68     		ldr	r4, [r1, #8]
 433 001e 2343     		orrs	r3, r3, r4
 355:..//Source/stm/lib/STM32L1xx_HAL_Driver/Src/stm32l1xx_hal_rtc_ex.c ****             (uint32_t)sTamper->SamplingFrequency | (uint32_t)sTamper->PrechargeDuration | \
 434              		.loc 1 355 0
 435 0020 CC68     		ldr	r4, [r1, #12]
 354:..//Source/stm/lib/STM32L1xx_HAL_Driver/Src/stm32l1xx_hal_rtc_ex.c ****             (uint32_t)sTamper->SamplingFrequency | (uint32_t)sTamper->PrechargeDuration | \
 436              		.loc 1 354 0
 437 0022 2343     		orrs	r3, r3, r4
 438              		.loc 1 355 0
 439 0024 0C69     		ldr	r4, [r1, #16]
ARM GAS  /tmp/ccTaTHmG.s 			page 15


 440 0026 2343     		orrs	r3, r3, r4
 356:..//Source/stm/lib/STM32L1xx_HAL_Driver/Src/stm32l1xx_hal_rtc_ex.c ****             (uint32_t)sTamper->TamperPullUp | sTamper->TimeStampOnTamperDetection);
 441              		.loc 1 356 0
 442 0028 4C69     		ldr	r4, [r1, #20]
 355:..//Source/stm/lib/STM32L1xx_HAL_Driver/Src/stm32l1xx_hal_rtc_ex.c ****             (uint32_t)sTamper->SamplingFrequency | (uint32_t)sTamper->PrechargeDuration | \
 443              		.loc 1 355 0
 444 002a 2343     		orrs	r3, r3, r4
 445              		.loc 1 356 0
 446 002c 8969     		ldr	r1, [r1, #24]
 447              	.LVL40:
 354:..//Source/stm/lib/STM32L1xx_HAL_Driver/Src/stm32l1xx_hal_rtc_ex.c ****             (uint32_t)sTamper->SamplingFrequency | (uint32_t)sTamper->PrechargeDuration | \
 448              		.loc 1 354 0
 449 002e 0B43     		orrs	r3, r3, r1
 450              	.LVL41:
 357:..//Source/stm/lib/STM32L1xx_HAL_Driver/Src/stm32l1xx_hal_rtc_ex.c **** 
 358:..//Source/stm/lib/STM32L1xx_HAL_Driver/Src/stm32l1xx_hal_rtc_ex.c ****   hrtc->Instance->TAFCR &= (uint32_t)~((uint32_t)sTamper->Tamper | (uint32_t)(sTamper->Tamper << 1)
 451              		.loc 1 358 0
 452 0030 0468     		ldr	r4, [r0]
 453 0032 216C     		ldr	r1, [r4, #64]
 454 0034 42EA4202 		orr	r2, r2, r2, lsl #1
 359:..//Source/stm/lib/STM32L1xx_HAL_Driver/Src/stm32l1xx_hal_rtc_ex.c ****                                        (uint32_t)RTC_TAFCR_TAMPFREQ | (uint32_t)RTC_TAFCR_TAMPFLT |
 360:..//Source/stm/lib/STM32L1xx_HAL_Driver/Src/stm32l1xx_hal_rtc_ex.c ****                                        (uint32_t)RTC_TAFCR_TAMPPUDIS | (uint32_t)RTC_TAFCR_TAMPIE);
 455              		.loc 1 360 0
 456 0038 42F47F42 		orr	r2, r2, #65280
 457 003c 42F08402 		orr	r2, r2, #132
 358:..//Source/stm/lib/STM32L1xx_HAL_Driver/Src/stm32l1xx_hal_rtc_ex.c ****                                        (uint32_t)RTC_TAFCR_TAMPFREQ | (uint32_t)RTC_TAFCR_TAMPFLT |
 458              		.loc 1 358 0
 459 0040 21EA0202 		bic	r2, r1, r2
 460 0044 2264     		str	r2, [r4, #64]
 361:..//Source/stm/lib/STM32L1xx_HAL_Driver/Src/stm32l1xx_hal_rtc_ex.c **** #else
 362:..//Source/stm/lib/STM32L1xx_HAL_Driver/Src/stm32l1xx_hal_rtc_ex.c ****   tmpreg = ((uint32_t)sTamper->Tamper | (uint32_t)(sTamper->Trigger));
 363:..//Source/stm/lib/STM32L1xx_HAL_Driver/Src/stm32l1xx_hal_rtc_ex.c **** 
 364:..//Source/stm/lib/STM32L1xx_HAL_Driver/Src/stm32l1xx_hal_rtc_ex.c ****   hrtc->Instance->TAFCR &= (uint32_t)~((uint32_t)RTC_TAFCR_TAMP1E | (uint32_t)RTC_TAFCR_TAMP1TRG);
 365:..//Source/stm/lib/STM32L1xx_HAL_Driver/Src/stm32l1xx_hal_rtc_ex.c **** 
 366:..//Source/stm/lib/STM32L1xx_HAL_Driver/Src/stm32l1xx_hal_rtc_ex.c **** #endif /* STM32L100xBA || STM32L151xBA || STM32L152xBA || STM32L100xC || STM32L151xC || STM32L152xC
 367:..//Source/stm/lib/STM32L1xx_HAL_Driver/Src/stm32l1xx_hal_rtc_ex.c ****   hrtc->Instance->TAFCR |= tmpreg;
 461              		.loc 1 367 0
 462 0046 0268     		ldr	r2, [r0]
 463 0048 116C     		ldr	r1, [r2, #64]
 464 004a 0B43     		orrs	r3, r3, r1
 465              	.LVL42:
 466 004c 1364     		str	r3, [r2, #64]
 368:..//Source/stm/lib/STM32L1xx_HAL_Driver/Src/stm32l1xx_hal_rtc_ex.c **** 
 369:..//Source/stm/lib/STM32L1xx_HAL_Driver/Src/stm32l1xx_hal_rtc_ex.c ****   hrtc->State = HAL_RTC_STATE_READY;
 467              		.loc 1 369 0
 468 004e 0123     		movs	r3, #1
 469 0050 4377     		strb	r3, [r0, #29]
 370:..//Source/stm/lib/STM32L1xx_HAL_Driver/Src/stm32l1xx_hal_rtc_ex.c **** 
 371:..//Source/stm/lib/STM32L1xx_HAL_Driver/Src/stm32l1xx_hal_rtc_ex.c ****   /* Process Unlocked */
 372:..//Source/stm/lib/STM32L1xx_HAL_Driver/Src/stm32l1xx_hal_rtc_ex.c ****   __HAL_UNLOCK(hrtc);
 470              		.loc 1 372 0
 471 0052 0023     		movs	r3, #0
 472 0054 0377     		strb	r3, [r0, #28]
 373:..//Source/stm/lib/STM32L1xx_HAL_Driver/Src/stm32l1xx_hal_rtc_ex.c **** 
 374:..//Source/stm/lib/STM32L1xx_HAL_Driver/Src/stm32l1xx_hal_rtc_ex.c ****   return HAL_OK;
 473              		.loc 1 374 0
 474 0056 1846     		mov	r0, r3
ARM GAS  /tmp/ccTaTHmG.s 			page 16


 475              	.LVL43:
 375:..//Source/stm/lib/STM32L1xx_HAL_Driver/Src/stm32l1xx_hal_rtc_ex.c **** }
 476              		.loc 1 375 0
 477 0058 10BC     		pop	{r4}
 478              	.LCFI6:
 479              		.cfi_remember_state
 480              		.cfi_restore 4
 481              		.cfi_def_cfa_offset 0
 482 005a 7047     		bx	lr
 483              	.LVL44:
 484              	.L26:
 485              	.LCFI7:
 486              		.cfi_restore_state
 351:..//Source/stm/lib/STM32L1xx_HAL_Driver/Src/stm32l1xx_hal_rtc_ex.c ****   }
 487              		.loc 1 351 0
 488 005c 0B68     		ldr	r3, [r1]
 489 005e 5B00     		lsls	r3, r3, #1
 490 0060 4B60     		str	r3, [r1, #4]
 491 0062 D8E7     		b	.L27
 492              	.L28:
 493              	.LCFI8:
 494              		.cfi_def_cfa_offset 0
 495              		.cfi_restore 4
 339:..//Source/stm/lib/STM32L1xx_HAL_Driver/Src/stm32l1xx_hal_rtc_ex.c **** 
 496              		.loc 1 339 0
 497 0064 0220     		movs	r0, #2
 498              	.LVL45:
 499 0066 7047     		bx	lr
 500              		.cfi_endproc
 501              	.LFE76:
 503              		.section	.text.HAL_RTCEx_SetTamper_IT,"ax",%progbits
 504              		.align	1
 505              		.global	HAL_RTCEx_SetTamper_IT
 506              		.syntax unified
 507              		.thumb
 508              		.thumb_func
 509              		.fpu softvfp
 511              	HAL_RTCEx_SetTamper_IT:
 512              	.LFB77:
 376:..//Source/stm/lib/STM32L1xx_HAL_Driver/Src/stm32l1xx_hal_rtc_ex.c **** 
 377:..//Source/stm/lib/STM32L1xx_HAL_Driver/Src/stm32l1xx_hal_rtc_ex.c **** /**
 378:..//Source/stm/lib/STM32L1xx_HAL_Driver/Src/stm32l1xx_hal_rtc_ex.c ****   * @brief  Set Tamper with interrupt.
 379:..//Source/stm/lib/STM32L1xx_HAL_Driver/Src/stm32l1xx_hal_rtc_ex.c ****   * @note   By calling this API we force the tamper interrupt for all tampers.
 380:..//Source/stm/lib/STM32L1xx_HAL_Driver/Src/stm32l1xx_hal_rtc_ex.c ****   * @param  hrtc RTC handle
 381:..//Source/stm/lib/STM32L1xx_HAL_Driver/Src/stm32l1xx_hal_rtc_ex.c ****   * @param  sTamper Pointer to RTC Tamper.
 382:..//Source/stm/lib/STM32L1xx_HAL_Driver/Src/stm32l1xx_hal_rtc_ex.c ****   * @retval HAL status
 383:..//Source/stm/lib/STM32L1xx_HAL_Driver/Src/stm32l1xx_hal_rtc_ex.c ****   */
 384:..//Source/stm/lib/STM32L1xx_HAL_Driver/Src/stm32l1xx_hal_rtc_ex.c **** HAL_StatusTypeDef HAL_RTCEx_SetTamper_IT(RTC_HandleTypeDef *hrtc, RTC_TamperTypeDef *sTamper)
 385:..//Source/stm/lib/STM32L1xx_HAL_Driver/Src/stm32l1xx_hal_rtc_ex.c **** {
 513              		.loc 1 385 0
 514              		.cfi_startproc
 515              		@ args = 0, pretend = 0, frame = 0
 516              		@ frame_needed = 0, uses_anonymous_args = 0
 517              		@ link register save eliminated.
 518              	.LVL46:
 386:..//Source/stm/lib/STM32L1xx_HAL_Driver/Src/stm32l1xx_hal_rtc_ex.c ****   uint32_t tmpreg;
 387:..//Source/stm/lib/STM32L1xx_HAL_Driver/Src/stm32l1xx_hal_rtc_ex.c **** 
ARM GAS  /tmp/ccTaTHmG.s 			page 17


 388:..//Source/stm/lib/STM32L1xx_HAL_Driver/Src/stm32l1xx_hal_rtc_ex.c ****   /* Check the parameters */
 389:..//Source/stm/lib/STM32L1xx_HAL_Driver/Src/stm32l1xx_hal_rtc_ex.c ****   assert_param(IS_RTC_TAMPER(sTamper->Tamper));
 390:..//Source/stm/lib/STM32L1xx_HAL_Driver/Src/stm32l1xx_hal_rtc_ex.c ****   assert_param(IS_RTC_TAMPER_TRIGGER(sTamper->Trigger));
 391:..//Source/stm/lib/STM32L1xx_HAL_Driver/Src/stm32l1xx_hal_rtc_ex.c **** #if defined(STM32L100xBA) || defined (STM32L151xBA) || defined (STM32L152xBA) || defined(STM32L100x
 392:..//Source/stm/lib/STM32L1xx_HAL_Driver/Src/stm32l1xx_hal_rtc_ex.c ****   assert_param(IS_RTC_TAMPER_FILTER(sTamper->Filter));
 393:..//Source/stm/lib/STM32L1xx_HAL_Driver/Src/stm32l1xx_hal_rtc_ex.c ****   assert_param(IS_RTC_TAMPER_SAMPLING_FREQ(sTamper->SamplingFrequency));
 394:..//Source/stm/lib/STM32L1xx_HAL_Driver/Src/stm32l1xx_hal_rtc_ex.c ****   assert_param(IS_RTC_TAMPER_PRECHARGE_DURATION(sTamper->PrechargeDuration));
 395:..//Source/stm/lib/STM32L1xx_HAL_Driver/Src/stm32l1xx_hal_rtc_ex.c ****   assert_param(IS_RTC_TAMPER_PULLUP_STATE(sTamper->TamperPullUp));
 396:..//Source/stm/lib/STM32L1xx_HAL_Driver/Src/stm32l1xx_hal_rtc_ex.c ****   assert_param(IS_RTC_TAMPER_TIMESTAMPONTAMPER_DETECTION(sTamper->TimeStampOnTamperDetection));
 397:..//Source/stm/lib/STM32L1xx_HAL_Driver/Src/stm32l1xx_hal_rtc_ex.c **** #endif /* STM32L100xBA || STM32L151xBA || STM32L152xBA || STM32L100xC || STM32L151xC || STM32L152xC
 398:..//Source/stm/lib/STM32L1xx_HAL_Driver/Src/stm32l1xx_hal_rtc_ex.c **** 
 399:..//Source/stm/lib/STM32L1xx_HAL_Driver/Src/stm32l1xx_hal_rtc_ex.c ****   /* Process Locked */
 400:..//Source/stm/lib/STM32L1xx_HAL_Driver/Src/stm32l1xx_hal_rtc_ex.c ****   __HAL_LOCK(hrtc);
 519              		.loc 1 400 0
 520 0000 037F     		ldrb	r3, [r0, #28]	@ zero_extendqisi2
 521 0002 012B     		cmp	r3, #1
 522 0004 3DD0     		beq	.L37
 385:..//Source/stm/lib/STM32L1xx_HAL_Driver/Src/stm32l1xx_hal_rtc_ex.c ****   uint32_t tmpreg;
 523              		.loc 1 385 0 discriminator 2
 524 0006 10B4     		push	{r4}
 525              	.LCFI9:
 526              		.cfi_def_cfa_offset 4
 527              		.cfi_offset 4, -4
 528              		.loc 1 400 0 discriminator 2
 529 0008 0123     		movs	r3, #1
 530 000a 0377     		strb	r3, [r0, #28]
 401:..//Source/stm/lib/STM32L1xx_HAL_Driver/Src/stm32l1xx_hal_rtc_ex.c **** 
 402:..//Source/stm/lib/STM32L1xx_HAL_Driver/Src/stm32l1xx_hal_rtc_ex.c ****   hrtc->State = HAL_RTC_STATE_BUSY;
 531              		.loc 1 402 0 discriminator 2
 532 000c 0223     		movs	r3, #2
 533 000e 4377     		strb	r3, [r0, #29]
 403:..//Source/stm/lib/STM32L1xx_HAL_Driver/Src/stm32l1xx_hal_rtc_ex.c **** 
 404:..//Source/stm/lib/STM32L1xx_HAL_Driver/Src/stm32l1xx_hal_rtc_ex.c **** #if defined(STM32L100xBA) || defined (STM32L151xBA) || defined (STM32L152xBA) || defined(STM32L100x
 405:..//Source/stm/lib/STM32L1xx_HAL_Driver/Src/stm32l1xx_hal_rtc_ex.c ****   /* Configure the tamper trigger */
 406:..//Source/stm/lib/STM32L1xx_HAL_Driver/Src/stm32l1xx_hal_rtc_ex.c ****   if ((sTamper->Trigger == RTC_TAMPERTRIGGER_RISINGEDGE))
 534              		.loc 1 406 0 discriminator 2
 535 0010 4B68     		ldr	r3, [r1, #4]
 536 0012 002B     		cmp	r3, #0
 537 0014 31D1     		bne	.L35
 407:..//Source/stm/lib/STM32L1xx_HAL_Driver/Src/stm32l1xx_hal_rtc_ex.c ****   {
 408:..//Source/stm/lib/STM32L1xx_HAL_Driver/Src/stm32l1xx_hal_rtc_ex.c ****     sTamper->Trigger = RTC_TAMPERTRIGGER_RISINGEDGE;
 538              		.loc 1 408 0
 539 0016 4B60     		str	r3, [r1, #4]
 540              	.L36:
 409:..//Source/stm/lib/STM32L1xx_HAL_Driver/Src/stm32l1xx_hal_rtc_ex.c ****   }
 410:..//Source/stm/lib/STM32L1xx_HAL_Driver/Src/stm32l1xx_hal_rtc_ex.c ****   else
 411:..//Source/stm/lib/STM32L1xx_HAL_Driver/Src/stm32l1xx_hal_rtc_ex.c ****   {
 412:..//Source/stm/lib/STM32L1xx_HAL_Driver/Src/stm32l1xx_hal_rtc_ex.c ****     sTamper->Trigger = (uint32_t)(sTamper->Tamper << 1);
 413:..//Source/stm/lib/STM32L1xx_HAL_Driver/Src/stm32l1xx_hal_rtc_ex.c ****   }
 414:..//Source/stm/lib/STM32L1xx_HAL_Driver/Src/stm32l1xx_hal_rtc_ex.c **** 
 415:..//Source/stm/lib/STM32L1xx_HAL_Driver/Src/stm32l1xx_hal_rtc_ex.c ****   tmpreg = ((uint32_t)sTamper->Tamper | (uint32_t)sTamper->Trigger | (uint32_t)sTamper->Filter | \
 541              		.loc 1 415 0
 542 0018 0A68     		ldr	r2, [r1]
 543 001a 4B68     		ldr	r3, [r1, #4]
 544 001c 1343     		orrs	r3, r3, r2
 545 001e 8C68     		ldr	r4, [r1, #8]
 546 0020 2343     		orrs	r3, r3, r4
ARM GAS  /tmp/ccTaTHmG.s 			page 18


 416:..//Source/stm/lib/STM32L1xx_HAL_Driver/Src/stm32l1xx_hal_rtc_ex.c ****             (uint32_t)sTamper->SamplingFrequency | (uint32_t)sTamper->PrechargeDuration | \
 547              		.loc 1 416 0
 548 0022 CC68     		ldr	r4, [r1, #12]
 415:..//Source/stm/lib/STM32L1xx_HAL_Driver/Src/stm32l1xx_hal_rtc_ex.c ****             (uint32_t)sTamper->SamplingFrequency | (uint32_t)sTamper->PrechargeDuration | \
 549              		.loc 1 415 0
 550 0024 2343     		orrs	r3, r3, r4
 551              		.loc 1 416 0
 552 0026 0C69     		ldr	r4, [r1, #16]
 553 0028 2343     		orrs	r3, r3, r4
 417:..//Source/stm/lib/STM32L1xx_HAL_Driver/Src/stm32l1xx_hal_rtc_ex.c ****             (uint32_t)sTamper->TamperPullUp | sTamper->TimeStampOnTamperDetection);
 554              		.loc 1 417 0
 555 002a 4C69     		ldr	r4, [r1, #20]
 416:..//Source/stm/lib/STM32L1xx_HAL_Driver/Src/stm32l1xx_hal_rtc_ex.c ****             (uint32_t)sTamper->SamplingFrequency | (uint32_t)sTamper->PrechargeDuration | \
 556              		.loc 1 416 0
 557 002c 2343     		orrs	r3, r3, r4
 558              		.loc 1 417 0
 559 002e 8969     		ldr	r1, [r1, #24]
 560              	.LVL47:
 415:..//Source/stm/lib/STM32L1xx_HAL_Driver/Src/stm32l1xx_hal_rtc_ex.c ****             (uint32_t)sTamper->SamplingFrequency | (uint32_t)sTamper->PrechargeDuration | \
 561              		.loc 1 415 0
 562 0030 0B43     		orrs	r3, r3, r1
 563              	.LVL48:
 418:..//Source/stm/lib/STM32L1xx_HAL_Driver/Src/stm32l1xx_hal_rtc_ex.c **** 
 419:..//Source/stm/lib/STM32L1xx_HAL_Driver/Src/stm32l1xx_hal_rtc_ex.c ****   hrtc->Instance->TAFCR &= (uint32_t)~((uint32_t)sTamper->Tamper | (uint32_t)(sTamper->Tamper << 1)
 564              		.loc 1 419 0
 565 0032 0468     		ldr	r4, [r0]
 566 0034 216C     		ldr	r1, [r4, #64]
 567 0036 42EA4202 		orr	r2, r2, r2, lsl #1
 420:..//Source/stm/lib/STM32L1xx_HAL_Driver/Src/stm32l1xx_hal_rtc_ex.c ****                                        (uint32_t)RTC_TAFCR_TAMPFREQ | (uint32_t)RTC_TAFCR_TAMPFLT |
 568              		.loc 1 420 0
 569 003a 42F47F42 		orr	r2, r2, #65280
 570 003e 42F08002 		orr	r2, r2, #128
 419:..//Source/stm/lib/STM32L1xx_HAL_Driver/Src/stm32l1xx_hal_rtc_ex.c ****                                        (uint32_t)RTC_TAFCR_TAMPFREQ | (uint32_t)RTC_TAFCR_TAMPFLT |
 571              		.loc 1 419 0
 572 0042 21EA0202 		bic	r2, r1, r2
 573 0046 2264     		str	r2, [r4, #64]
 421:..//Source/stm/lib/STM32L1xx_HAL_Driver/Src/stm32l1xx_hal_rtc_ex.c ****                                        (uint32_t)RTC_TAFCR_TAMPPUDIS);
 422:..//Source/stm/lib/STM32L1xx_HAL_Driver/Src/stm32l1xx_hal_rtc_ex.c **** #else
 423:..//Source/stm/lib/STM32L1xx_HAL_Driver/Src/stm32l1xx_hal_rtc_ex.c ****   tmpreg = ((uint32_t)sTamper->Tamper | (uint32_t)sTamper->Trigger);
 424:..//Source/stm/lib/STM32L1xx_HAL_Driver/Src/stm32l1xx_hal_rtc_ex.c **** 
 425:..//Source/stm/lib/STM32L1xx_HAL_Driver/Src/stm32l1xx_hal_rtc_ex.c ****   hrtc->Instance->TAFCR &= (uint32_t)~((uint32_t)RTC_TAFCR_TAMP1E | (uint32_t)RTC_TAFCR_TAMP1TRG | 
 426:..//Source/stm/lib/STM32L1xx_HAL_Driver/Src/stm32l1xx_hal_rtc_ex.c **** #endif /* STM32L100xBA || STM32L151xBA || STM32L152xBA || STM32L100xC || STM32L151xC || STM32L152xC
 427:..//Source/stm/lib/STM32L1xx_HAL_Driver/Src/stm32l1xx_hal_rtc_ex.c ****   hrtc->Instance->TAFCR |= tmpreg;
 574              		.loc 1 427 0
 575 0048 0268     		ldr	r2, [r0]
 576 004a 116C     		ldr	r1, [r2, #64]
 577 004c 0B43     		orrs	r3, r3, r1
 578              	.LVL49:
 579 004e 1364     		str	r3, [r2, #64]
 428:..//Source/stm/lib/STM32L1xx_HAL_Driver/Src/stm32l1xx_hal_rtc_ex.c **** 
 429:..//Source/stm/lib/STM32L1xx_HAL_Driver/Src/stm32l1xx_hal_rtc_ex.c ****   /* Configure the Tamper Interrupt in the RTC_TAFCR */
 430:..//Source/stm/lib/STM32L1xx_HAL_Driver/Src/stm32l1xx_hal_rtc_ex.c ****   hrtc->Instance->TAFCR |= (uint32_t)RTC_TAFCR_TAMPIE;
 580              		.loc 1 430 0
 581 0050 0268     		ldr	r2, [r0]
 582 0052 136C     		ldr	r3, [r2, #64]
 583 0054 43F00403 		orr	r3, r3, #4
 584 0058 1364     		str	r3, [r2, #64]
ARM GAS  /tmp/ccTaTHmG.s 			page 19


 431:..//Source/stm/lib/STM32L1xx_HAL_Driver/Src/stm32l1xx_hal_rtc_ex.c **** 
 432:..//Source/stm/lib/STM32L1xx_HAL_Driver/Src/stm32l1xx_hal_rtc_ex.c ****   /* RTC Tamper Interrupt Configuration: EXTI configuration */
 433:..//Source/stm/lib/STM32L1xx_HAL_Driver/Src/stm32l1xx_hal_rtc_ex.c ****   __HAL_RTC_TAMPER_TIMESTAMP_EXTI_ENABLE_IT();
 585              		.loc 1 433 0
 586 005a 0B4B     		ldr	r3, .L42
 587 005c 1A68     		ldr	r2, [r3]
 588 005e 42F40022 		orr	r2, r2, #524288
 589 0062 1A60     		str	r2, [r3]
 434:..//Source/stm/lib/STM32L1xx_HAL_Driver/Src/stm32l1xx_hal_rtc_ex.c **** 
 435:..//Source/stm/lib/STM32L1xx_HAL_Driver/Src/stm32l1xx_hal_rtc_ex.c ****   __HAL_RTC_TAMPER_TIMESTAMP_EXTI_ENABLE_RISING_EDGE();
 590              		.loc 1 435 0
 591 0064 9A68     		ldr	r2, [r3, #8]
 592 0066 42F40022 		orr	r2, r2, #524288
 593 006a 9A60     		str	r2, [r3, #8]
 436:..//Source/stm/lib/STM32L1xx_HAL_Driver/Src/stm32l1xx_hal_rtc_ex.c **** 
 437:..//Source/stm/lib/STM32L1xx_HAL_Driver/Src/stm32l1xx_hal_rtc_ex.c ****   hrtc->State = HAL_RTC_STATE_READY;
 594              		.loc 1 437 0
 595 006c 0123     		movs	r3, #1
 596 006e 4377     		strb	r3, [r0, #29]
 438:..//Source/stm/lib/STM32L1xx_HAL_Driver/Src/stm32l1xx_hal_rtc_ex.c **** 
 439:..//Source/stm/lib/STM32L1xx_HAL_Driver/Src/stm32l1xx_hal_rtc_ex.c ****   /* Process Unlocked */
 440:..//Source/stm/lib/STM32L1xx_HAL_Driver/Src/stm32l1xx_hal_rtc_ex.c ****   __HAL_UNLOCK(hrtc);
 597              		.loc 1 440 0
 598 0070 0023     		movs	r3, #0
 599 0072 0377     		strb	r3, [r0, #28]
 441:..//Source/stm/lib/STM32L1xx_HAL_Driver/Src/stm32l1xx_hal_rtc_ex.c **** 
 442:..//Source/stm/lib/STM32L1xx_HAL_Driver/Src/stm32l1xx_hal_rtc_ex.c ****   return HAL_OK;
 600              		.loc 1 442 0
 601 0074 1846     		mov	r0, r3
 602              	.LVL50:
 443:..//Source/stm/lib/STM32L1xx_HAL_Driver/Src/stm32l1xx_hal_rtc_ex.c **** }
 603              		.loc 1 443 0
 604 0076 10BC     		pop	{r4}
 605              	.LCFI10:
 606              		.cfi_remember_state
 607              		.cfi_restore 4
 608              		.cfi_def_cfa_offset 0
 609 0078 7047     		bx	lr
 610              	.LVL51:
 611              	.L35:
 612              	.LCFI11:
 613              		.cfi_restore_state
 412:..//Source/stm/lib/STM32L1xx_HAL_Driver/Src/stm32l1xx_hal_rtc_ex.c ****   }
 614              		.loc 1 412 0
 615 007a 0B68     		ldr	r3, [r1]
 616 007c 5B00     		lsls	r3, r3, #1
 617 007e 4B60     		str	r3, [r1, #4]
 618 0080 CAE7     		b	.L36
 619              	.L37:
 620              	.LCFI12:
 621              		.cfi_def_cfa_offset 0
 622              		.cfi_restore 4
 400:..//Source/stm/lib/STM32L1xx_HAL_Driver/Src/stm32l1xx_hal_rtc_ex.c **** 
 623              		.loc 1 400 0
 624 0082 0220     		movs	r0, #2
 625              	.LVL52:
 626 0084 7047     		bx	lr
ARM GAS  /tmp/ccTaTHmG.s 			page 20


 627              	.L43:
 628 0086 00BF     		.align	2
 629              	.L42:
 630 0088 00040140 		.word	1073808384
 631              		.cfi_endproc
 632              	.LFE77:
 634              		.section	.text.HAL_RTCEx_DeactivateTamper,"ax",%progbits
 635              		.align	1
 636              		.global	HAL_RTCEx_DeactivateTamper
 637              		.syntax unified
 638              		.thumb
 639              		.thumb_func
 640              		.fpu softvfp
 642              	HAL_RTCEx_DeactivateTamper:
 643              	.LFB78:
 444:..//Source/stm/lib/STM32L1xx_HAL_Driver/Src/stm32l1xx_hal_rtc_ex.c **** 
 445:..//Source/stm/lib/STM32L1xx_HAL_Driver/Src/stm32l1xx_hal_rtc_ex.c **** /**
 446:..//Source/stm/lib/STM32L1xx_HAL_Driver/Src/stm32l1xx_hal_rtc_ex.c ****   * @brief  Deactivate Tamper.
 447:..//Source/stm/lib/STM32L1xx_HAL_Driver/Src/stm32l1xx_hal_rtc_ex.c ****   * @param  hrtc RTC handle
 448:..//Source/stm/lib/STM32L1xx_HAL_Driver/Src/stm32l1xx_hal_rtc_ex.c ****   * @param  Tamper Selected tamper pin.
 449:..//Source/stm/lib/STM32L1xx_HAL_Driver/Src/stm32l1xx_hal_rtc_ex.c ****   *          This parameter can be a value of @ref RTCEx_Tamper_Pins_Definitions
 450:..//Source/stm/lib/STM32L1xx_HAL_Driver/Src/stm32l1xx_hal_rtc_ex.c ****   * @retval HAL status
 451:..//Source/stm/lib/STM32L1xx_HAL_Driver/Src/stm32l1xx_hal_rtc_ex.c ****   */
 452:..//Source/stm/lib/STM32L1xx_HAL_Driver/Src/stm32l1xx_hal_rtc_ex.c **** HAL_StatusTypeDef HAL_RTCEx_DeactivateTamper(RTC_HandleTypeDef *hrtc, uint32_t Tamper)
 453:..//Source/stm/lib/STM32L1xx_HAL_Driver/Src/stm32l1xx_hal_rtc_ex.c **** {
 644              		.loc 1 453 0
 645              		.cfi_startproc
 646              		@ args = 0, pretend = 0, frame = 0
 647              		@ frame_needed = 0, uses_anonymous_args = 0
 648              		@ link register save eliminated.
 649              	.LVL53:
 454:..//Source/stm/lib/STM32L1xx_HAL_Driver/Src/stm32l1xx_hal_rtc_ex.c ****   assert_param(IS_RTC_TAMPER(Tamper));
 455:..//Source/stm/lib/STM32L1xx_HAL_Driver/Src/stm32l1xx_hal_rtc_ex.c **** 
 456:..//Source/stm/lib/STM32L1xx_HAL_Driver/Src/stm32l1xx_hal_rtc_ex.c ****   /* Process Locked */
 457:..//Source/stm/lib/STM32L1xx_HAL_Driver/Src/stm32l1xx_hal_rtc_ex.c ****   __HAL_LOCK(hrtc);
 650              		.loc 1 457 0
 651 0000 037F     		ldrb	r3, [r0, #28]	@ zero_extendqisi2
 652 0002 012B     		cmp	r3, #1
 653 0004 0FD0     		beq	.L46
 453:..//Source/stm/lib/STM32L1xx_HAL_Driver/Src/stm32l1xx_hal_rtc_ex.c ****   assert_param(IS_RTC_TAMPER(Tamper));
 654              		.loc 1 453 0 discriminator 2
 655 0006 10B4     		push	{r4}
 656              	.LCFI13:
 657              		.cfi_def_cfa_offset 4
 658              		.cfi_offset 4, -4
 659              		.loc 1 457 0 discriminator 2
 660 0008 0122     		movs	r2, #1
 661 000a 0277     		strb	r2, [r0, #28]
 458:..//Source/stm/lib/STM32L1xx_HAL_Driver/Src/stm32l1xx_hal_rtc_ex.c **** 
 459:..//Source/stm/lib/STM32L1xx_HAL_Driver/Src/stm32l1xx_hal_rtc_ex.c ****   hrtc->State = HAL_RTC_STATE_BUSY;
 662              		.loc 1 459 0 discriminator 2
 663 000c 0223     		movs	r3, #2
 664 000e 4377     		strb	r3, [r0, #29]
 460:..//Source/stm/lib/STM32L1xx_HAL_Driver/Src/stm32l1xx_hal_rtc_ex.c **** 
 461:..//Source/stm/lib/STM32L1xx_HAL_Driver/Src/stm32l1xx_hal_rtc_ex.c ****   /* Disable the selected Tamper pin */
 462:..//Source/stm/lib/STM32L1xx_HAL_Driver/Src/stm32l1xx_hal_rtc_ex.c ****   hrtc->Instance->TAFCR &= (uint32_t)~Tamper;
 665              		.loc 1 462 0 discriminator 2
ARM GAS  /tmp/ccTaTHmG.s 			page 21


 666 0010 0468     		ldr	r4, [r0]
 667 0012 236C     		ldr	r3, [r4, #64]
 668 0014 23EA0101 		bic	r1, r3, r1
 669              	.LVL54:
 670 0018 2164     		str	r1, [r4, #64]
 463:..//Source/stm/lib/STM32L1xx_HAL_Driver/Src/stm32l1xx_hal_rtc_ex.c **** 
 464:..//Source/stm/lib/STM32L1xx_HAL_Driver/Src/stm32l1xx_hal_rtc_ex.c ****   hrtc->State = HAL_RTC_STATE_READY;
 671              		.loc 1 464 0 discriminator 2
 672 001a 4277     		strb	r2, [r0, #29]
 465:..//Source/stm/lib/STM32L1xx_HAL_Driver/Src/stm32l1xx_hal_rtc_ex.c **** 
 466:..//Source/stm/lib/STM32L1xx_HAL_Driver/Src/stm32l1xx_hal_rtc_ex.c ****   /* Process Unlocked */
 467:..//Source/stm/lib/STM32L1xx_HAL_Driver/Src/stm32l1xx_hal_rtc_ex.c ****   __HAL_UNLOCK(hrtc);
 673              		.loc 1 467 0 discriminator 2
 674 001c 0023     		movs	r3, #0
 675 001e 0377     		strb	r3, [r0, #28]
 468:..//Source/stm/lib/STM32L1xx_HAL_Driver/Src/stm32l1xx_hal_rtc_ex.c **** 
 469:..//Source/stm/lib/STM32L1xx_HAL_Driver/Src/stm32l1xx_hal_rtc_ex.c ****   return HAL_OK;
 676              		.loc 1 469 0 discriminator 2
 677 0020 1846     		mov	r0, r3
 678              	.LVL55:
 470:..//Source/stm/lib/STM32L1xx_HAL_Driver/Src/stm32l1xx_hal_rtc_ex.c **** }
 679              		.loc 1 470 0 discriminator 2
 680 0022 10BC     		pop	{r4}
 681              	.LCFI14:
 682              		.cfi_restore 4
 683              		.cfi_def_cfa_offset 0
 684 0024 7047     		bx	lr
 685              	.LVL56:
 686              	.L46:
 457:..//Source/stm/lib/STM32L1xx_HAL_Driver/Src/stm32l1xx_hal_rtc_ex.c **** 
 687              		.loc 1 457 0
 688 0026 0220     		movs	r0, #2
 689              	.LVL57:
 690 0028 7047     		bx	lr
 691              		.cfi_endproc
 692              	.LFE78:
 694              		.section	.text.HAL_RTCEx_TimeStampEventCallback,"ax",%progbits
 695              		.align	1
 696              		.weak	HAL_RTCEx_TimeStampEventCallback
 697              		.syntax unified
 698              		.thumb
 699              		.thumb_func
 700              		.fpu softvfp
 702              	HAL_RTCEx_TimeStampEventCallback:
 703              	.LFB80:
 471:..//Source/stm/lib/STM32L1xx_HAL_Driver/Src/stm32l1xx_hal_rtc_ex.c **** 
 472:..//Source/stm/lib/STM32L1xx_HAL_Driver/Src/stm32l1xx_hal_rtc_ex.c **** /**
 473:..//Source/stm/lib/STM32L1xx_HAL_Driver/Src/stm32l1xx_hal_rtc_ex.c ****   * @brief  Handle TimeStamp interrupt request.
 474:..//Source/stm/lib/STM32L1xx_HAL_Driver/Src/stm32l1xx_hal_rtc_ex.c ****   * @param  hrtc RTC handle
 475:..//Source/stm/lib/STM32L1xx_HAL_Driver/Src/stm32l1xx_hal_rtc_ex.c ****   * @retval None
 476:..//Source/stm/lib/STM32L1xx_HAL_Driver/Src/stm32l1xx_hal_rtc_ex.c ****   */
 477:..//Source/stm/lib/STM32L1xx_HAL_Driver/Src/stm32l1xx_hal_rtc_ex.c **** void HAL_RTCEx_TamperTimeStampIRQHandler(RTC_HandleTypeDef *hrtc)
 478:..//Source/stm/lib/STM32L1xx_HAL_Driver/Src/stm32l1xx_hal_rtc_ex.c **** {
 479:..//Source/stm/lib/STM32L1xx_HAL_Driver/Src/stm32l1xx_hal_rtc_ex.c ****   /* Get the TimeStamp interrupt source enable status */
 480:..//Source/stm/lib/STM32L1xx_HAL_Driver/Src/stm32l1xx_hal_rtc_ex.c ****   if (__HAL_RTC_TIMESTAMP_GET_IT_SOURCE(hrtc, RTC_IT_TS) != 0U)
 481:..//Source/stm/lib/STM32L1xx_HAL_Driver/Src/stm32l1xx_hal_rtc_ex.c ****   {
 482:..//Source/stm/lib/STM32L1xx_HAL_Driver/Src/stm32l1xx_hal_rtc_ex.c ****     /* Get the pending status of the TIMESTAMP Interrupt */
ARM GAS  /tmp/ccTaTHmG.s 			page 22


 483:..//Source/stm/lib/STM32L1xx_HAL_Driver/Src/stm32l1xx_hal_rtc_ex.c ****     if (__HAL_RTC_TIMESTAMP_GET_FLAG(hrtc, RTC_FLAG_TSF) != 0U)
 484:..//Source/stm/lib/STM32L1xx_HAL_Driver/Src/stm32l1xx_hal_rtc_ex.c ****     {
 485:..//Source/stm/lib/STM32L1xx_HAL_Driver/Src/stm32l1xx_hal_rtc_ex.c ****       /* TIMESTAMP callback */
 486:..//Source/stm/lib/STM32L1xx_HAL_Driver/Src/stm32l1xx_hal_rtc_ex.c **** #if (USE_HAL_RTC_REGISTER_CALLBACKS == 1)
 487:..//Source/stm/lib/STM32L1xx_HAL_Driver/Src/stm32l1xx_hal_rtc_ex.c ****       hrtc->TimeStampEventCallback(hrtc);
 488:..//Source/stm/lib/STM32L1xx_HAL_Driver/Src/stm32l1xx_hal_rtc_ex.c **** #else
 489:..//Source/stm/lib/STM32L1xx_HAL_Driver/Src/stm32l1xx_hal_rtc_ex.c ****       HAL_RTCEx_TimeStampEventCallback(hrtc);
 490:..//Source/stm/lib/STM32L1xx_HAL_Driver/Src/stm32l1xx_hal_rtc_ex.c **** #endif /* USE_HAL_RTC_REGISTER_CALLBACKS */
 491:..//Source/stm/lib/STM32L1xx_HAL_Driver/Src/stm32l1xx_hal_rtc_ex.c **** 
 492:..//Source/stm/lib/STM32L1xx_HAL_Driver/Src/stm32l1xx_hal_rtc_ex.c ****       /* Clear the TIMESTAMP interrupt pending bit */
 493:..//Source/stm/lib/STM32L1xx_HAL_Driver/Src/stm32l1xx_hal_rtc_ex.c ****       __HAL_RTC_TIMESTAMP_CLEAR_FLAG(hrtc, RTC_FLAG_TSF);
 494:..//Source/stm/lib/STM32L1xx_HAL_Driver/Src/stm32l1xx_hal_rtc_ex.c ****     }
 495:..//Source/stm/lib/STM32L1xx_HAL_Driver/Src/stm32l1xx_hal_rtc_ex.c ****   }
 496:..//Source/stm/lib/STM32L1xx_HAL_Driver/Src/stm32l1xx_hal_rtc_ex.c **** 
 497:..//Source/stm/lib/STM32L1xx_HAL_Driver/Src/stm32l1xx_hal_rtc_ex.c ****   /* Get the Tamper1 interrupts source enable status */
 498:..//Source/stm/lib/STM32L1xx_HAL_Driver/Src/stm32l1xx_hal_rtc_ex.c ****   if (__HAL_RTC_TAMPER_GET_IT_SOURCE(hrtc, RTC_IT_TAMP | RTC_IT_TAMP1) != 0U)
 499:..//Source/stm/lib/STM32L1xx_HAL_Driver/Src/stm32l1xx_hal_rtc_ex.c ****   {
 500:..//Source/stm/lib/STM32L1xx_HAL_Driver/Src/stm32l1xx_hal_rtc_ex.c ****     /* Get the pending status of the Tamper1 Interrupt */
 501:..//Source/stm/lib/STM32L1xx_HAL_Driver/Src/stm32l1xx_hal_rtc_ex.c ****     if (__HAL_RTC_TAMPER_GET_FLAG(hrtc, RTC_FLAG_TAMP1F) != 0U)
 502:..//Source/stm/lib/STM32L1xx_HAL_Driver/Src/stm32l1xx_hal_rtc_ex.c ****     {
 503:..//Source/stm/lib/STM32L1xx_HAL_Driver/Src/stm32l1xx_hal_rtc_ex.c ****       /* Tamper1 callback */
 504:..//Source/stm/lib/STM32L1xx_HAL_Driver/Src/stm32l1xx_hal_rtc_ex.c **** #if (USE_HAL_RTC_REGISTER_CALLBACKS == 1)
 505:..//Source/stm/lib/STM32L1xx_HAL_Driver/Src/stm32l1xx_hal_rtc_ex.c ****       hrtc->Tamper1EventCallback(hrtc);
 506:..//Source/stm/lib/STM32L1xx_HAL_Driver/Src/stm32l1xx_hal_rtc_ex.c **** #else
 507:..//Source/stm/lib/STM32L1xx_HAL_Driver/Src/stm32l1xx_hal_rtc_ex.c ****       HAL_RTCEx_Tamper1EventCallback(hrtc);
 508:..//Source/stm/lib/STM32L1xx_HAL_Driver/Src/stm32l1xx_hal_rtc_ex.c **** #endif /* USE_HAL_RTC_REGISTER_CALLBACKS */
 509:..//Source/stm/lib/STM32L1xx_HAL_Driver/Src/stm32l1xx_hal_rtc_ex.c **** 
 510:..//Source/stm/lib/STM32L1xx_HAL_Driver/Src/stm32l1xx_hal_rtc_ex.c ****       /* Clear the Tamper1 interrupt pending bit */
 511:..//Source/stm/lib/STM32L1xx_HAL_Driver/Src/stm32l1xx_hal_rtc_ex.c ****       __HAL_RTC_TAMPER_CLEAR_FLAG(hrtc, RTC_FLAG_TAMP1F);
 512:..//Source/stm/lib/STM32L1xx_HAL_Driver/Src/stm32l1xx_hal_rtc_ex.c ****     }
 513:..//Source/stm/lib/STM32L1xx_HAL_Driver/Src/stm32l1xx_hal_rtc_ex.c ****   }
 514:..//Source/stm/lib/STM32L1xx_HAL_Driver/Src/stm32l1xx_hal_rtc_ex.c **** 
 515:..//Source/stm/lib/STM32L1xx_HAL_Driver/Src/stm32l1xx_hal_rtc_ex.c **** #if defined(STM32L100xBA) || defined (STM32L151xBA) || defined (STM32L152xBA) || defined(STM32L100x
 516:..//Source/stm/lib/STM32L1xx_HAL_Driver/Src/stm32l1xx_hal_rtc_ex.c ****   /* Get the Tamper2 interrupts source enable status */
 517:..//Source/stm/lib/STM32L1xx_HAL_Driver/Src/stm32l1xx_hal_rtc_ex.c ****   if (__HAL_RTC_TAMPER_GET_IT_SOURCE(hrtc, RTC_IT_TAMP | RTC_IT_TAMP2) != 0U)
 518:..//Source/stm/lib/STM32L1xx_HAL_Driver/Src/stm32l1xx_hal_rtc_ex.c ****   {
 519:..//Source/stm/lib/STM32L1xx_HAL_Driver/Src/stm32l1xx_hal_rtc_ex.c ****     /* Get the pending status of the Tamper2 Interrupt */
 520:..//Source/stm/lib/STM32L1xx_HAL_Driver/Src/stm32l1xx_hal_rtc_ex.c ****     if (__HAL_RTC_TAMPER_GET_FLAG(hrtc, RTC_FLAG_TAMP2F) != 0U)
 521:..//Source/stm/lib/STM32L1xx_HAL_Driver/Src/stm32l1xx_hal_rtc_ex.c ****     {
 522:..//Source/stm/lib/STM32L1xx_HAL_Driver/Src/stm32l1xx_hal_rtc_ex.c ****       /* Tamper2 callback */
 523:..//Source/stm/lib/STM32L1xx_HAL_Driver/Src/stm32l1xx_hal_rtc_ex.c **** #if (USE_HAL_RTC_REGISTER_CALLBACKS == 1)
 524:..//Source/stm/lib/STM32L1xx_HAL_Driver/Src/stm32l1xx_hal_rtc_ex.c ****       hrtc->Tamper2EventCallback(hrtc);
 525:..//Source/stm/lib/STM32L1xx_HAL_Driver/Src/stm32l1xx_hal_rtc_ex.c **** #else
 526:..//Source/stm/lib/STM32L1xx_HAL_Driver/Src/stm32l1xx_hal_rtc_ex.c ****       HAL_RTCEx_Tamper2EventCallback(hrtc);
 527:..//Source/stm/lib/STM32L1xx_HAL_Driver/Src/stm32l1xx_hal_rtc_ex.c **** #endif /* USE_HAL_RTC_REGISTER_CALLBACKS */
 528:..//Source/stm/lib/STM32L1xx_HAL_Driver/Src/stm32l1xx_hal_rtc_ex.c **** 
 529:..//Source/stm/lib/STM32L1xx_HAL_Driver/Src/stm32l1xx_hal_rtc_ex.c ****       /* Clear the Tamper2 interrupt pending bit */
 530:..//Source/stm/lib/STM32L1xx_HAL_Driver/Src/stm32l1xx_hal_rtc_ex.c ****       __HAL_RTC_TAMPER_CLEAR_FLAG(hrtc, RTC_FLAG_TAMP2F);
 531:..//Source/stm/lib/STM32L1xx_HAL_Driver/Src/stm32l1xx_hal_rtc_ex.c ****     }
 532:..//Source/stm/lib/STM32L1xx_HAL_Driver/Src/stm32l1xx_hal_rtc_ex.c ****   }
 533:..//Source/stm/lib/STM32L1xx_HAL_Driver/Src/stm32l1xx_hal_rtc_ex.c **** 
 534:..//Source/stm/lib/STM32L1xx_HAL_Driver/Src/stm32l1xx_hal_rtc_ex.c ****   /* Get the Tamper3 interrupts source enable status */
 535:..//Source/stm/lib/STM32L1xx_HAL_Driver/Src/stm32l1xx_hal_rtc_ex.c ****   if (__HAL_RTC_TAMPER_GET_IT_SOURCE(hrtc, RTC_IT_TAMP | RTC_IT_TAMP3) != 0U)
 536:..//Source/stm/lib/STM32L1xx_HAL_Driver/Src/stm32l1xx_hal_rtc_ex.c ****   {
 537:..//Source/stm/lib/STM32L1xx_HAL_Driver/Src/stm32l1xx_hal_rtc_ex.c ****     /* Get the pending status of the Tamper3 Interrupt */
 538:..//Source/stm/lib/STM32L1xx_HAL_Driver/Src/stm32l1xx_hal_rtc_ex.c ****     if (__HAL_RTC_TAMPER_GET_FLAG(hrtc, RTC_FLAG_TAMP3F) != 0U)
 539:..//Source/stm/lib/STM32L1xx_HAL_Driver/Src/stm32l1xx_hal_rtc_ex.c ****     {
ARM GAS  /tmp/ccTaTHmG.s 			page 23


 540:..//Source/stm/lib/STM32L1xx_HAL_Driver/Src/stm32l1xx_hal_rtc_ex.c ****       /* Tamper3 callback */
 541:..//Source/stm/lib/STM32L1xx_HAL_Driver/Src/stm32l1xx_hal_rtc_ex.c **** #if (USE_HAL_RTC_REGISTER_CALLBACKS == 1)
 542:..//Source/stm/lib/STM32L1xx_HAL_Driver/Src/stm32l1xx_hal_rtc_ex.c ****       hrtc->Tamper3EventCallback(hrtc);
 543:..//Source/stm/lib/STM32L1xx_HAL_Driver/Src/stm32l1xx_hal_rtc_ex.c **** #else
 544:..//Source/stm/lib/STM32L1xx_HAL_Driver/Src/stm32l1xx_hal_rtc_ex.c ****       HAL_RTCEx_Tamper3EventCallback(hrtc);
 545:..//Source/stm/lib/STM32L1xx_HAL_Driver/Src/stm32l1xx_hal_rtc_ex.c **** #endif /* USE_HAL_RTC_REGISTER_CALLBACKS */
 546:..//Source/stm/lib/STM32L1xx_HAL_Driver/Src/stm32l1xx_hal_rtc_ex.c **** 
 547:..//Source/stm/lib/STM32L1xx_HAL_Driver/Src/stm32l1xx_hal_rtc_ex.c ****       /* Clear the Tamper3 interrupt pending bit */
 548:..//Source/stm/lib/STM32L1xx_HAL_Driver/Src/stm32l1xx_hal_rtc_ex.c ****       __HAL_RTC_TAMPER_CLEAR_FLAG(hrtc, RTC_FLAG_TAMP3F);
 549:..//Source/stm/lib/STM32L1xx_HAL_Driver/Src/stm32l1xx_hal_rtc_ex.c ****     }
 550:..//Source/stm/lib/STM32L1xx_HAL_Driver/Src/stm32l1xx_hal_rtc_ex.c ****   }
 551:..//Source/stm/lib/STM32L1xx_HAL_Driver/Src/stm32l1xx_hal_rtc_ex.c **** #endif /* STM32L100xBA || STM32L151xBA || STM32L152xBA || STM32L100xC || STM32L151xC || STM32L152xC
 552:..//Source/stm/lib/STM32L1xx_HAL_Driver/Src/stm32l1xx_hal_rtc_ex.c **** 
 553:..//Source/stm/lib/STM32L1xx_HAL_Driver/Src/stm32l1xx_hal_rtc_ex.c ****   /* Clear the EXTI's Flag for RTC TimeStamp and Tamper */
 554:..//Source/stm/lib/STM32L1xx_HAL_Driver/Src/stm32l1xx_hal_rtc_ex.c ****   __HAL_RTC_TAMPER_TIMESTAMP_EXTI_CLEAR_FLAG();
 555:..//Source/stm/lib/STM32L1xx_HAL_Driver/Src/stm32l1xx_hal_rtc_ex.c **** 
 556:..//Source/stm/lib/STM32L1xx_HAL_Driver/Src/stm32l1xx_hal_rtc_ex.c ****   /* Change RTC state */
 557:..//Source/stm/lib/STM32L1xx_HAL_Driver/Src/stm32l1xx_hal_rtc_ex.c ****   hrtc->State = HAL_RTC_STATE_READY;
 558:..//Source/stm/lib/STM32L1xx_HAL_Driver/Src/stm32l1xx_hal_rtc_ex.c **** }
 559:..//Source/stm/lib/STM32L1xx_HAL_Driver/Src/stm32l1xx_hal_rtc_ex.c **** 
 560:..//Source/stm/lib/STM32L1xx_HAL_Driver/Src/stm32l1xx_hal_rtc_ex.c **** /**
 561:..//Source/stm/lib/STM32L1xx_HAL_Driver/Src/stm32l1xx_hal_rtc_ex.c ****   * @brief  TimeStamp callback.
 562:..//Source/stm/lib/STM32L1xx_HAL_Driver/Src/stm32l1xx_hal_rtc_ex.c ****   * @param  hrtc RTC handle
 563:..//Source/stm/lib/STM32L1xx_HAL_Driver/Src/stm32l1xx_hal_rtc_ex.c ****   * @retval None
 564:..//Source/stm/lib/STM32L1xx_HAL_Driver/Src/stm32l1xx_hal_rtc_ex.c ****   */
 565:..//Source/stm/lib/STM32L1xx_HAL_Driver/Src/stm32l1xx_hal_rtc_ex.c **** __weak void HAL_RTCEx_TimeStampEventCallback(RTC_HandleTypeDef *hrtc)
 566:..//Source/stm/lib/STM32L1xx_HAL_Driver/Src/stm32l1xx_hal_rtc_ex.c **** {
 704              		.loc 1 566 0
 705              		.cfi_startproc
 706              		@ args = 0, pretend = 0, frame = 0
 707              		@ frame_needed = 0, uses_anonymous_args = 0
 708              		@ link register save eliminated.
 709              	.LVL58:
 710 0000 7047     		bx	lr
 711              		.cfi_endproc
 712              	.LFE80:
 714              		.section	.text.HAL_RTCEx_Tamper1EventCallback,"ax",%progbits
 715              		.align	1
 716              		.weak	HAL_RTCEx_Tamper1EventCallback
 717              		.syntax unified
 718              		.thumb
 719              		.thumb_func
 720              		.fpu softvfp
 722              	HAL_RTCEx_Tamper1EventCallback:
 723              	.LFB81:
 567:..//Source/stm/lib/STM32L1xx_HAL_Driver/Src/stm32l1xx_hal_rtc_ex.c ****   /* Prevent unused argument(s) compilation warning */
 568:..//Source/stm/lib/STM32L1xx_HAL_Driver/Src/stm32l1xx_hal_rtc_ex.c ****   UNUSED(hrtc);
 569:..//Source/stm/lib/STM32L1xx_HAL_Driver/Src/stm32l1xx_hal_rtc_ex.c **** 
 570:..//Source/stm/lib/STM32L1xx_HAL_Driver/Src/stm32l1xx_hal_rtc_ex.c ****   /* NOTE : This function Should not be modified, when the callback is needed,
 571:..//Source/stm/lib/STM32L1xx_HAL_Driver/Src/stm32l1xx_hal_rtc_ex.c ****             the HAL_RTCEx_TimeStampEventCallback could be implemented in the user file
 572:..//Source/stm/lib/STM32L1xx_HAL_Driver/Src/stm32l1xx_hal_rtc_ex.c ****   */
 573:..//Source/stm/lib/STM32L1xx_HAL_Driver/Src/stm32l1xx_hal_rtc_ex.c **** }
 574:..//Source/stm/lib/STM32L1xx_HAL_Driver/Src/stm32l1xx_hal_rtc_ex.c **** 
 575:..//Source/stm/lib/STM32L1xx_HAL_Driver/Src/stm32l1xx_hal_rtc_ex.c **** /**
 576:..//Source/stm/lib/STM32L1xx_HAL_Driver/Src/stm32l1xx_hal_rtc_ex.c ****   * @brief  Tamper 1 callback.
 577:..//Source/stm/lib/STM32L1xx_HAL_Driver/Src/stm32l1xx_hal_rtc_ex.c ****   * @param  hrtc RTC handle
 578:..//Source/stm/lib/STM32L1xx_HAL_Driver/Src/stm32l1xx_hal_rtc_ex.c ****   * @retval None
ARM GAS  /tmp/ccTaTHmG.s 			page 24


 579:..//Source/stm/lib/STM32L1xx_HAL_Driver/Src/stm32l1xx_hal_rtc_ex.c ****   */
 580:..//Source/stm/lib/STM32L1xx_HAL_Driver/Src/stm32l1xx_hal_rtc_ex.c **** __weak void HAL_RTCEx_Tamper1EventCallback(RTC_HandleTypeDef *hrtc)
 581:..//Source/stm/lib/STM32L1xx_HAL_Driver/Src/stm32l1xx_hal_rtc_ex.c **** {
 724              		.loc 1 581 0
 725              		.cfi_startproc
 726              		@ args = 0, pretend = 0, frame = 0
 727              		@ frame_needed = 0, uses_anonymous_args = 0
 728              		@ link register save eliminated.
 729              	.LVL59:
 730 0000 7047     		bx	lr
 731              		.cfi_endproc
 732              	.LFE81:
 734              		.section	.text.HAL_RTCEx_Tamper2EventCallback,"ax",%progbits
 735              		.align	1
 736              		.weak	HAL_RTCEx_Tamper2EventCallback
 737              		.syntax unified
 738              		.thumb
 739              		.thumb_func
 740              		.fpu softvfp
 742              	HAL_RTCEx_Tamper2EventCallback:
 743              	.LFB82:
 582:..//Source/stm/lib/STM32L1xx_HAL_Driver/Src/stm32l1xx_hal_rtc_ex.c ****   /* Prevent unused argument(s) compilation warning */
 583:..//Source/stm/lib/STM32L1xx_HAL_Driver/Src/stm32l1xx_hal_rtc_ex.c ****   UNUSED(hrtc);
 584:..//Source/stm/lib/STM32L1xx_HAL_Driver/Src/stm32l1xx_hal_rtc_ex.c **** 
 585:..//Source/stm/lib/STM32L1xx_HAL_Driver/Src/stm32l1xx_hal_rtc_ex.c ****   /* NOTE : This function Should not be modified, when the callback is needed,
 586:..//Source/stm/lib/STM32L1xx_HAL_Driver/Src/stm32l1xx_hal_rtc_ex.c ****             the HAL_RTCEx_Tamper1EventCallback could be implemented in the user file
 587:..//Source/stm/lib/STM32L1xx_HAL_Driver/Src/stm32l1xx_hal_rtc_ex.c ****    */
 588:..//Source/stm/lib/STM32L1xx_HAL_Driver/Src/stm32l1xx_hal_rtc_ex.c **** }
 589:..//Source/stm/lib/STM32L1xx_HAL_Driver/Src/stm32l1xx_hal_rtc_ex.c **** 
 590:..//Source/stm/lib/STM32L1xx_HAL_Driver/Src/stm32l1xx_hal_rtc_ex.c **** #if defined(STM32L100xBA) || defined (STM32L151xBA) || defined (STM32L152xBA) || defined(STM32L100x
 591:..//Source/stm/lib/STM32L1xx_HAL_Driver/Src/stm32l1xx_hal_rtc_ex.c **** /**
 592:..//Source/stm/lib/STM32L1xx_HAL_Driver/Src/stm32l1xx_hal_rtc_ex.c ****   * @brief  Tamper 2 callback.
 593:..//Source/stm/lib/STM32L1xx_HAL_Driver/Src/stm32l1xx_hal_rtc_ex.c ****   * @param  hrtc RTC handle
 594:..//Source/stm/lib/STM32L1xx_HAL_Driver/Src/stm32l1xx_hal_rtc_ex.c ****   * @retval None
 595:..//Source/stm/lib/STM32L1xx_HAL_Driver/Src/stm32l1xx_hal_rtc_ex.c ****   */
 596:..//Source/stm/lib/STM32L1xx_HAL_Driver/Src/stm32l1xx_hal_rtc_ex.c **** __weak void HAL_RTCEx_Tamper2EventCallback(RTC_HandleTypeDef *hrtc)
 597:..//Source/stm/lib/STM32L1xx_HAL_Driver/Src/stm32l1xx_hal_rtc_ex.c **** {
 744              		.loc 1 597 0
 745              		.cfi_startproc
 746              		@ args = 0, pretend = 0, frame = 0
 747              		@ frame_needed = 0, uses_anonymous_args = 0
 748              		@ link register save eliminated.
 749              	.LVL60:
 750 0000 7047     		bx	lr
 751              		.cfi_endproc
 752              	.LFE82:
 754              		.section	.text.HAL_RTCEx_Tamper3EventCallback,"ax",%progbits
 755              		.align	1
 756              		.weak	HAL_RTCEx_Tamper3EventCallback
 757              		.syntax unified
 758              		.thumb
 759              		.thumb_func
 760              		.fpu softvfp
 762              	HAL_RTCEx_Tamper3EventCallback:
 763              	.LFB83:
 598:..//Source/stm/lib/STM32L1xx_HAL_Driver/Src/stm32l1xx_hal_rtc_ex.c ****   /* Prevent unused argument(s) compilation warning */
 599:..//Source/stm/lib/STM32L1xx_HAL_Driver/Src/stm32l1xx_hal_rtc_ex.c ****   UNUSED(hrtc);
ARM GAS  /tmp/ccTaTHmG.s 			page 25


 600:..//Source/stm/lib/STM32L1xx_HAL_Driver/Src/stm32l1xx_hal_rtc_ex.c **** 
 601:..//Source/stm/lib/STM32L1xx_HAL_Driver/Src/stm32l1xx_hal_rtc_ex.c ****   /* NOTE : This function should not be modified, when the callback is needed,
 602:..//Source/stm/lib/STM32L1xx_HAL_Driver/Src/stm32l1xx_hal_rtc_ex.c ****             the HAL_RTCEx_Tamper2EventCallback could be implemented in the user file
 603:..//Source/stm/lib/STM32L1xx_HAL_Driver/Src/stm32l1xx_hal_rtc_ex.c ****    */
 604:..//Source/stm/lib/STM32L1xx_HAL_Driver/Src/stm32l1xx_hal_rtc_ex.c **** }
 605:..//Source/stm/lib/STM32L1xx_HAL_Driver/Src/stm32l1xx_hal_rtc_ex.c **** 
 606:..//Source/stm/lib/STM32L1xx_HAL_Driver/Src/stm32l1xx_hal_rtc_ex.c **** /**
 607:..//Source/stm/lib/STM32L1xx_HAL_Driver/Src/stm32l1xx_hal_rtc_ex.c ****   * @brief  Tamper 3 callback.
 608:..//Source/stm/lib/STM32L1xx_HAL_Driver/Src/stm32l1xx_hal_rtc_ex.c ****   * @param  hrtc RTC handle
 609:..//Source/stm/lib/STM32L1xx_HAL_Driver/Src/stm32l1xx_hal_rtc_ex.c ****   * @retval None
 610:..//Source/stm/lib/STM32L1xx_HAL_Driver/Src/stm32l1xx_hal_rtc_ex.c ****   */
 611:..//Source/stm/lib/STM32L1xx_HAL_Driver/Src/stm32l1xx_hal_rtc_ex.c **** __weak void HAL_RTCEx_Tamper3EventCallback(RTC_HandleTypeDef *hrtc)
 612:..//Source/stm/lib/STM32L1xx_HAL_Driver/Src/stm32l1xx_hal_rtc_ex.c **** {
 764              		.loc 1 612 0
 765              		.cfi_startproc
 766              		@ args = 0, pretend = 0, frame = 0
 767              		@ frame_needed = 0, uses_anonymous_args = 0
 768              		@ link register save eliminated.
 769              	.LVL61:
 770 0000 7047     		bx	lr
 771              		.cfi_endproc
 772              	.LFE83:
 774              		.section	.text.HAL_RTCEx_TamperTimeStampIRQHandler,"ax",%progbits
 775              		.align	1
 776              		.global	HAL_RTCEx_TamperTimeStampIRQHandler
 777              		.syntax unified
 778              		.thumb
 779              		.thumb_func
 780              		.fpu softvfp
 782              	HAL_RTCEx_TamperTimeStampIRQHandler:
 783              	.LFB79:
 478:..//Source/stm/lib/STM32L1xx_HAL_Driver/Src/stm32l1xx_hal_rtc_ex.c ****   /* Get the TimeStamp interrupt source enable status */
 784              		.loc 1 478 0
 785              		.cfi_startproc
 786              		@ args = 0, pretend = 0, frame = 0
 787              		@ frame_needed = 0, uses_anonymous_args = 0
 788              	.LVL62:
 478:..//Source/stm/lib/STM32L1xx_HAL_Driver/Src/stm32l1xx_hal_rtc_ex.c ****   /* Get the TimeStamp interrupt source enable status */
 789              		.loc 1 478 0
 790 0000 10B5     		push	{r4, lr}
 791              	.LCFI15:
 792              		.cfi_def_cfa_offset 8
 793              		.cfi_offset 4, -8
 794              		.cfi_offset 14, -4
 795 0002 0446     		mov	r4, r0
 480:..//Source/stm/lib/STM32L1xx_HAL_Driver/Src/stm32l1xx_hal_rtc_ex.c ****   {
 796              		.loc 1 480 0
 797 0004 0368     		ldr	r3, [r0]
 798 0006 9A68     		ldr	r2, [r3, #8]
 799 0008 12F4004F 		tst	r2, #32768
 800 000c 03D0     		beq	.L56
 483:..//Source/stm/lib/STM32L1xx_HAL_Driver/Src/stm32l1xx_hal_rtc_ex.c ****     {
 801              		.loc 1 483 0
 802 000e DB68     		ldr	r3, [r3, #12]
 803 0010 13F4006F 		tst	r3, #2048
 804 0014 21D1     		bne	.L61
 805              	.LVL63:
ARM GAS  /tmp/ccTaTHmG.s 			page 26


 806              	.L56:
 498:..//Source/stm/lib/STM32L1xx_HAL_Driver/Src/stm32l1xx_hal_rtc_ex.c ****   {
 807              		.loc 1 498 0
 808 0016 2368     		ldr	r3, [r4]
 809 0018 1A6C     		ldr	r2, [r3, #64]
 810 001a 12F0040F 		tst	r2, #4
 811 001e 03D0     		beq	.L57
 501:..//Source/stm/lib/STM32L1xx_HAL_Driver/Src/stm32l1xx_hal_rtc_ex.c ****     {
 812              		.loc 1 501 0
 813 0020 DB68     		ldr	r3, [r3, #12]
 814 0022 13F4005F 		tst	r3, #8192
 815 0026 21D1     		bne	.L62
 816              	.L57:
 517:..//Source/stm/lib/STM32L1xx_HAL_Driver/Src/stm32l1xx_hal_rtc_ex.c ****   {
 817              		.loc 1 517 0
 818 0028 2368     		ldr	r3, [r4]
 819 002a 1A6C     		ldr	r2, [r3, #64]
 820 002c 12F0040F 		tst	r2, #4
 821 0030 03D0     		beq	.L58
 520:..//Source/stm/lib/STM32L1xx_HAL_Driver/Src/stm32l1xx_hal_rtc_ex.c ****     {
 822              		.loc 1 520 0
 823 0032 DB68     		ldr	r3, [r3, #12]
 824 0034 13F4804F 		tst	r3, #16384
 825 0038 22D1     		bne	.L63
 826              	.L58:
 535:..//Source/stm/lib/STM32L1xx_HAL_Driver/Src/stm32l1xx_hal_rtc_ex.c ****   {
 827              		.loc 1 535 0
 828 003a 2368     		ldr	r3, [r4]
 829 003c 1A6C     		ldr	r2, [r3, #64]
 830 003e 12F0040F 		tst	r2, #4
 831 0042 03D0     		beq	.L59
 538:..//Source/stm/lib/STM32L1xx_HAL_Driver/Src/stm32l1xx_hal_rtc_ex.c ****     {
 832              		.loc 1 538 0
 833 0044 DB68     		ldr	r3, [r3, #12]
 834 0046 13F4004F 		tst	r3, #32768
 835 004a 23D1     		bne	.L64
 836              	.L59:
 554:..//Source/stm/lib/STM32L1xx_HAL_Driver/Src/stm32l1xx_hal_rtc_ex.c **** 
 837              		.loc 1 554 0
 838 004c 4FF40022 		mov	r2, #524288
 839 0050 184B     		ldr	r3, .L65
 840 0052 5A61     		str	r2, [r3, #20]
 557:..//Source/stm/lib/STM32L1xx_HAL_Driver/Src/stm32l1xx_hal_rtc_ex.c **** }
 841              		.loc 1 557 0
 842 0054 0123     		movs	r3, #1
 843 0056 6377     		strb	r3, [r4, #29]
 844 0058 10BD     		pop	{r4, pc}
 845              	.LVL64:
 846              	.L61:
 489:..//Source/stm/lib/STM32L1xx_HAL_Driver/Src/stm32l1xx_hal_rtc_ex.c **** #endif /* USE_HAL_RTC_REGISTER_CALLBACKS */
 847              		.loc 1 489 0
 848 005a FFF7FEFF 		bl	HAL_RTCEx_TimeStampEventCallback
 849              	.LVL65:
 493:..//Source/stm/lib/STM32L1xx_HAL_Driver/Src/stm32l1xx_hal_rtc_ex.c ****     }
 850              		.loc 1 493 0
 851 005e 2268     		ldr	r2, [r4]
 852 0060 D368     		ldr	r3, [r2, #12]
ARM GAS  /tmp/ccTaTHmG.s 			page 27


 853 0062 DBB2     		uxtb	r3, r3
 854 0064 63F40863 		orn	r3, r3, #2176
 855 0068 D360     		str	r3, [r2, #12]
 856 006a D4E7     		b	.L56
 857              	.L62:
 507:..//Source/stm/lib/STM32L1xx_HAL_Driver/Src/stm32l1xx_hal_rtc_ex.c **** #endif /* USE_HAL_RTC_REGISTER_CALLBACKS */
 858              		.loc 1 507 0
 859 006c 2046     		mov	r0, r4
 860 006e FFF7FEFF 		bl	HAL_RTCEx_Tamper1EventCallback
 861              	.LVL66:
 511:..//Source/stm/lib/STM32L1xx_HAL_Driver/Src/stm32l1xx_hal_rtc_ex.c ****     }
 862              		.loc 1 511 0
 863 0072 2268     		ldr	r2, [r4]
 864 0074 D368     		ldr	r3, [r2, #12]
 865 0076 DBB2     		uxtb	r3, r3
 866 0078 63F40253 		orn	r3, r3, #8320
 867 007c D360     		str	r3, [r2, #12]
 868 007e D3E7     		b	.L57
 869              	.L63:
 526:..//Source/stm/lib/STM32L1xx_HAL_Driver/Src/stm32l1xx_hal_rtc_ex.c **** #endif /* USE_HAL_RTC_REGISTER_CALLBACKS */
 870              		.loc 1 526 0
 871 0080 2046     		mov	r0, r4
 872 0082 FFF7FEFF 		bl	HAL_RTCEx_Tamper2EventCallback
 873              	.LVL67:
 530:..//Source/stm/lib/STM32L1xx_HAL_Driver/Src/stm32l1xx_hal_rtc_ex.c ****     }
 874              		.loc 1 530 0
 875 0086 2268     		ldr	r2, [r4]
 876 0088 D368     		ldr	r3, [r2, #12]
 877 008a DBB2     		uxtb	r3, r3
 878 008c 63F48143 		orn	r3, r3, #16512
 879 0090 D360     		str	r3, [r2, #12]
 880 0092 D2E7     		b	.L58
 881              	.L64:
 544:..//Source/stm/lib/STM32L1xx_HAL_Driver/Src/stm32l1xx_hal_rtc_ex.c **** #endif /* USE_HAL_RTC_REGISTER_CALLBACKS */
 882              		.loc 1 544 0
 883 0094 2046     		mov	r0, r4
 884 0096 FFF7FEFF 		bl	HAL_RTCEx_Tamper3EventCallback
 885              	.LVL68:
 548:..//Source/stm/lib/STM32L1xx_HAL_Driver/Src/stm32l1xx_hal_rtc_ex.c ****     }
 886              		.loc 1 548 0
 887 009a 2268     		ldr	r2, [r4]
 888 009c D368     		ldr	r3, [r2, #12]
 889 009e DBB2     		uxtb	r3, r3
 890 00a0 43F07F43 		orr	r3, r3, #-16777216
 891 00a4 43F47F03 		orr	r3, r3, #16711680
 892 00a8 43F4FE43 		orr	r3, r3, #32512
 893 00ac 43F07F03 		orr	r3, r3, #127
 894 00b0 D360     		str	r3, [r2, #12]
 895 00b2 CBE7     		b	.L59
 896              	.L66:
 897              		.align	2
 898              	.L65:
 899 00b4 00040140 		.word	1073808384
 900              		.cfi_endproc
 901              	.LFE79:
 903              		.section	.text.HAL_RTCEx_PollForTimeStampEvent,"ax",%progbits
 904              		.align	1
ARM GAS  /tmp/ccTaTHmG.s 			page 28


 905              		.global	HAL_RTCEx_PollForTimeStampEvent
 906              		.syntax unified
 907              		.thumb
 908              		.thumb_func
 909              		.fpu softvfp
 911              	HAL_RTCEx_PollForTimeStampEvent:
 912              	.LFB84:
 613:..//Source/stm/lib/STM32L1xx_HAL_Driver/Src/stm32l1xx_hal_rtc_ex.c ****   /* Prevent unused argument(s) compilation warning */
 614:..//Source/stm/lib/STM32L1xx_HAL_Driver/Src/stm32l1xx_hal_rtc_ex.c ****   UNUSED(hrtc);
 615:..//Source/stm/lib/STM32L1xx_HAL_Driver/Src/stm32l1xx_hal_rtc_ex.c **** 
 616:..//Source/stm/lib/STM32L1xx_HAL_Driver/Src/stm32l1xx_hal_rtc_ex.c ****   /* NOTE : This function Should not be modified, when the callback is needed,
 617:..//Source/stm/lib/STM32L1xx_HAL_Driver/Src/stm32l1xx_hal_rtc_ex.c ****             the HAL_RTCEx_Tamper3EventCallback could be implemented in the user file
 618:..//Source/stm/lib/STM32L1xx_HAL_Driver/Src/stm32l1xx_hal_rtc_ex.c ****    */
 619:..//Source/stm/lib/STM32L1xx_HAL_Driver/Src/stm32l1xx_hal_rtc_ex.c **** }
 620:..//Source/stm/lib/STM32L1xx_HAL_Driver/Src/stm32l1xx_hal_rtc_ex.c **** #endif /* STM32L100xBA || STM32L151xBA || STM32L152xBA || STM32L100xC || STM32L151xC || STM32L152xC
 621:..//Source/stm/lib/STM32L1xx_HAL_Driver/Src/stm32l1xx_hal_rtc_ex.c **** 
 622:..//Source/stm/lib/STM32L1xx_HAL_Driver/Src/stm32l1xx_hal_rtc_ex.c **** /**
 623:..//Source/stm/lib/STM32L1xx_HAL_Driver/Src/stm32l1xx_hal_rtc_ex.c ****   * @brief  Handle TimeStamp polling request.
 624:..//Source/stm/lib/STM32L1xx_HAL_Driver/Src/stm32l1xx_hal_rtc_ex.c ****   * @param  hrtc RTC handle
 625:..//Source/stm/lib/STM32L1xx_HAL_Driver/Src/stm32l1xx_hal_rtc_ex.c ****   * @param  Timeout Timeout duration
 626:..//Source/stm/lib/STM32L1xx_HAL_Driver/Src/stm32l1xx_hal_rtc_ex.c ****   * @retval HAL status
 627:..//Source/stm/lib/STM32L1xx_HAL_Driver/Src/stm32l1xx_hal_rtc_ex.c ****   */
 628:..//Source/stm/lib/STM32L1xx_HAL_Driver/Src/stm32l1xx_hal_rtc_ex.c **** HAL_StatusTypeDef HAL_RTCEx_PollForTimeStampEvent(RTC_HandleTypeDef *hrtc, uint32_t Timeout)
 629:..//Source/stm/lib/STM32L1xx_HAL_Driver/Src/stm32l1xx_hal_rtc_ex.c **** {
 913              		.loc 1 629 0
 914              		.cfi_startproc
 915              		@ args = 0, pretend = 0, frame = 0
 916              		@ frame_needed = 0, uses_anonymous_args = 0
 917              	.LVL69:
 918 0000 70B5     		push	{r4, r5, r6, lr}
 919              	.LCFI16:
 920              		.cfi_def_cfa_offset 16
 921              		.cfi_offset 4, -16
 922              		.cfi_offset 5, -12
 923              		.cfi_offset 6, -8
 924              		.cfi_offset 14, -4
 925 0002 0446     		mov	r4, r0
 926 0004 0D46     		mov	r5, r1
 630:..//Source/stm/lib/STM32L1xx_HAL_Driver/Src/stm32l1xx_hal_rtc_ex.c ****   uint32_t tickstart = HAL_GetTick();
 927              		.loc 1 630 0
 928 0006 FFF7FEFF 		bl	HAL_GetTick
 929              	.LVL70:
 930 000a 0646     		mov	r6, r0
 931              	.LVL71:
 932              	.L71:
 631:..//Source/stm/lib/STM32L1xx_HAL_Driver/Src/stm32l1xx_hal_rtc_ex.c **** 
 632:..//Source/stm/lib/STM32L1xx_HAL_Driver/Src/stm32l1xx_hal_rtc_ex.c ****   while (__HAL_RTC_TIMESTAMP_GET_FLAG(hrtc, RTC_FLAG_TSF) == 0U)
 933              		.loc 1 632 0
 934 000c 2368     		ldr	r3, [r4]
 935 000e DA68     		ldr	r2, [r3, #12]
 936 0010 12F4006F 		tst	r2, #2048
 937 0014 19D1     		bne	.L75
 633:..//Source/stm/lib/STM32L1xx_HAL_Driver/Src/stm32l1xx_hal_rtc_ex.c ****   {
 634:..//Source/stm/lib/STM32L1xx_HAL_Driver/Src/stm32l1xx_hal_rtc_ex.c ****     if (__HAL_RTC_TIMESTAMP_GET_FLAG(hrtc, RTC_FLAG_TSOVF) != 0U)
 938              		.loc 1 634 0
 939 0016 DA68     		ldr	r2, [r3, #12]
 940 0018 12F4805F 		tst	r2, #4096
ARM GAS  /tmp/ccTaTHmG.s 			page 29


 941 001c 0CD1     		bne	.L76
 635:..//Source/stm/lib/STM32L1xx_HAL_Driver/Src/stm32l1xx_hal_rtc_ex.c ****     {
 636:..//Source/stm/lib/STM32L1xx_HAL_Driver/Src/stm32l1xx_hal_rtc_ex.c ****       /* Clear the TIMESTAMP OverRun Flag */
 637:..//Source/stm/lib/STM32L1xx_HAL_Driver/Src/stm32l1xx_hal_rtc_ex.c ****       __HAL_RTC_TIMESTAMP_CLEAR_FLAG(hrtc, RTC_FLAG_TSOVF);
 638:..//Source/stm/lib/STM32L1xx_HAL_Driver/Src/stm32l1xx_hal_rtc_ex.c **** 
 639:..//Source/stm/lib/STM32L1xx_HAL_Driver/Src/stm32l1xx_hal_rtc_ex.c ****       /* Change TIMESTAMP state */
 640:..//Source/stm/lib/STM32L1xx_HAL_Driver/Src/stm32l1xx_hal_rtc_ex.c ****       hrtc->State = HAL_RTC_STATE_ERROR;
 641:..//Source/stm/lib/STM32L1xx_HAL_Driver/Src/stm32l1xx_hal_rtc_ex.c **** 
 642:..//Source/stm/lib/STM32L1xx_HAL_Driver/Src/stm32l1xx_hal_rtc_ex.c ****       return HAL_ERROR;
 643:..//Source/stm/lib/STM32L1xx_HAL_Driver/Src/stm32l1xx_hal_rtc_ex.c ****     }
 644:..//Source/stm/lib/STM32L1xx_HAL_Driver/Src/stm32l1xx_hal_rtc_ex.c **** 
 645:..//Source/stm/lib/STM32L1xx_HAL_Driver/Src/stm32l1xx_hal_rtc_ex.c ****     if (Timeout != HAL_MAX_DELAY)
 942              		.loc 1 645 0
 943 001e B5F1FF3F 		cmp	r5, #-1
 944 0022 F3D0     		beq	.L71
 646:..//Source/stm/lib/STM32L1xx_HAL_Driver/Src/stm32l1xx_hal_rtc_ex.c ****     {
 647:..//Source/stm/lib/STM32L1xx_HAL_Driver/Src/stm32l1xx_hal_rtc_ex.c ****       if (((HAL_GetTick() - tickstart) > Timeout) || (Timeout == 0U))
 945              		.loc 1 647 0
 946 0024 FFF7FEFF 		bl	HAL_GetTick
 947              	.LVL72:
 948 0028 801B     		subs	r0, r0, r6
 949 002a 8542     		cmp	r5, r0
 950 002c 01D3     		bcc	.L72
 951              		.loc 1 647 0 is_stmt 0 discriminator 1
 952 002e 002D     		cmp	r5, #0
 953 0030 ECD1     		bne	.L71
 954              	.L72:
 648:..//Source/stm/lib/STM32L1xx_HAL_Driver/Src/stm32l1xx_hal_rtc_ex.c ****       {
 649:..//Source/stm/lib/STM32L1xx_HAL_Driver/Src/stm32l1xx_hal_rtc_ex.c ****         hrtc->State = HAL_RTC_STATE_TIMEOUT;
 955              		.loc 1 649 0 is_stmt 1
 956 0032 0320     		movs	r0, #3
 957 0034 6077     		strb	r0, [r4, #29]
 650:..//Source/stm/lib/STM32L1xx_HAL_Driver/Src/stm32l1xx_hal_rtc_ex.c ****         return HAL_TIMEOUT;
 958              		.loc 1 650 0
 959 0036 70BD     		pop	{r4, r5, r6, pc}
 960              	.LVL73:
 961              	.L76:
 637:..//Source/stm/lib/STM32L1xx_HAL_Driver/Src/stm32l1xx_hal_rtc_ex.c **** 
 962              		.loc 1 637 0
 963 0038 DA68     		ldr	r2, [r3, #12]
 964 003a D2B2     		uxtb	r2, r2
 965 003c 62F48452 		orn	r2, r2, #4224
 966 0040 DA60     		str	r2, [r3, #12]
 640:..//Source/stm/lib/STM32L1xx_HAL_Driver/Src/stm32l1xx_hal_rtc_ex.c **** 
 967              		.loc 1 640 0
 968 0042 0423     		movs	r3, #4
 969 0044 6377     		strb	r3, [r4, #29]
 642:..//Source/stm/lib/STM32L1xx_HAL_Driver/Src/stm32l1xx_hal_rtc_ex.c ****     }
 970              		.loc 1 642 0
 971 0046 0120     		movs	r0, #1
 972 0048 70BD     		pop	{r4, r5, r6, pc}
 973              	.LVL74:
 974              	.L75:
 651:..//Source/stm/lib/STM32L1xx_HAL_Driver/Src/stm32l1xx_hal_rtc_ex.c ****       }
 652:..//Source/stm/lib/STM32L1xx_HAL_Driver/Src/stm32l1xx_hal_rtc_ex.c ****     }
 653:..//Source/stm/lib/STM32L1xx_HAL_Driver/Src/stm32l1xx_hal_rtc_ex.c ****   }
 654:..//Source/stm/lib/STM32L1xx_HAL_Driver/Src/stm32l1xx_hal_rtc_ex.c **** 
ARM GAS  /tmp/ccTaTHmG.s 			page 30


 655:..//Source/stm/lib/STM32L1xx_HAL_Driver/Src/stm32l1xx_hal_rtc_ex.c ****   /* Change RTC state */
 656:..//Source/stm/lib/STM32L1xx_HAL_Driver/Src/stm32l1xx_hal_rtc_ex.c ****   hrtc->State = HAL_RTC_STATE_READY;
 975              		.loc 1 656 0
 976 004a 0123     		movs	r3, #1
 977 004c 6377     		strb	r3, [r4, #29]
 657:..//Source/stm/lib/STM32L1xx_HAL_Driver/Src/stm32l1xx_hal_rtc_ex.c **** 
 658:..//Source/stm/lib/STM32L1xx_HAL_Driver/Src/stm32l1xx_hal_rtc_ex.c ****   return HAL_OK;
 978              		.loc 1 658 0
 979 004e 0020     		movs	r0, #0
 659:..//Source/stm/lib/STM32L1xx_HAL_Driver/Src/stm32l1xx_hal_rtc_ex.c **** }
 980              		.loc 1 659 0
 981 0050 70BD     		pop	{r4, r5, r6, pc}
 982              		.cfi_endproc
 983              	.LFE84:
 985              		.section	.text.HAL_RTCEx_PollForTamper1Event,"ax",%progbits
 986              		.align	1
 987              		.global	HAL_RTCEx_PollForTamper1Event
 988              		.syntax unified
 989              		.thumb
 990              		.thumb_func
 991              		.fpu softvfp
 993              	HAL_RTCEx_PollForTamper1Event:
 994              	.LFB85:
 660:..//Source/stm/lib/STM32L1xx_HAL_Driver/Src/stm32l1xx_hal_rtc_ex.c **** 
 661:..//Source/stm/lib/STM32L1xx_HAL_Driver/Src/stm32l1xx_hal_rtc_ex.c **** /**
 662:..//Source/stm/lib/STM32L1xx_HAL_Driver/Src/stm32l1xx_hal_rtc_ex.c ****   * @brief  Handle Tamper 1 Polling.
 663:..//Source/stm/lib/STM32L1xx_HAL_Driver/Src/stm32l1xx_hal_rtc_ex.c ****   * @param  hrtc RTC handle
 664:..//Source/stm/lib/STM32L1xx_HAL_Driver/Src/stm32l1xx_hal_rtc_ex.c ****   * @param  Timeout Timeout duration
 665:..//Source/stm/lib/STM32L1xx_HAL_Driver/Src/stm32l1xx_hal_rtc_ex.c ****   * @retval HAL status
 666:..//Source/stm/lib/STM32L1xx_HAL_Driver/Src/stm32l1xx_hal_rtc_ex.c ****   */
 667:..//Source/stm/lib/STM32L1xx_HAL_Driver/Src/stm32l1xx_hal_rtc_ex.c **** HAL_StatusTypeDef HAL_RTCEx_PollForTamper1Event(RTC_HandleTypeDef *hrtc, uint32_t Timeout)
 668:..//Source/stm/lib/STM32L1xx_HAL_Driver/Src/stm32l1xx_hal_rtc_ex.c **** {
 995              		.loc 1 668 0
 996              		.cfi_startproc
 997              		@ args = 0, pretend = 0, frame = 0
 998              		@ frame_needed = 0, uses_anonymous_args = 0
 999              	.LVL75:
 1000 0000 70B5     		push	{r4, r5, r6, lr}
 1001              	.LCFI17:
 1002              		.cfi_def_cfa_offset 16
 1003              		.cfi_offset 4, -16
 1004              		.cfi_offset 5, -12
 1005              		.cfi_offset 6, -8
 1006              		.cfi_offset 14, -4
 1007 0002 0446     		mov	r4, r0
 1008 0004 0D46     		mov	r5, r1
 669:..//Source/stm/lib/STM32L1xx_HAL_Driver/Src/stm32l1xx_hal_rtc_ex.c ****   uint32_t tickstart = HAL_GetTick();
 1009              		.loc 1 669 0
 1010 0006 FFF7FEFF 		bl	HAL_GetTick
 1011              	.LVL76:
 1012 000a 0646     		mov	r6, r0
 1013              	.LVL77:
 1014              	.L79:
 670:..//Source/stm/lib/STM32L1xx_HAL_Driver/Src/stm32l1xx_hal_rtc_ex.c **** 
 671:..//Source/stm/lib/STM32L1xx_HAL_Driver/Src/stm32l1xx_hal_rtc_ex.c ****   /* Get the status of the Interrupt */
 672:..//Source/stm/lib/STM32L1xx_HAL_Driver/Src/stm32l1xx_hal_rtc_ex.c ****   while (__HAL_RTC_TAMPER_GET_FLAG(hrtc, RTC_FLAG_TAMP1F) == 0U)
 1015              		.loc 1 672 0
ARM GAS  /tmp/ccTaTHmG.s 			page 31


 1016 000c 2368     		ldr	r3, [r4]
 1017 000e DA68     		ldr	r2, [r3, #12]
 1018 0010 12F4005F 		tst	r2, #8192
 1019 0014 0CD1     		bne	.L84
 673:..//Source/stm/lib/STM32L1xx_HAL_Driver/Src/stm32l1xx_hal_rtc_ex.c ****   {
 674:..//Source/stm/lib/STM32L1xx_HAL_Driver/Src/stm32l1xx_hal_rtc_ex.c ****     if (Timeout != HAL_MAX_DELAY)
 1020              		.loc 1 674 0
 1021 0016 B5F1FF3F 		cmp	r5, #-1
 1022 001a F7D0     		beq	.L79
 675:..//Source/stm/lib/STM32L1xx_HAL_Driver/Src/stm32l1xx_hal_rtc_ex.c ****     {
 676:..//Source/stm/lib/STM32L1xx_HAL_Driver/Src/stm32l1xx_hal_rtc_ex.c ****       if (((HAL_GetTick() - tickstart) > Timeout) || (Timeout == 0U))
 1023              		.loc 1 676 0
 1024 001c FFF7FEFF 		bl	HAL_GetTick
 1025              	.LVL78:
 1026 0020 801B     		subs	r0, r0, r6
 1027 0022 8542     		cmp	r5, r0
 1028 0024 01D3     		bcc	.L80
 1029              		.loc 1 676 0 is_stmt 0 discriminator 1
 1030 0026 002D     		cmp	r5, #0
 1031 0028 F0D1     		bne	.L79
 1032              	.L80:
 677:..//Source/stm/lib/STM32L1xx_HAL_Driver/Src/stm32l1xx_hal_rtc_ex.c ****       {
 678:..//Source/stm/lib/STM32L1xx_HAL_Driver/Src/stm32l1xx_hal_rtc_ex.c ****         hrtc->State = HAL_RTC_STATE_TIMEOUT;
 1033              		.loc 1 678 0 is_stmt 1
 1034 002a 0320     		movs	r0, #3
 1035 002c 6077     		strb	r0, [r4, #29]
 679:..//Source/stm/lib/STM32L1xx_HAL_Driver/Src/stm32l1xx_hal_rtc_ex.c ****         return HAL_TIMEOUT;
 1036              		.loc 1 679 0
 1037 002e 70BD     		pop	{r4, r5, r6, pc}
 1038              	.LVL79:
 1039              	.L84:
 680:..//Source/stm/lib/STM32L1xx_HAL_Driver/Src/stm32l1xx_hal_rtc_ex.c ****       }
 681:..//Source/stm/lib/STM32L1xx_HAL_Driver/Src/stm32l1xx_hal_rtc_ex.c ****     }
 682:..//Source/stm/lib/STM32L1xx_HAL_Driver/Src/stm32l1xx_hal_rtc_ex.c ****   }
 683:..//Source/stm/lib/STM32L1xx_HAL_Driver/Src/stm32l1xx_hal_rtc_ex.c **** 
 684:..//Source/stm/lib/STM32L1xx_HAL_Driver/Src/stm32l1xx_hal_rtc_ex.c ****   /* Clear the Tamper Flag */
 685:..//Source/stm/lib/STM32L1xx_HAL_Driver/Src/stm32l1xx_hal_rtc_ex.c ****   __HAL_RTC_TAMPER_CLEAR_FLAG(hrtc, RTC_FLAG_TAMP1F);
 1040              		.loc 1 685 0
 1041 0030 DA68     		ldr	r2, [r3, #12]
 1042 0032 D2B2     		uxtb	r2, r2
 1043 0034 62F40252 		orn	r2, r2, #8320
 1044 0038 DA60     		str	r2, [r3, #12]
 686:..//Source/stm/lib/STM32L1xx_HAL_Driver/Src/stm32l1xx_hal_rtc_ex.c **** 
 687:..//Source/stm/lib/STM32L1xx_HAL_Driver/Src/stm32l1xx_hal_rtc_ex.c ****   /* Change RTC state */
 688:..//Source/stm/lib/STM32L1xx_HAL_Driver/Src/stm32l1xx_hal_rtc_ex.c ****   hrtc->State = HAL_RTC_STATE_READY;
 1045              		.loc 1 688 0
 1046 003a 0123     		movs	r3, #1
 1047 003c 6377     		strb	r3, [r4, #29]
 689:..//Source/stm/lib/STM32L1xx_HAL_Driver/Src/stm32l1xx_hal_rtc_ex.c **** 
 690:..//Source/stm/lib/STM32L1xx_HAL_Driver/Src/stm32l1xx_hal_rtc_ex.c ****   return HAL_OK;
 1048              		.loc 1 690 0
 1049 003e 0020     		movs	r0, #0
 691:..//Source/stm/lib/STM32L1xx_HAL_Driver/Src/stm32l1xx_hal_rtc_ex.c **** }
 1050              		.loc 1 691 0
 1051 0040 70BD     		pop	{r4, r5, r6, pc}
 1052              		.cfi_endproc
 1053              	.LFE85:
ARM GAS  /tmp/ccTaTHmG.s 			page 32


 1055              		.section	.text.HAL_RTCEx_PollForTamper2Event,"ax",%progbits
 1056              		.align	1
 1057              		.global	HAL_RTCEx_PollForTamper2Event
 1058              		.syntax unified
 1059              		.thumb
 1060              		.thumb_func
 1061              		.fpu softvfp
 1063              	HAL_RTCEx_PollForTamper2Event:
 1064              	.LFB86:
 692:..//Source/stm/lib/STM32L1xx_HAL_Driver/Src/stm32l1xx_hal_rtc_ex.c **** 
 693:..//Source/stm/lib/STM32L1xx_HAL_Driver/Src/stm32l1xx_hal_rtc_ex.c **** #if defined(STM32L100xBA) || defined (STM32L151xBA) || defined (STM32L152xBA) || defined(STM32L100x
 694:..//Source/stm/lib/STM32L1xx_HAL_Driver/Src/stm32l1xx_hal_rtc_ex.c **** /**
 695:..//Source/stm/lib/STM32L1xx_HAL_Driver/Src/stm32l1xx_hal_rtc_ex.c ****   * @brief  Handle Tamper 2 Polling.
 696:..//Source/stm/lib/STM32L1xx_HAL_Driver/Src/stm32l1xx_hal_rtc_ex.c ****   * @param  hrtc RTC handle
 697:..//Source/stm/lib/STM32L1xx_HAL_Driver/Src/stm32l1xx_hal_rtc_ex.c ****   * @param  Timeout Timeout duration
 698:..//Source/stm/lib/STM32L1xx_HAL_Driver/Src/stm32l1xx_hal_rtc_ex.c ****   * @retval HAL status
 699:..//Source/stm/lib/STM32L1xx_HAL_Driver/Src/stm32l1xx_hal_rtc_ex.c ****   */
 700:..//Source/stm/lib/STM32L1xx_HAL_Driver/Src/stm32l1xx_hal_rtc_ex.c **** HAL_StatusTypeDef HAL_RTCEx_PollForTamper2Event(RTC_HandleTypeDef *hrtc, uint32_t Timeout)
 701:..//Source/stm/lib/STM32L1xx_HAL_Driver/Src/stm32l1xx_hal_rtc_ex.c **** {
 1065              		.loc 1 701 0
 1066              		.cfi_startproc
 1067              		@ args = 0, pretend = 0, frame = 0
 1068              		@ frame_needed = 0, uses_anonymous_args = 0
 1069              	.LVL80:
 1070 0000 70B5     		push	{r4, r5, r6, lr}
 1071              	.LCFI18:
 1072              		.cfi_def_cfa_offset 16
 1073              		.cfi_offset 4, -16
 1074              		.cfi_offset 5, -12
 1075              		.cfi_offset 6, -8
 1076              		.cfi_offset 14, -4
 1077 0002 0446     		mov	r4, r0
 1078 0004 0D46     		mov	r5, r1
 702:..//Source/stm/lib/STM32L1xx_HAL_Driver/Src/stm32l1xx_hal_rtc_ex.c ****   uint32_t tickstart = HAL_GetTick();
 1079              		.loc 1 702 0
 1080 0006 FFF7FEFF 		bl	HAL_GetTick
 1081              	.LVL81:
 1082 000a 0646     		mov	r6, r0
 1083              	.LVL82:
 1084              	.L87:
 703:..//Source/stm/lib/STM32L1xx_HAL_Driver/Src/stm32l1xx_hal_rtc_ex.c **** 
 704:..//Source/stm/lib/STM32L1xx_HAL_Driver/Src/stm32l1xx_hal_rtc_ex.c ****   /* Get the status of the Interrupt */
 705:..//Source/stm/lib/STM32L1xx_HAL_Driver/Src/stm32l1xx_hal_rtc_ex.c ****   while (__HAL_RTC_TAMPER_GET_FLAG(hrtc, RTC_FLAG_TAMP2F) == 0U)
 1085              		.loc 1 705 0
 1086 000c 2368     		ldr	r3, [r4]
 1087 000e DA68     		ldr	r2, [r3, #12]
 1088 0010 12F4804F 		tst	r2, #16384
 1089 0014 0CD1     		bne	.L92
 706:..//Source/stm/lib/STM32L1xx_HAL_Driver/Src/stm32l1xx_hal_rtc_ex.c ****   {
 707:..//Source/stm/lib/STM32L1xx_HAL_Driver/Src/stm32l1xx_hal_rtc_ex.c ****     if (Timeout != HAL_MAX_DELAY)
 1090              		.loc 1 707 0
 1091 0016 B5F1FF3F 		cmp	r5, #-1
 1092 001a F7D0     		beq	.L87
 708:..//Source/stm/lib/STM32L1xx_HAL_Driver/Src/stm32l1xx_hal_rtc_ex.c ****     {
 709:..//Source/stm/lib/STM32L1xx_HAL_Driver/Src/stm32l1xx_hal_rtc_ex.c ****       if (((HAL_GetTick() - tickstart) > Timeout) || (Timeout == 0U))
 1093              		.loc 1 709 0
 1094 001c FFF7FEFF 		bl	HAL_GetTick
ARM GAS  /tmp/ccTaTHmG.s 			page 33


 1095              	.LVL83:
 1096 0020 801B     		subs	r0, r0, r6
 1097 0022 8542     		cmp	r5, r0
 1098 0024 01D3     		bcc	.L88
 1099              		.loc 1 709 0 is_stmt 0 discriminator 1
 1100 0026 002D     		cmp	r5, #0
 1101 0028 F0D1     		bne	.L87
 1102              	.L88:
 710:..//Source/stm/lib/STM32L1xx_HAL_Driver/Src/stm32l1xx_hal_rtc_ex.c ****       {
 711:..//Source/stm/lib/STM32L1xx_HAL_Driver/Src/stm32l1xx_hal_rtc_ex.c ****         hrtc->State = HAL_RTC_STATE_TIMEOUT;
 1103              		.loc 1 711 0 is_stmt 1
 1104 002a 0320     		movs	r0, #3
 1105 002c 6077     		strb	r0, [r4, #29]
 712:..//Source/stm/lib/STM32L1xx_HAL_Driver/Src/stm32l1xx_hal_rtc_ex.c ****         return HAL_TIMEOUT;
 1106              		.loc 1 712 0
 1107 002e 70BD     		pop	{r4, r5, r6, pc}
 1108              	.LVL84:
 1109              	.L92:
 713:..//Source/stm/lib/STM32L1xx_HAL_Driver/Src/stm32l1xx_hal_rtc_ex.c ****       }
 714:..//Source/stm/lib/STM32L1xx_HAL_Driver/Src/stm32l1xx_hal_rtc_ex.c ****     }
 715:..//Source/stm/lib/STM32L1xx_HAL_Driver/Src/stm32l1xx_hal_rtc_ex.c ****   }
 716:..//Source/stm/lib/STM32L1xx_HAL_Driver/Src/stm32l1xx_hal_rtc_ex.c **** 
 717:..//Source/stm/lib/STM32L1xx_HAL_Driver/Src/stm32l1xx_hal_rtc_ex.c ****   /* Clear the Tamper Flag */
 718:..//Source/stm/lib/STM32L1xx_HAL_Driver/Src/stm32l1xx_hal_rtc_ex.c ****   __HAL_RTC_TAMPER_CLEAR_FLAG(hrtc, RTC_FLAG_TAMP2F);
 1110              		.loc 1 718 0
 1111 0030 DA68     		ldr	r2, [r3, #12]
 1112 0032 D2B2     		uxtb	r2, r2
 1113 0034 62F48142 		orn	r2, r2, #16512
 1114 0038 DA60     		str	r2, [r3, #12]
 719:..//Source/stm/lib/STM32L1xx_HAL_Driver/Src/stm32l1xx_hal_rtc_ex.c **** 
 720:..//Source/stm/lib/STM32L1xx_HAL_Driver/Src/stm32l1xx_hal_rtc_ex.c ****   /* Change RTC state */
 721:..//Source/stm/lib/STM32L1xx_HAL_Driver/Src/stm32l1xx_hal_rtc_ex.c ****   hrtc->State = HAL_RTC_STATE_READY;
 1115              		.loc 1 721 0
 1116 003a 0123     		movs	r3, #1
 1117 003c 6377     		strb	r3, [r4, #29]
 722:..//Source/stm/lib/STM32L1xx_HAL_Driver/Src/stm32l1xx_hal_rtc_ex.c **** 
 723:..//Source/stm/lib/STM32L1xx_HAL_Driver/Src/stm32l1xx_hal_rtc_ex.c ****   return HAL_OK;
 1118              		.loc 1 723 0
 1119 003e 0020     		movs	r0, #0
 724:..//Source/stm/lib/STM32L1xx_HAL_Driver/Src/stm32l1xx_hal_rtc_ex.c **** }
 1120              		.loc 1 724 0
 1121 0040 70BD     		pop	{r4, r5, r6, pc}
 1122              		.cfi_endproc
 1123              	.LFE86:
 1125              		.section	.text.HAL_RTCEx_PollForTamper3Event,"ax",%progbits
 1126              		.align	1
 1127              		.global	HAL_RTCEx_PollForTamper3Event
 1128              		.syntax unified
 1129              		.thumb
 1130              		.thumb_func
 1131              		.fpu softvfp
 1133              	HAL_RTCEx_PollForTamper3Event:
 1134              	.LFB87:
 725:..//Source/stm/lib/STM32L1xx_HAL_Driver/Src/stm32l1xx_hal_rtc_ex.c **** 
 726:..//Source/stm/lib/STM32L1xx_HAL_Driver/Src/stm32l1xx_hal_rtc_ex.c **** /**
 727:..//Source/stm/lib/STM32L1xx_HAL_Driver/Src/stm32l1xx_hal_rtc_ex.c ****   * @brief  Handle Tamper 3 Polling.
 728:..//Source/stm/lib/STM32L1xx_HAL_Driver/Src/stm32l1xx_hal_rtc_ex.c ****   * @param  hrtc RTC handle
ARM GAS  /tmp/ccTaTHmG.s 			page 34


 729:..//Source/stm/lib/STM32L1xx_HAL_Driver/Src/stm32l1xx_hal_rtc_ex.c ****   * @param  Timeout Timeout duration
 730:..//Source/stm/lib/STM32L1xx_HAL_Driver/Src/stm32l1xx_hal_rtc_ex.c ****   * @retval HAL status
 731:..//Source/stm/lib/STM32L1xx_HAL_Driver/Src/stm32l1xx_hal_rtc_ex.c ****   */
 732:..//Source/stm/lib/STM32L1xx_HAL_Driver/Src/stm32l1xx_hal_rtc_ex.c **** HAL_StatusTypeDef HAL_RTCEx_PollForTamper3Event(RTC_HandleTypeDef *hrtc, uint32_t Timeout)
 733:..//Source/stm/lib/STM32L1xx_HAL_Driver/Src/stm32l1xx_hal_rtc_ex.c **** {
 1135              		.loc 1 733 0
 1136              		.cfi_startproc
 1137              		@ args = 0, pretend = 0, frame = 0
 1138              		@ frame_needed = 0, uses_anonymous_args = 0
 1139              	.LVL85:
 1140 0000 70B5     		push	{r4, r5, r6, lr}
 1141              	.LCFI19:
 1142              		.cfi_def_cfa_offset 16
 1143              		.cfi_offset 4, -16
 1144              		.cfi_offset 5, -12
 1145              		.cfi_offset 6, -8
 1146              		.cfi_offset 14, -4
 1147 0002 0446     		mov	r4, r0
 1148 0004 0D46     		mov	r5, r1
 734:..//Source/stm/lib/STM32L1xx_HAL_Driver/Src/stm32l1xx_hal_rtc_ex.c ****   uint32_t tickstart = HAL_GetTick();
 1149              		.loc 1 734 0
 1150 0006 FFF7FEFF 		bl	HAL_GetTick
 1151              	.LVL86:
 1152 000a 0646     		mov	r6, r0
 1153              	.LVL87:
 1154              	.L95:
 735:..//Source/stm/lib/STM32L1xx_HAL_Driver/Src/stm32l1xx_hal_rtc_ex.c **** 
 736:..//Source/stm/lib/STM32L1xx_HAL_Driver/Src/stm32l1xx_hal_rtc_ex.c ****   /* Get the status of the Interrupt */
 737:..//Source/stm/lib/STM32L1xx_HAL_Driver/Src/stm32l1xx_hal_rtc_ex.c ****   while (__HAL_RTC_TAMPER_GET_FLAG(hrtc, RTC_FLAG_TAMP3F) == 0U)
 1155              		.loc 1 737 0
 1156 000c 2368     		ldr	r3, [r4]
 1157 000e DA68     		ldr	r2, [r3, #12]
 1158 0010 12F4004F 		tst	r2, #32768
 1159 0014 0CD1     		bne	.L100
 738:..//Source/stm/lib/STM32L1xx_HAL_Driver/Src/stm32l1xx_hal_rtc_ex.c ****   {
 739:..//Source/stm/lib/STM32L1xx_HAL_Driver/Src/stm32l1xx_hal_rtc_ex.c ****     if (Timeout != HAL_MAX_DELAY)
 1160              		.loc 1 739 0
 1161 0016 B5F1FF3F 		cmp	r5, #-1
 1162 001a F7D0     		beq	.L95
 740:..//Source/stm/lib/STM32L1xx_HAL_Driver/Src/stm32l1xx_hal_rtc_ex.c ****     {
 741:..//Source/stm/lib/STM32L1xx_HAL_Driver/Src/stm32l1xx_hal_rtc_ex.c ****       if (((HAL_GetTick() - tickstart) > Timeout) || (Timeout == 0U))
 1163              		.loc 1 741 0
 1164 001c FFF7FEFF 		bl	HAL_GetTick
 1165              	.LVL88:
 1166 0020 801B     		subs	r0, r0, r6
 1167 0022 8542     		cmp	r5, r0
 1168 0024 01D3     		bcc	.L96
 1169              		.loc 1 741 0 is_stmt 0 discriminator 1
 1170 0026 002D     		cmp	r5, #0
 1171 0028 F0D1     		bne	.L95
 1172              	.L96:
 742:..//Source/stm/lib/STM32L1xx_HAL_Driver/Src/stm32l1xx_hal_rtc_ex.c ****       {
 743:..//Source/stm/lib/STM32L1xx_HAL_Driver/Src/stm32l1xx_hal_rtc_ex.c ****         hrtc->State = HAL_RTC_STATE_TIMEOUT;
 1173              		.loc 1 743 0 is_stmt 1
 1174 002a 0320     		movs	r0, #3
 1175 002c 6077     		strb	r0, [r4, #29]
 744:..//Source/stm/lib/STM32L1xx_HAL_Driver/Src/stm32l1xx_hal_rtc_ex.c ****         return HAL_TIMEOUT;
ARM GAS  /tmp/ccTaTHmG.s 			page 35


 1176              		.loc 1 744 0
 1177 002e 70BD     		pop	{r4, r5, r6, pc}
 1178              	.LVL89:
 1179              	.L100:
 745:..//Source/stm/lib/STM32L1xx_HAL_Driver/Src/stm32l1xx_hal_rtc_ex.c ****       }
 746:..//Source/stm/lib/STM32L1xx_HAL_Driver/Src/stm32l1xx_hal_rtc_ex.c ****     }
 747:..//Source/stm/lib/STM32L1xx_HAL_Driver/Src/stm32l1xx_hal_rtc_ex.c ****   }
 748:..//Source/stm/lib/STM32L1xx_HAL_Driver/Src/stm32l1xx_hal_rtc_ex.c **** 
 749:..//Source/stm/lib/STM32L1xx_HAL_Driver/Src/stm32l1xx_hal_rtc_ex.c ****   /* Clear the Tamper Flag */
 750:..//Source/stm/lib/STM32L1xx_HAL_Driver/Src/stm32l1xx_hal_rtc_ex.c ****   __HAL_RTC_TAMPER_CLEAR_FLAG(hrtc, RTC_FLAG_TAMP3F);
 1180              		.loc 1 750 0
 1181 0030 DA68     		ldr	r2, [r3, #12]
 1182 0032 D2B2     		uxtb	r2, r2
 1183 0034 42F07F42 		orr	r2, r2, #-16777216
 1184 0038 42F47F02 		orr	r2, r2, #16711680
 1185 003c 42F4FE42 		orr	r2, r2, #32512
 1186 0040 42F07F02 		orr	r2, r2, #127
 1187 0044 DA60     		str	r2, [r3, #12]
 751:..//Source/stm/lib/STM32L1xx_HAL_Driver/Src/stm32l1xx_hal_rtc_ex.c **** 
 752:..//Source/stm/lib/STM32L1xx_HAL_Driver/Src/stm32l1xx_hal_rtc_ex.c ****   /* Change RTC state */
 753:..//Source/stm/lib/STM32L1xx_HAL_Driver/Src/stm32l1xx_hal_rtc_ex.c ****   hrtc->State = HAL_RTC_STATE_READY;
 1188              		.loc 1 753 0
 1189 0046 0123     		movs	r3, #1
 1190 0048 6377     		strb	r3, [r4, #29]
 754:..//Source/stm/lib/STM32L1xx_HAL_Driver/Src/stm32l1xx_hal_rtc_ex.c **** 
 755:..//Source/stm/lib/STM32L1xx_HAL_Driver/Src/stm32l1xx_hal_rtc_ex.c ****   return HAL_OK;
 1191              		.loc 1 755 0
 1192 004a 0020     		movs	r0, #0
 756:..//Source/stm/lib/STM32L1xx_HAL_Driver/Src/stm32l1xx_hal_rtc_ex.c **** }
 1193              		.loc 1 756 0
 1194 004c 70BD     		pop	{r4, r5, r6, pc}
 1195              		.cfi_endproc
 1196              	.LFE87:
 1198              		.section	.text.HAL_RTCEx_SetWakeUpTimer,"ax",%progbits
 1199              		.align	1
 1200              		.global	HAL_RTCEx_SetWakeUpTimer
 1201              		.syntax unified
 1202              		.thumb
 1203              		.thumb_func
 1204              		.fpu softvfp
 1206              	HAL_RTCEx_SetWakeUpTimer:
 1207              	.LFB88:
 757:..//Source/stm/lib/STM32L1xx_HAL_Driver/Src/stm32l1xx_hal_rtc_ex.c **** #endif /* STM32L100xBA || STM32L151xBA || STM32L152xBA || STM32L100xC || STM32L151xC || STM32L152xC
 758:..//Source/stm/lib/STM32L1xx_HAL_Driver/Src/stm32l1xx_hal_rtc_ex.c **** 
 759:..//Source/stm/lib/STM32L1xx_HAL_Driver/Src/stm32l1xx_hal_rtc_ex.c **** /**
 760:..//Source/stm/lib/STM32L1xx_HAL_Driver/Src/stm32l1xx_hal_rtc_ex.c ****   * @}
 761:..//Source/stm/lib/STM32L1xx_HAL_Driver/Src/stm32l1xx_hal_rtc_ex.c ****   */
 762:..//Source/stm/lib/STM32L1xx_HAL_Driver/Src/stm32l1xx_hal_rtc_ex.c **** 
 763:..//Source/stm/lib/STM32L1xx_HAL_Driver/Src/stm32l1xx_hal_rtc_ex.c **** /** @addtogroup RTCEx_Exported_Functions_Group2
 764:..//Source/stm/lib/STM32L1xx_HAL_Driver/Src/stm32l1xx_hal_rtc_ex.c ****   * @brief    RTC Wake-up functions
 765:..//Source/stm/lib/STM32L1xx_HAL_Driver/Src/stm32l1xx_hal_rtc_ex.c ****   *
 766:..//Source/stm/lib/STM32L1xx_HAL_Driver/Src/stm32l1xx_hal_rtc_ex.c **** @verbatim
 767:..//Source/stm/lib/STM32L1xx_HAL_Driver/Src/stm32l1xx_hal_rtc_ex.c ****  ===============================================================================
 768:..//Source/stm/lib/STM32L1xx_HAL_Driver/Src/stm32l1xx_hal_rtc_ex.c ****                         ##### RTC Wake-up functions #####
 769:..//Source/stm/lib/STM32L1xx_HAL_Driver/Src/stm32l1xx_hal_rtc_ex.c ****  ===============================================================================
 770:..//Source/stm/lib/STM32L1xx_HAL_Driver/Src/stm32l1xx_hal_rtc_ex.c **** 
 771:..//Source/stm/lib/STM32L1xx_HAL_Driver/Src/stm32l1xx_hal_rtc_ex.c ****  [..] This section provides functions allowing to configure Wake-up feature
ARM GAS  /tmp/ccTaTHmG.s 			page 36


 772:..//Source/stm/lib/STM32L1xx_HAL_Driver/Src/stm32l1xx_hal_rtc_ex.c **** 
 773:..//Source/stm/lib/STM32L1xx_HAL_Driver/Src/stm32l1xx_hal_rtc_ex.c **** @endverbatim
 774:..//Source/stm/lib/STM32L1xx_HAL_Driver/Src/stm32l1xx_hal_rtc_ex.c ****   * @{
 775:..//Source/stm/lib/STM32L1xx_HAL_Driver/Src/stm32l1xx_hal_rtc_ex.c ****   */
 776:..//Source/stm/lib/STM32L1xx_HAL_Driver/Src/stm32l1xx_hal_rtc_ex.c **** 
 777:..//Source/stm/lib/STM32L1xx_HAL_Driver/Src/stm32l1xx_hal_rtc_ex.c **** /**
 778:..//Source/stm/lib/STM32L1xx_HAL_Driver/Src/stm32l1xx_hal_rtc_ex.c ****   * @brief  Set wake up timer.
 779:..//Source/stm/lib/STM32L1xx_HAL_Driver/Src/stm32l1xx_hal_rtc_ex.c ****   * @param  hrtc RTC handle
 780:..//Source/stm/lib/STM32L1xx_HAL_Driver/Src/stm32l1xx_hal_rtc_ex.c ****   * @param  WakeUpCounter Wake up counter
 781:..//Source/stm/lib/STM32L1xx_HAL_Driver/Src/stm32l1xx_hal_rtc_ex.c ****   * @param  WakeUpClock Wake up clock
 782:..//Source/stm/lib/STM32L1xx_HAL_Driver/Src/stm32l1xx_hal_rtc_ex.c ****   * @retval HAL status
 783:..//Source/stm/lib/STM32L1xx_HAL_Driver/Src/stm32l1xx_hal_rtc_ex.c ****   */
 784:..//Source/stm/lib/STM32L1xx_HAL_Driver/Src/stm32l1xx_hal_rtc_ex.c **** HAL_StatusTypeDef HAL_RTCEx_SetWakeUpTimer(RTC_HandleTypeDef *hrtc, uint32_t WakeUpCounter, uint32_
 785:..//Source/stm/lib/STM32L1xx_HAL_Driver/Src/stm32l1xx_hal_rtc_ex.c **** {
 1208              		.loc 1 785 0
 1209              		.cfi_startproc
 1210              		@ args = 0, pretend = 0, frame = 0
 1211              		@ frame_needed = 0, uses_anonymous_args = 0
 1212              	.LVL90:
 1213 0000 F8B5     		push	{r3, r4, r5, r6, r7, lr}
 1214              	.LCFI20:
 1215              		.cfi_def_cfa_offset 24
 1216              		.cfi_offset 3, -24
 1217              		.cfi_offset 4, -20
 1218              		.cfi_offset 5, -16
 1219              		.cfi_offset 6, -12
 1220              		.cfi_offset 7, -8
 1221              		.cfi_offset 14, -4
 786:..//Source/stm/lib/STM32L1xx_HAL_Driver/Src/stm32l1xx_hal_rtc_ex.c ****   uint32_t tickstart;
 787:..//Source/stm/lib/STM32L1xx_HAL_Driver/Src/stm32l1xx_hal_rtc_ex.c **** 
 788:..//Source/stm/lib/STM32L1xx_HAL_Driver/Src/stm32l1xx_hal_rtc_ex.c ****   /* Check the parameters */
 789:..//Source/stm/lib/STM32L1xx_HAL_Driver/Src/stm32l1xx_hal_rtc_ex.c ****   assert_param(IS_RTC_WAKEUP_CLOCK(WakeUpClock));
 790:..//Source/stm/lib/STM32L1xx_HAL_Driver/Src/stm32l1xx_hal_rtc_ex.c ****   assert_param(IS_RTC_WAKEUP_COUNTER(WakeUpCounter));
 791:..//Source/stm/lib/STM32L1xx_HAL_Driver/Src/stm32l1xx_hal_rtc_ex.c **** 
 792:..//Source/stm/lib/STM32L1xx_HAL_Driver/Src/stm32l1xx_hal_rtc_ex.c ****   /* Process Locked */
 793:..//Source/stm/lib/STM32L1xx_HAL_Driver/Src/stm32l1xx_hal_rtc_ex.c ****   __HAL_LOCK(hrtc);
 1222              		.loc 1 793 0
 1223 0002 037F     		ldrb	r3, [r0, #28]	@ zero_extendqisi2
 1224 0004 012B     		cmp	r3, #1
 1225 0006 59D0     		beq	.L108
 1226 0008 1646     		mov	r6, r2
 1227 000a 0D46     		mov	r5, r1
 1228 000c 0446     		mov	r4, r0
 1229              		.loc 1 793 0 is_stmt 0 discriminator 2
 1230 000e 0123     		movs	r3, #1
 1231 0010 0377     		strb	r3, [r0, #28]
 794:..//Source/stm/lib/STM32L1xx_HAL_Driver/Src/stm32l1xx_hal_rtc_ex.c **** 
 795:..//Source/stm/lib/STM32L1xx_HAL_Driver/Src/stm32l1xx_hal_rtc_ex.c ****   hrtc->State = HAL_RTC_STATE_BUSY;
 1232              		.loc 1 795 0 is_stmt 1 discriminator 2
 1233 0012 0223     		movs	r3, #2
 1234 0014 4377     		strb	r3, [r0, #29]
 796:..//Source/stm/lib/STM32L1xx_HAL_Driver/Src/stm32l1xx_hal_rtc_ex.c **** 
 797:..//Source/stm/lib/STM32L1xx_HAL_Driver/Src/stm32l1xx_hal_rtc_ex.c ****   /* Disable the write protection for RTC registers */
 798:..//Source/stm/lib/STM32L1xx_HAL_Driver/Src/stm32l1xx_hal_rtc_ex.c ****   __HAL_RTC_WRITEPROTECTION_DISABLE(hrtc);
 1235              		.loc 1 798 0 discriminator 2
 1236 0016 0368     		ldr	r3, [r0]
 1237 0018 CA22     		movs	r2, #202
ARM GAS  /tmp/ccTaTHmG.s 			page 37


 1238              	.LVL91:
 1239 001a 5A62     		str	r2, [r3, #36]
 1240 001c 0368     		ldr	r3, [r0]
 1241 001e 5322     		movs	r2, #83
 1242 0020 5A62     		str	r2, [r3, #36]
 799:..//Source/stm/lib/STM32L1xx_HAL_Driver/Src/stm32l1xx_hal_rtc_ex.c **** 
 800:..//Source/stm/lib/STM32L1xx_HAL_Driver/Src/stm32l1xx_hal_rtc_ex.c ****   /*Check RTC WUTWF flag is reset only when wake up timer enabled*/
 801:..//Source/stm/lib/STM32L1xx_HAL_Driver/Src/stm32l1xx_hal_rtc_ex.c ****   if ((hrtc->Instance->CR & RTC_CR_WUTE) != 0U)
 1243              		.loc 1 801 0 discriminator 2
 1244 0022 0368     		ldr	r3, [r0]
 1245 0024 9B68     		ldr	r3, [r3, #8]
 1246 0026 13F4806F 		tst	r3, #1024
 1247 002a 15D0     		beq	.L103
 802:..//Source/stm/lib/STM32L1xx_HAL_Driver/Src/stm32l1xx_hal_rtc_ex.c ****   {
 803:..//Source/stm/lib/STM32L1xx_HAL_Driver/Src/stm32l1xx_hal_rtc_ex.c ****     tickstart = HAL_GetTick();
 1248              		.loc 1 803 0
 1249 002c FFF7FEFF 		bl	HAL_GetTick
 1250              	.LVL92:
 1251 0030 0746     		mov	r7, r0
 1252              	.LVL93:
 1253              	.L104:
 804:..//Source/stm/lib/STM32L1xx_HAL_Driver/Src/stm32l1xx_hal_rtc_ex.c **** 
 805:..//Source/stm/lib/STM32L1xx_HAL_Driver/Src/stm32l1xx_hal_rtc_ex.c ****     /* Wait till RTC WUTWF flag is reset and if Time out is reached exit */
 806:..//Source/stm/lib/STM32L1xx_HAL_Driver/Src/stm32l1xx_hal_rtc_ex.c ****     while (__HAL_RTC_WAKEUPTIMER_GET_FLAG(hrtc, RTC_FLAG_WUTWF) == 1U)
 1254              		.loc 1 806 0
 1255 0032 2368     		ldr	r3, [r4]
 1256 0034 DB68     		ldr	r3, [r3, #12]
 1257 0036 13F0040F 		tst	r3, #4
 1258 003a 0DD0     		beq	.L103
 807:..//Source/stm/lib/STM32L1xx_HAL_Driver/Src/stm32l1xx_hal_rtc_ex.c ****     {
 808:..//Source/stm/lib/STM32L1xx_HAL_Driver/Src/stm32l1xx_hal_rtc_ex.c ****       if ((HAL_GetTick() - tickstart) > RTC_TIMEOUT_VALUE)
 1259              		.loc 1 808 0
 1260 003c FFF7FEFF 		bl	HAL_GetTick
 1261              	.LVL94:
 1262 0040 C01B     		subs	r0, r0, r7
 1263 0042 B0F57A7F 		cmp	r0, #1000
 1264 0046 F4D9     		bls	.L104
 809:..//Source/stm/lib/STM32L1xx_HAL_Driver/Src/stm32l1xx_hal_rtc_ex.c ****       {
 810:..//Source/stm/lib/STM32L1xx_HAL_Driver/Src/stm32l1xx_hal_rtc_ex.c ****         /* Enable the write protection for RTC registers */
 811:..//Source/stm/lib/STM32L1xx_HAL_Driver/Src/stm32l1xx_hal_rtc_ex.c ****         __HAL_RTC_WRITEPROTECTION_ENABLE(hrtc);
 1265              		.loc 1 811 0
 1266 0048 2368     		ldr	r3, [r4]
 1267 004a FF22     		movs	r2, #255
 1268 004c 5A62     		str	r2, [r3, #36]
 812:..//Source/stm/lib/STM32L1xx_HAL_Driver/Src/stm32l1xx_hal_rtc_ex.c **** 
 813:..//Source/stm/lib/STM32L1xx_HAL_Driver/Src/stm32l1xx_hal_rtc_ex.c ****         hrtc->State = HAL_RTC_STATE_TIMEOUT;
 1269              		.loc 1 813 0
 1270 004e 0320     		movs	r0, #3
 1271 0050 6077     		strb	r0, [r4, #29]
 814:..//Source/stm/lib/STM32L1xx_HAL_Driver/Src/stm32l1xx_hal_rtc_ex.c **** 
 815:..//Source/stm/lib/STM32L1xx_HAL_Driver/Src/stm32l1xx_hal_rtc_ex.c ****         /* Process Unlocked */
 816:..//Source/stm/lib/STM32L1xx_HAL_Driver/Src/stm32l1xx_hal_rtc_ex.c ****         __HAL_UNLOCK(hrtc);
 1272              		.loc 1 816 0
 1273 0052 0023     		movs	r3, #0
 1274 0054 2377     		strb	r3, [r4, #28]
 817:..//Source/stm/lib/STM32L1xx_HAL_Driver/Src/stm32l1xx_hal_rtc_ex.c **** 
 818:..//Source/stm/lib/STM32L1xx_HAL_Driver/Src/stm32l1xx_hal_rtc_ex.c ****         return HAL_TIMEOUT;
ARM GAS  /tmp/ccTaTHmG.s 			page 38


 1275              		.loc 1 818 0
 1276 0056 F8BD     		pop	{r3, r4, r5, r6, r7, pc}
 1277              	.LVL95:
 1278              	.L103:
 819:..//Source/stm/lib/STM32L1xx_HAL_Driver/Src/stm32l1xx_hal_rtc_ex.c ****       }
 820:..//Source/stm/lib/STM32L1xx_HAL_Driver/Src/stm32l1xx_hal_rtc_ex.c ****     }
 821:..//Source/stm/lib/STM32L1xx_HAL_Driver/Src/stm32l1xx_hal_rtc_ex.c ****   }
 822:..//Source/stm/lib/STM32L1xx_HAL_Driver/Src/stm32l1xx_hal_rtc_ex.c **** 
 823:..//Source/stm/lib/STM32L1xx_HAL_Driver/Src/stm32l1xx_hal_rtc_ex.c ****   __HAL_RTC_WAKEUPTIMER_DISABLE(hrtc);
 1279              		.loc 1 823 0
 1280 0058 2268     		ldr	r2, [r4]
 1281 005a 9368     		ldr	r3, [r2, #8]
 1282 005c 23F48063 		bic	r3, r3, #1024
 1283 0060 9360     		str	r3, [r2, #8]
 824:..//Source/stm/lib/STM32L1xx_HAL_Driver/Src/stm32l1xx_hal_rtc_ex.c **** 
 825:..//Source/stm/lib/STM32L1xx_HAL_Driver/Src/stm32l1xx_hal_rtc_ex.c ****   tickstart = HAL_GetTick();
 1284              		.loc 1 825 0
 1285 0062 FFF7FEFF 		bl	HAL_GetTick
 1286              	.LVL96:
 1287 0066 0746     		mov	r7, r0
 1288              	.LVL97:
 1289              	.L106:
 826:..//Source/stm/lib/STM32L1xx_HAL_Driver/Src/stm32l1xx_hal_rtc_ex.c **** 
 827:..//Source/stm/lib/STM32L1xx_HAL_Driver/Src/stm32l1xx_hal_rtc_ex.c ****   /* Wait till RTC WUTWF flag is set and if Time out is reached exit */
 828:..//Source/stm/lib/STM32L1xx_HAL_Driver/Src/stm32l1xx_hal_rtc_ex.c ****   while (__HAL_RTC_WAKEUPTIMER_GET_FLAG(hrtc, RTC_FLAG_WUTWF) == 0U)
 1290              		.loc 1 828 0
 1291 0068 2368     		ldr	r3, [r4]
 1292 006a D868     		ldr	r0, [r3, #12]
 1293 006c 10F0040F 		tst	r0, #4
 1294 0070 0DD1     		bne	.L110
 829:..//Source/stm/lib/STM32L1xx_HAL_Driver/Src/stm32l1xx_hal_rtc_ex.c ****   {
 830:..//Source/stm/lib/STM32L1xx_HAL_Driver/Src/stm32l1xx_hal_rtc_ex.c ****     if ((HAL_GetTick() - tickstart) >  RTC_TIMEOUT_VALUE)
 1295              		.loc 1 830 0
 1296 0072 FFF7FEFF 		bl	HAL_GetTick
 1297              	.LVL98:
 1298 0076 C01B     		subs	r0, r0, r7
 1299 0078 B0F57A7F 		cmp	r0, #1000
 1300 007c F4D9     		bls	.L106
 831:..//Source/stm/lib/STM32L1xx_HAL_Driver/Src/stm32l1xx_hal_rtc_ex.c ****     {
 832:..//Source/stm/lib/STM32L1xx_HAL_Driver/Src/stm32l1xx_hal_rtc_ex.c ****       /* Enable the write protection for RTC registers */
 833:..//Source/stm/lib/STM32L1xx_HAL_Driver/Src/stm32l1xx_hal_rtc_ex.c ****       __HAL_RTC_WRITEPROTECTION_ENABLE(hrtc);
 1301              		.loc 1 833 0
 1302 007e 2368     		ldr	r3, [r4]
 1303 0080 FF22     		movs	r2, #255
 1304 0082 5A62     		str	r2, [r3, #36]
 834:..//Source/stm/lib/STM32L1xx_HAL_Driver/Src/stm32l1xx_hal_rtc_ex.c **** 
 835:..//Source/stm/lib/STM32L1xx_HAL_Driver/Src/stm32l1xx_hal_rtc_ex.c ****       hrtc->State = HAL_RTC_STATE_TIMEOUT;
 1305              		.loc 1 835 0
 1306 0084 0320     		movs	r0, #3
 1307 0086 6077     		strb	r0, [r4, #29]
 836:..//Source/stm/lib/STM32L1xx_HAL_Driver/Src/stm32l1xx_hal_rtc_ex.c **** 
 837:..//Source/stm/lib/STM32L1xx_HAL_Driver/Src/stm32l1xx_hal_rtc_ex.c ****       /* Process Unlocked */
 838:..//Source/stm/lib/STM32L1xx_HAL_Driver/Src/stm32l1xx_hal_rtc_ex.c ****       __HAL_UNLOCK(hrtc);
 1308              		.loc 1 838 0
 1309 0088 0023     		movs	r3, #0
 1310 008a 2377     		strb	r3, [r4, #28]
 839:..//Source/stm/lib/STM32L1xx_HAL_Driver/Src/stm32l1xx_hal_rtc_ex.c **** 
ARM GAS  /tmp/ccTaTHmG.s 			page 39


 840:..//Source/stm/lib/STM32L1xx_HAL_Driver/Src/stm32l1xx_hal_rtc_ex.c ****       return HAL_TIMEOUT;
 1311              		.loc 1 840 0
 1312 008c F8BD     		pop	{r3, r4, r5, r6, r7, pc}
 1313              	.LVL99:
 1314              	.L110:
 841:..//Source/stm/lib/STM32L1xx_HAL_Driver/Src/stm32l1xx_hal_rtc_ex.c ****     }
 842:..//Source/stm/lib/STM32L1xx_HAL_Driver/Src/stm32l1xx_hal_rtc_ex.c ****   }
 843:..//Source/stm/lib/STM32L1xx_HAL_Driver/Src/stm32l1xx_hal_rtc_ex.c **** 
 844:..//Source/stm/lib/STM32L1xx_HAL_Driver/Src/stm32l1xx_hal_rtc_ex.c ****   /* Clear the Wakeup Timer clock source bits in CR register */
 845:..//Source/stm/lib/STM32L1xx_HAL_Driver/Src/stm32l1xx_hal_rtc_ex.c ****   hrtc->Instance->CR &= (uint32_t)~RTC_CR_WUCKSEL;
 1315              		.loc 1 845 0
 1316 008e 9A68     		ldr	r2, [r3, #8]
 1317 0090 22F00702 		bic	r2, r2, #7
 1318 0094 9A60     		str	r2, [r3, #8]
 846:..//Source/stm/lib/STM32L1xx_HAL_Driver/Src/stm32l1xx_hal_rtc_ex.c **** 
 847:..//Source/stm/lib/STM32L1xx_HAL_Driver/Src/stm32l1xx_hal_rtc_ex.c ****   /* Configure the clock source */
 848:..//Source/stm/lib/STM32L1xx_HAL_Driver/Src/stm32l1xx_hal_rtc_ex.c ****   hrtc->Instance->CR |= (uint32_t)WakeUpClock;
 1319              		.loc 1 848 0
 1320 0096 2268     		ldr	r2, [r4]
 1321 0098 9368     		ldr	r3, [r2, #8]
 1322 009a 1E43     		orrs	r6, r6, r3
 1323              	.LVL100:
 1324 009c 9660     		str	r6, [r2, #8]
 849:..//Source/stm/lib/STM32L1xx_HAL_Driver/Src/stm32l1xx_hal_rtc_ex.c **** 
 850:..//Source/stm/lib/STM32L1xx_HAL_Driver/Src/stm32l1xx_hal_rtc_ex.c ****   /* Configure the Wakeup Timer counter */
 851:..//Source/stm/lib/STM32L1xx_HAL_Driver/Src/stm32l1xx_hal_rtc_ex.c ****   hrtc->Instance->WUTR = (uint32_t)WakeUpCounter;
 1325              		.loc 1 851 0
 1326 009e 2368     		ldr	r3, [r4]
 1327 00a0 5D61     		str	r5, [r3, #20]
 852:..//Source/stm/lib/STM32L1xx_HAL_Driver/Src/stm32l1xx_hal_rtc_ex.c **** 
 853:..//Source/stm/lib/STM32L1xx_HAL_Driver/Src/stm32l1xx_hal_rtc_ex.c ****   /* Enable the Wakeup Timer */
 854:..//Source/stm/lib/STM32L1xx_HAL_Driver/Src/stm32l1xx_hal_rtc_ex.c ****   __HAL_RTC_WAKEUPTIMER_ENABLE(hrtc);
 1328              		.loc 1 854 0
 1329 00a2 2268     		ldr	r2, [r4]
 1330 00a4 9368     		ldr	r3, [r2, #8]
 1331 00a6 43F48063 		orr	r3, r3, #1024
 1332 00aa 9360     		str	r3, [r2, #8]
 855:..//Source/stm/lib/STM32L1xx_HAL_Driver/Src/stm32l1xx_hal_rtc_ex.c **** 
 856:..//Source/stm/lib/STM32L1xx_HAL_Driver/Src/stm32l1xx_hal_rtc_ex.c ****   /* Enable the write protection for RTC registers */
 857:..//Source/stm/lib/STM32L1xx_HAL_Driver/Src/stm32l1xx_hal_rtc_ex.c ****   __HAL_RTC_WRITEPROTECTION_ENABLE(hrtc);
 1333              		.loc 1 857 0
 1334 00ac 2368     		ldr	r3, [r4]
 1335 00ae FF22     		movs	r2, #255
 1336 00b0 5A62     		str	r2, [r3, #36]
 858:..//Source/stm/lib/STM32L1xx_HAL_Driver/Src/stm32l1xx_hal_rtc_ex.c **** 
 859:..//Source/stm/lib/STM32L1xx_HAL_Driver/Src/stm32l1xx_hal_rtc_ex.c ****   hrtc->State = HAL_RTC_STATE_READY;
 1337              		.loc 1 859 0
 1338 00b2 0123     		movs	r3, #1
 1339 00b4 6377     		strb	r3, [r4, #29]
 860:..//Source/stm/lib/STM32L1xx_HAL_Driver/Src/stm32l1xx_hal_rtc_ex.c **** 
 861:..//Source/stm/lib/STM32L1xx_HAL_Driver/Src/stm32l1xx_hal_rtc_ex.c ****   /* Process Unlocked */
 862:..//Source/stm/lib/STM32L1xx_HAL_Driver/Src/stm32l1xx_hal_rtc_ex.c ****   __HAL_UNLOCK(hrtc);
 1340              		.loc 1 862 0
 1341 00b6 0020     		movs	r0, #0
 1342 00b8 2077     		strb	r0, [r4, #28]
 863:..//Source/stm/lib/STM32L1xx_HAL_Driver/Src/stm32l1xx_hal_rtc_ex.c **** 
 864:..//Source/stm/lib/STM32L1xx_HAL_Driver/Src/stm32l1xx_hal_rtc_ex.c ****   return HAL_OK;
ARM GAS  /tmp/ccTaTHmG.s 			page 40


 1343              		.loc 1 864 0
 1344 00ba F8BD     		pop	{r3, r4, r5, r6, r7, pc}
 1345              	.LVL101:
 1346              	.L108:
 793:..//Source/stm/lib/STM32L1xx_HAL_Driver/Src/stm32l1xx_hal_rtc_ex.c **** 
 1347              		.loc 1 793 0
 1348 00bc 0220     		movs	r0, #2
 1349              	.LVL102:
 865:..//Source/stm/lib/STM32L1xx_HAL_Driver/Src/stm32l1xx_hal_rtc_ex.c **** }
 1350              		.loc 1 865 0
 1351 00be F8BD     		pop	{r3, r4, r5, r6, r7, pc}
 1352              		.cfi_endproc
 1353              	.LFE88:
 1355              		.section	.text.HAL_RTCEx_SetWakeUpTimer_IT,"ax",%progbits
 1356              		.align	1
 1357              		.global	HAL_RTCEx_SetWakeUpTimer_IT
 1358              		.syntax unified
 1359              		.thumb
 1360              		.thumb_func
 1361              		.fpu softvfp
 1363              	HAL_RTCEx_SetWakeUpTimer_IT:
 1364              	.LFB89:
 866:..//Source/stm/lib/STM32L1xx_HAL_Driver/Src/stm32l1xx_hal_rtc_ex.c **** 
 867:..//Source/stm/lib/STM32L1xx_HAL_Driver/Src/stm32l1xx_hal_rtc_ex.c **** /**
 868:..//Source/stm/lib/STM32L1xx_HAL_Driver/Src/stm32l1xx_hal_rtc_ex.c ****   * @brief  Set wake up timer with interrupt.
 869:..//Source/stm/lib/STM32L1xx_HAL_Driver/Src/stm32l1xx_hal_rtc_ex.c ****   * @param  hrtc RTC handle
 870:..//Source/stm/lib/STM32L1xx_HAL_Driver/Src/stm32l1xx_hal_rtc_ex.c ****   * @param  WakeUpCounter Wake up counter
 871:..//Source/stm/lib/STM32L1xx_HAL_Driver/Src/stm32l1xx_hal_rtc_ex.c ****   * @param  WakeUpClock Wake up clock
 872:..//Source/stm/lib/STM32L1xx_HAL_Driver/Src/stm32l1xx_hal_rtc_ex.c ****   * @retval HAL status
 873:..//Source/stm/lib/STM32L1xx_HAL_Driver/Src/stm32l1xx_hal_rtc_ex.c ****   */
 874:..//Source/stm/lib/STM32L1xx_HAL_Driver/Src/stm32l1xx_hal_rtc_ex.c **** HAL_StatusTypeDef HAL_RTCEx_SetWakeUpTimer_IT(RTC_HandleTypeDef *hrtc, uint32_t WakeUpCounter, uint
 875:..//Source/stm/lib/STM32L1xx_HAL_Driver/Src/stm32l1xx_hal_rtc_ex.c **** {
 1365              		.loc 1 875 0
 1366              		.cfi_startproc
 1367              		@ args = 0, pretend = 0, frame = 0
 1368              		@ frame_needed = 0, uses_anonymous_args = 0
 1369              	.LVL103:
 1370 0000 F8B5     		push	{r3, r4, r5, r6, r7, lr}
 1371              	.LCFI21:
 1372              		.cfi_def_cfa_offset 24
 1373              		.cfi_offset 3, -24
 1374              		.cfi_offset 4, -20
 1375              		.cfi_offset 5, -16
 1376              		.cfi_offset 6, -12
 1377              		.cfi_offset 7, -8
 1378              		.cfi_offset 14, -4
 876:..//Source/stm/lib/STM32L1xx_HAL_Driver/Src/stm32l1xx_hal_rtc_ex.c ****   uint32_t tickstart;
 877:..//Source/stm/lib/STM32L1xx_HAL_Driver/Src/stm32l1xx_hal_rtc_ex.c **** 
 878:..//Source/stm/lib/STM32L1xx_HAL_Driver/Src/stm32l1xx_hal_rtc_ex.c ****   /* Check the parameters */
 879:..//Source/stm/lib/STM32L1xx_HAL_Driver/Src/stm32l1xx_hal_rtc_ex.c ****   assert_param(IS_RTC_WAKEUP_CLOCK(WakeUpClock));
 880:..//Source/stm/lib/STM32L1xx_HAL_Driver/Src/stm32l1xx_hal_rtc_ex.c ****   assert_param(IS_RTC_WAKEUP_COUNTER(WakeUpCounter));
 881:..//Source/stm/lib/STM32L1xx_HAL_Driver/Src/stm32l1xx_hal_rtc_ex.c **** 
 882:..//Source/stm/lib/STM32L1xx_HAL_Driver/Src/stm32l1xx_hal_rtc_ex.c ****   /* Process Locked */
 883:..//Source/stm/lib/STM32L1xx_HAL_Driver/Src/stm32l1xx_hal_rtc_ex.c ****   __HAL_LOCK(hrtc);
 1379              		.loc 1 883 0
 1380 0002 037F     		ldrb	r3, [r0, #28]	@ zero_extendqisi2
 1381 0004 012B     		cmp	r3, #1
ARM GAS  /tmp/ccTaTHmG.s 			page 41


 1382 0006 6DD0     		beq	.L118
 1383 0008 1546     		mov	r5, r2
 1384 000a 0E46     		mov	r6, r1
 1385 000c 0446     		mov	r4, r0
 1386              		.loc 1 883 0 is_stmt 0 discriminator 2
 1387 000e 0123     		movs	r3, #1
 1388 0010 0377     		strb	r3, [r0, #28]
 884:..//Source/stm/lib/STM32L1xx_HAL_Driver/Src/stm32l1xx_hal_rtc_ex.c **** 
 885:..//Source/stm/lib/STM32L1xx_HAL_Driver/Src/stm32l1xx_hal_rtc_ex.c ****   hrtc->State = HAL_RTC_STATE_BUSY;
 1389              		.loc 1 885 0 is_stmt 1 discriminator 2
 1390 0012 0223     		movs	r3, #2
 1391 0014 4377     		strb	r3, [r0, #29]
 886:..//Source/stm/lib/STM32L1xx_HAL_Driver/Src/stm32l1xx_hal_rtc_ex.c **** 
 887:..//Source/stm/lib/STM32L1xx_HAL_Driver/Src/stm32l1xx_hal_rtc_ex.c ****   /* Disable the write protection for RTC registers */
 888:..//Source/stm/lib/STM32L1xx_HAL_Driver/Src/stm32l1xx_hal_rtc_ex.c ****   __HAL_RTC_WRITEPROTECTION_DISABLE(hrtc);
 1392              		.loc 1 888 0 discriminator 2
 1393 0016 0368     		ldr	r3, [r0]
 1394 0018 CA22     		movs	r2, #202
 1395              	.LVL104:
 1396 001a 5A62     		str	r2, [r3, #36]
 1397 001c 0368     		ldr	r3, [r0]
 1398 001e 5322     		movs	r2, #83
 1399 0020 5A62     		str	r2, [r3, #36]
 889:..//Source/stm/lib/STM32L1xx_HAL_Driver/Src/stm32l1xx_hal_rtc_ex.c **** 
 890:..//Source/stm/lib/STM32L1xx_HAL_Driver/Src/stm32l1xx_hal_rtc_ex.c ****   /*Check RTC WUTWF flag is reset only when wake up timer enabled*/
 891:..//Source/stm/lib/STM32L1xx_HAL_Driver/Src/stm32l1xx_hal_rtc_ex.c ****   if ((hrtc->Instance->CR & RTC_CR_WUTE) != 0U)
 1400              		.loc 1 891 0 discriminator 2
 1401 0022 0368     		ldr	r3, [r0]
 1402 0024 9B68     		ldr	r3, [r3, #8]
 1403 0026 13F4806F 		tst	r3, #1024
 1404 002a 15D0     		beq	.L113
 892:..//Source/stm/lib/STM32L1xx_HAL_Driver/Src/stm32l1xx_hal_rtc_ex.c ****   {
 893:..//Source/stm/lib/STM32L1xx_HAL_Driver/Src/stm32l1xx_hal_rtc_ex.c ****     tickstart = HAL_GetTick();
 1405              		.loc 1 893 0
 1406 002c FFF7FEFF 		bl	HAL_GetTick
 1407              	.LVL105:
 1408 0030 0746     		mov	r7, r0
 1409              	.LVL106:
 1410              	.L114:
 894:..//Source/stm/lib/STM32L1xx_HAL_Driver/Src/stm32l1xx_hal_rtc_ex.c **** 
 895:..//Source/stm/lib/STM32L1xx_HAL_Driver/Src/stm32l1xx_hal_rtc_ex.c ****     /* Wait till RTC WUTWF flag is reset and if Time out is reached exit */
 896:..//Source/stm/lib/STM32L1xx_HAL_Driver/Src/stm32l1xx_hal_rtc_ex.c ****     while (__HAL_RTC_WAKEUPTIMER_GET_FLAG(hrtc, RTC_FLAG_WUTWF) == 1U)
 1411              		.loc 1 896 0
 1412 0032 2368     		ldr	r3, [r4]
 1413 0034 DB68     		ldr	r3, [r3, #12]
 1414 0036 13F0040F 		tst	r3, #4
 1415 003a 0DD0     		beq	.L113
 897:..//Source/stm/lib/STM32L1xx_HAL_Driver/Src/stm32l1xx_hal_rtc_ex.c ****     {
 898:..//Source/stm/lib/STM32L1xx_HAL_Driver/Src/stm32l1xx_hal_rtc_ex.c ****       if ((HAL_GetTick() - tickstart) > RTC_TIMEOUT_VALUE)
 1416              		.loc 1 898 0
 1417 003c FFF7FEFF 		bl	HAL_GetTick
 1418              	.LVL107:
 1419 0040 C01B     		subs	r0, r0, r7
 1420 0042 B0F57A7F 		cmp	r0, #1000
 1421 0046 F4D9     		bls	.L114
 899:..//Source/stm/lib/STM32L1xx_HAL_Driver/Src/stm32l1xx_hal_rtc_ex.c ****       {
 900:..//Source/stm/lib/STM32L1xx_HAL_Driver/Src/stm32l1xx_hal_rtc_ex.c ****         /* Enable the write protection for RTC registers */
ARM GAS  /tmp/ccTaTHmG.s 			page 42


 901:..//Source/stm/lib/STM32L1xx_HAL_Driver/Src/stm32l1xx_hal_rtc_ex.c ****         __HAL_RTC_WRITEPROTECTION_ENABLE(hrtc);
 1422              		.loc 1 901 0
 1423 0048 2368     		ldr	r3, [r4]
 1424 004a FF22     		movs	r2, #255
 1425 004c 5A62     		str	r2, [r3, #36]
 902:..//Source/stm/lib/STM32L1xx_HAL_Driver/Src/stm32l1xx_hal_rtc_ex.c **** 
 903:..//Source/stm/lib/STM32L1xx_HAL_Driver/Src/stm32l1xx_hal_rtc_ex.c ****         hrtc->State = HAL_RTC_STATE_TIMEOUT;
 1426              		.loc 1 903 0
 1427 004e 0320     		movs	r0, #3
 1428 0050 6077     		strb	r0, [r4, #29]
 904:..//Source/stm/lib/STM32L1xx_HAL_Driver/Src/stm32l1xx_hal_rtc_ex.c **** 
 905:..//Source/stm/lib/STM32L1xx_HAL_Driver/Src/stm32l1xx_hal_rtc_ex.c ****         /* Process Unlocked */
 906:..//Source/stm/lib/STM32L1xx_HAL_Driver/Src/stm32l1xx_hal_rtc_ex.c ****         __HAL_UNLOCK(hrtc);
 1429              		.loc 1 906 0
 1430 0052 0023     		movs	r3, #0
 1431 0054 2377     		strb	r3, [r4, #28]
 907:..//Source/stm/lib/STM32L1xx_HAL_Driver/Src/stm32l1xx_hal_rtc_ex.c **** 
 908:..//Source/stm/lib/STM32L1xx_HAL_Driver/Src/stm32l1xx_hal_rtc_ex.c ****         return HAL_TIMEOUT;
 1432              		.loc 1 908 0
 1433 0056 F8BD     		pop	{r3, r4, r5, r6, r7, pc}
 1434              	.LVL108:
 1435              	.L113:
 909:..//Source/stm/lib/STM32L1xx_HAL_Driver/Src/stm32l1xx_hal_rtc_ex.c ****       }
 910:..//Source/stm/lib/STM32L1xx_HAL_Driver/Src/stm32l1xx_hal_rtc_ex.c ****     }
 911:..//Source/stm/lib/STM32L1xx_HAL_Driver/Src/stm32l1xx_hal_rtc_ex.c ****   }
 912:..//Source/stm/lib/STM32L1xx_HAL_Driver/Src/stm32l1xx_hal_rtc_ex.c **** 
 913:..//Source/stm/lib/STM32L1xx_HAL_Driver/Src/stm32l1xx_hal_rtc_ex.c ****   /* Disable the Wake-Up timer */
 914:..//Source/stm/lib/STM32L1xx_HAL_Driver/Src/stm32l1xx_hal_rtc_ex.c ****   __HAL_RTC_WAKEUPTIMER_DISABLE(hrtc);
 1436              		.loc 1 914 0
 1437 0058 2268     		ldr	r2, [r4]
 1438 005a 9368     		ldr	r3, [r2, #8]
 1439 005c 23F48063 		bic	r3, r3, #1024
 1440 0060 9360     		str	r3, [r2, #8]
 915:..//Source/stm/lib/STM32L1xx_HAL_Driver/Src/stm32l1xx_hal_rtc_ex.c **** 
 916:..//Source/stm/lib/STM32L1xx_HAL_Driver/Src/stm32l1xx_hal_rtc_ex.c ****   /* Clear flag Wake-Up */
 917:..//Source/stm/lib/STM32L1xx_HAL_Driver/Src/stm32l1xx_hal_rtc_ex.c ****   __HAL_RTC_WAKEUPTIMER_CLEAR_FLAG(hrtc, RTC_FLAG_WUTF);
 1441              		.loc 1 917 0
 1442 0062 2268     		ldr	r2, [r4]
 1443 0064 D368     		ldr	r3, [r2, #12]
 1444 0066 DBB2     		uxtb	r3, r3
 1445 0068 63F49063 		orn	r3, r3, #1152
 1446 006c D360     		str	r3, [r2, #12]
 918:..//Source/stm/lib/STM32L1xx_HAL_Driver/Src/stm32l1xx_hal_rtc_ex.c **** 
 919:..//Source/stm/lib/STM32L1xx_HAL_Driver/Src/stm32l1xx_hal_rtc_ex.c ****   tickstart = HAL_GetTick();
 1447              		.loc 1 919 0
 1448 006e FFF7FEFF 		bl	HAL_GetTick
 1449              	.LVL109:
 1450 0072 0746     		mov	r7, r0
 1451              	.LVL110:
 1452              	.L116:
 920:..//Source/stm/lib/STM32L1xx_HAL_Driver/Src/stm32l1xx_hal_rtc_ex.c **** 
 921:..//Source/stm/lib/STM32L1xx_HAL_Driver/Src/stm32l1xx_hal_rtc_ex.c ****   /* Wait till RTC WUTWF flag is set and if Time out is reached exit */
 922:..//Source/stm/lib/STM32L1xx_HAL_Driver/Src/stm32l1xx_hal_rtc_ex.c ****   while (__HAL_RTC_WAKEUPTIMER_GET_FLAG(hrtc, RTC_FLAG_WUTWF) == 0U)
 1453              		.loc 1 922 0
 1454 0074 2368     		ldr	r3, [r4]
 1455 0076 D868     		ldr	r0, [r3, #12]
 1456 0078 10F0040F 		tst	r0, #4
ARM GAS  /tmp/ccTaTHmG.s 			page 43


 1457 007c 0DD1     		bne	.L120
 923:..//Source/stm/lib/STM32L1xx_HAL_Driver/Src/stm32l1xx_hal_rtc_ex.c ****   {
 924:..//Source/stm/lib/STM32L1xx_HAL_Driver/Src/stm32l1xx_hal_rtc_ex.c ****     if ((HAL_GetTick() - tickstart) >  RTC_TIMEOUT_VALUE)
 1458              		.loc 1 924 0
 1459 007e FFF7FEFF 		bl	HAL_GetTick
 1460              	.LVL111:
 1461 0082 C01B     		subs	r0, r0, r7
 1462 0084 B0F57A7F 		cmp	r0, #1000
 1463 0088 F4D9     		bls	.L116
 925:..//Source/stm/lib/STM32L1xx_HAL_Driver/Src/stm32l1xx_hal_rtc_ex.c ****     {
 926:..//Source/stm/lib/STM32L1xx_HAL_Driver/Src/stm32l1xx_hal_rtc_ex.c ****       /* Enable the write protection for RTC registers */
 927:..//Source/stm/lib/STM32L1xx_HAL_Driver/Src/stm32l1xx_hal_rtc_ex.c ****       __HAL_RTC_WRITEPROTECTION_ENABLE(hrtc);
 1464              		.loc 1 927 0
 1465 008a 2368     		ldr	r3, [r4]
 1466 008c FF22     		movs	r2, #255
 1467 008e 5A62     		str	r2, [r3, #36]
 928:..//Source/stm/lib/STM32L1xx_HAL_Driver/Src/stm32l1xx_hal_rtc_ex.c **** 
 929:..//Source/stm/lib/STM32L1xx_HAL_Driver/Src/stm32l1xx_hal_rtc_ex.c ****       hrtc->State = HAL_RTC_STATE_TIMEOUT;
 1468              		.loc 1 929 0
 1469 0090 0320     		movs	r0, #3
 1470 0092 6077     		strb	r0, [r4, #29]
 930:..//Source/stm/lib/STM32L1xx_HAL_Driver/Src/stm32l1xx_hal_rtc_ex.c **** 
 931:..//Source/stm/lib/STM32L1xx_HAL_Driver/Src/stm32l1xx_hal_rtc_ex.c ****       /* Process Unlocked */
 932:..//Source/stm/lib/STM32L1xx_HAL_Driver/Src/stm32l1xx_hal_rtc_ex.c ****       __HAL_UNLOCK(hrtc);
 1471              		.loc 1 932 0
 1472 0094 0023     		movs	r3, #0
 1473 0096 2377     		strb	r3, [r4, #28]
 933:..//Source/stm/lib/STM32L1xx_HAL_Driver/Src/stm32l1xx_hal_rtc_ex.c **** 
 934:..//Source/stm/lib/STM32L1xx_HAL_Driver/Src/stm32l1xx_hal_rtc_ex.c ****       return HAL_TIMEOUT;
 1474              		.loc 1 934 0
 1475 0098 F8BD     		pop	{r3, r4, r5, r6, r7, pc}
 1476              	.LVL112:
 1477              	.L120:
 935:..//Source/stm/lib/STM32L1xx_HAL_Driver/Src/stm32l1xx_hal_rtc_ex.c ****     }
 936:..//Source/stm/lib/STM32L1xx_HAL_Driver/Src/stm32l1xx_hal_rtc_ex.c ****   }
 937:..//Source/stm/lib/STM32L1xx_HAL_Driver/Src/stm32l1xx_hal_rtc_ex.c **** 
 938:..//Source/stm/lib/STM32L1xx_HAL_Driver/Src/stm32l1xx_hal_rtc_ex.c ****   /* Configure the Wakeup Timer counter */
 939:..//Source/stm/lib/STM32L1xx_HAL_Driver/Src/stm32l1xx_hal_rtc_ex.c ****   hrtc->Instance->WUTR = (uint32_t)WakeUpCounter;
 1478              		.loc 1 939 0
 1479 009a 5E61     		str	r6, [r3, #20]
 940:..//Source/stm/lib/STM32L1xx_HAL_Driver/Src/stm32l1xx_hal_rtc_ex.c **** 
 941:..//Source/stm/lib/STM32L1xx_HAL_Driver/Src/stm32l1xx_hal_rtc_ex.c ****   /* Clear the Wakeup Timer clock source bits in CR register */
 942:..//Source/stm/lib/STM32L1xx_HAL_Driver/Src/stm32l1xx_hal_rtc_ex.c ****   hrtc->Instance->CR &= (uint32_t)~RTC_CR_WUCKSEL;
 1480              		.loc 1 942 0
 1481 009c 2268     		ldr	r2, [r4]
 1482 009e 9368     		ldr	r3, [r2, #8]
 1483 00a0 23F00703 		bic	r3, r3, #7
 1484 00a4 9360     		str	r3, [r2, #8]
 943:..//Source/stm/lib/STM32L1xx_HAL_Driver/Src/stm32l1xx_hal_rtc_ex.c **** 
 944:..//Source/stm/lib/STM32L1xx_HAL_Driver/Src/stm32l1xx_hal_rtc_ex.c ****   /* Configure the clock source */
 945:..//Source/stm/lib/STM32L1xx_HAL_Driver/Src/stm32l1xx_hal_rtc_ex.c ****   hrtc->Instance->CR |= (uint32_t)WakeUpClock;
 1485              		.loc 1 945 0
 1486 00a6 2268     		ldr	r2, [r4]
 1487 00a8 9368     		ldr	r3, [r2, #8]
 1488 00aa 1D43     		orrs	r5, r5, r3
 1489              	.LVL113:
 1490 00ac 9560     		str	r5, [r2, #8]
ARM GAS  /tmp/ccTaTHmG.s 			page 44


 946:..//Source/stm/lib/STM32L1xx_HAL_Driver/Src/stm32l1xx_hal_rtc_ex.c **** 
 947:..//Source/stm/lib/STM32L1xx_HAL_Driver/Src/stm32l1xx_hal_rtc_ex.c ****   /* RTC WakeUpTimer Interrupt Configuration: EXTI configuration */
 948:..//Source/stm/lib/STM32L1xx_HAL_Driver/Src/stm32l1xx_hal_rtc_ex.c ****   __HAL_RTC_WAKEUPTIMER_EXTI_ENABLE_IT();
 1491              		.loc 1 948 0
 1492 00ae 0E4B     		ldr	r3, .L121
 1493 00b0 1A68     		ldr	r2, [r3]
 1494 00b2 42F48012 		orr	r2, r2, #1048576
 1495 00b6 1A60     		str	r2, [r3]
 949:..//Source/stm/lib/STM32L1xx_HAL_Driver/Src/stm32l1xx_hal_rtc_ex.c **** 
 950:..//Source/stm/lib/STM32L1xx_HAL_Driver/Src/stm32l1xx_hal_rtc_ex.c ****   __HAL_RTC_WAKEUPTIMER_EXTI_ENABLE_RISING_EDGE();
 1496              		.loc 1 950 0
 1497 00b8 9A68     		ldr	r2, [r3, #8]
 1498 00ba 42F48012 		orr	r2, r2, #1048576
 1499 00be 9A60     		str	r2, [r3, #8]
 951:..//Source/stm/lib/STM32L1xx_HAL_Driver/Src/stm32l1xx_hal_rtc_ex.c **** 
 952:..//Source/stm/lib/STM32L1xx_HAL_Driver/Src/stm32l1xx_hal_rtc_ex.c ****   /* Configure the Interrupt in the RTC_CR register */
 953:..//Source/stm/lib/STM32L1xx_HAL_Driver/Src/stm32l1xx_hal_rtc_ex.c ****   __HAL_RTC_WAKEUPTIMER_ENABLE_IT(hrtc, RTC_IT_WUT);
 1500              		.loc 1 953 0
 1501 00c0 2268     		ldr	r2, [r4]
 1502 00c2 9368     		ldr	r3, [r2, #8]
 1503 00c4 43F48043 		orr	r3, r3, #16384
 1504 00c8 9360     		str	r3, [r2, #8]
 954:..//Source/stm/lib/STM32L1xx_HAL_Driver/Src/stm32l1xx_hal_rtc_ex.c **** 
 955:..//Source/stm/lib/STM32L1xx_HAL_Driver/Src/stm32l1xx_hal_rtc_ex.c ****   /* Enable the Wakeup Timer */
 956:..//Source/stm/lib/STM32L1xx_HAL_Driver/Src/stm32l1xx_hal_rtc_ex.c ****   __HAL_RTC_WAKEUPTIMER_ENABLE(hrtc);
 1505              		.loc 1 956 0
 1506 00ca 2268     		ldr	r2, [r4]
 1507 00cc 9368     		ldr	r3, [r2, #8]
 1508 00ce 43F48063 		orr	r3, r3, #1024
 1509 00d2 9360     		str	r3, [r2, #8]
 957:..//Source/stm/lib/STM32L1xx_HAL_Driver/Src/stm32l1xx_hal_rtc_ex.c **** 
 958:..//Source/stm/lib/STM32L1xx_HAL_Driver/Src/stm32l1xx_hal_rtc_ex.c ****   /* Enable the write protection for RTC registers */
 959:..//Source/stm/lib/STM32L1xx_HAL_Driver/Src/stm32l1xx_hal_rtc_ex.c ****   __HAL_RTC_WRITEPROTECTION_ENABLE(hrtc);
 1510              		.loc 1 959 0
 1511 00d4 2368     		ldr	r3, [r4]
 1512 00d6 FF22     		movs	r2, #255
 1513 00d8 5A62     		str	r2, [r3, #36]
 960:..//Source/stm/lib/STM32L1xx_HAL_Driver/Src/stm32l1xx_hal_rtc_ex.c **** 
 961:..//Source/stm/lib/STM32L1xx_HAL_Driver/Src/stm32l1xx_hal_rtc_ex.c ****   hrtc->State = HAL_RTC_STATE_READY;
 1514              		.loc 1 961 0
 1515 00da 0123     		movs	r3, #1
 1516 00dc 6377     		strb	r3, [r4, #29]
 962:..//Source/stm/lib/STM32L1xx_HAL_Driver/Src/stm32l1xx_hal_rtc_ex.c **** 
 963:..//Source/stm/lib/STM32L1xx_HAL_Driver/Src/stm32l1xx_hal_rtc_ex.c ****   /* Process Unlocked */
 964:..//Source/stm/lib/STM32L1xx_HAL_Driver/Src/stm32l1xx_hal_rtc_ex.c ****   __HAL_UNLOCK(hrtc);
 1517              		.loc 1 964 0
 1518 00de 0020     		movs	r0, #0
 1519 00e0 2077     		strb	r0, [r4, #28]
 965:..//Source/stm/lib/STM32L1xx_HAL_Driver/Src/stm32l1xx_hal_rtc_ex.c **** 
 966:..//Source/stm/lib/STM32L1xx_HAL_Driver/Src/stm32l1xx_hal_rtc_ex.c ****   return HAL_OK;
 1520              		.loc 1 966 0
 1521 00e2 F8BD     		pop	{r3, r4, r5, r6, r7, pc}
 1522              	.LVL114:
 1523              	.L118:
 883:..//Source/stm/lib/STM32L1xx_HAL_Driver/Src/stm32l1xx_hal_rtc_ex.c **** 
 1524              		.loc 1 883 0
 1525 00e4 0220     		movs	r0, #2
ARM GAS  /tmp/ccTaTHmG.s 			page 45


 1526              	.LVL115:
 967:..//Source/stm/lib/STM32L1xx_HAL_Driver/Src/stm32l1xx_hal_rtc_ex.c **** }
 1527              		.loc 1 967 0
 1528 00e6 F8BD     		pop	{r3, r4, r5, r6, r7, pc}
 1529              	.L122:
 1530              		.align	2
 1531              	.L121:
 1532 00e8 00040140 		.word	1073808384
 1533              		.cfi_endproc
 1534              	.LFE89:
 1536              		.section	.text.HAL_RTCEx_DeactivateWakeUpTimer,"ax",%progbits
 1537              		.align	1
 1538              		.global	HAL_RTCEx_DeactivateWakeUpTimer
 1539              		.syntax unified
 1540              		.thumb
 1541              		.thumb_func
 1542              		.fpu softvfp
 1544              	HAL_RTCEx_DeactivateWakeUpTimer:
 1545              	.LFB90:
 968:..//Source/stm/lib/STM32L1xx_HAL_Driver/Src/stm32l1xx_hal_rtc_ex.c **** 
 969:..//Source/stm/lib/STM32L1xx_HAL_Driver/Src/stm32l1xx_hal_rtc_ex.c **** /**
 970:..//Source/stm/lib/STM32L1xx_HAL_Driver/Src/stm32l1xx_hal_rtc_ex.c ****   * @brief  Deactivate wake up timer counter.
 971:..//Source/stm/lib/STM32L1xx_HAL_Driver/Src/stm32l1xx_hal_rtc_ex.c ****   * @param  hrtc RTC handle
 972:..//Source/stm/lib/STM32L1xx_HAL_Driver/Src/stm32l1xx_hal_rtc_ex.c ****   * @retval HAL status
 973:..//Source/stm/lib/STM32L1xx_HAL_Driver/Src/stm32l1xx_hal_rtc_ex.c ****   */
 974:..//Source/stm/lib/STM32L1xx_HAL_Driver/Src/stm32l1xx_hal_rtc_ex.c **** HAL_StatusTypeDef HAL_RTCEx_DeactivateWakeUpTimer(RTC_HandleTypeDef *hrtc)
 975:..//Source/stm/lib/STM32L1xx_HAL_Driver/Src/stm32l1xx_hal_rtc_ex.c **** {
 1546              		.loc 1 975 0
 1547              		.cfi_startproc
 1548              		@ args = 0, pretend = 0, frame = 0
 1549              		@ frame_needed = 0, uses_anonymous_args = 0
 1550              	.LVL116:
 1551 0000 38B5     		push	{r3, r4, r5, lr}
 1552              	.LCFI22:
 1553              		.cfi_def_cfa_offset 16
 1554              		.cfi_offset 3, -16
 1555              		.cfi_offset 4, -12
 1556              		.cfi_offset 5, -8
 1557              		.cfi_offset 14, -4
 976:..//Source/stm/lib/STM32L1xx_HAL_Driver/Src/stm32l1xx_hal_rtc_ex.c ****   uint32_t tickstart;
 977:..//Source/stm/lib/STM32L1xx_HAL_Driver/Src/stm32l1xx_hal_rtc_ex.c **** 
 978:..//Source/stm/lib/STM32L1xx_HAL_Driver/Src/stm32l1xx_hal_rtc_ex.c ****   /* Process Locked */
 979:..//Source/stm/lib/STM32L1xx_HAL_Driver/Src/stm32l1xx_hal_rtc_ex.c ****   __HAL_LOCK(hrtc);
 1558              		.loc 1 979 0
 1559 0002 037F     		ldrb	r3, [r0, #28]	@ zero_extendqisi2
 1560 0004 012B     		cmp	r3, #1
 1561 0006 01D1     		bne	.L129
 1562 0008 0220     		movs	r0, #2
 1563              	.LVL117:
 980:..//Source/stm/lib/STM32L1xx_HAL_Driver/Src/stm32l1xx_hal_rtc_ex.c **** 
 981:..//Source/stm/lib/STM32L1xx_HAL_Driver/Src/stm32l1xx_hal_rtc_ex.c ****   hrtc->State = HAL_RTC_STATE_BUSY;
 982:..//Source/stm/lib/STM32L1xx_HAL_Driver/Src/stm32l1xx_hal_rtc_ex.c **** 
 983:..//Source/stm/lib/STM32L1xx_HAL_Driver/Src/stm32l1xx_hal_rtc_ex.c ****   /* Disable the write protection for RTC registers */
 984:..//Source/stm/lib/STM32L1xx_HAL_Driver/Src/stm32l1xx_hal_rtc_ex.c ****   __HAL_RTC_WRITEPROTECTION_DISABLE(hrtc);
 985:..//Source/stm/lib/STM32L1xx_HAL_Driver/Src/stm32l1xx_hal_rtc_ex.c **** 
 986:..//Source/stm/lib/STM32L1xx_HAL_Driver/Src/stm32l1xx_hal_rtc_ex.c ****   /* Disable the Wakeup Timer */
 987:..//Source/stm/lib/STM32L1xx_HAL_Driver/Src/stm32l1xx_hal_rtc_ex.c ****   __HAL_RTC_WAKEUPTIMER_DISABLE(hrtc);
ARM GAS  /tmp/ccTaTHmG.s 			page 46


 988:..//Source/stm/lib/STM32L1xx_HAL_Driver/Src/stm32l1xx_hal_rtc_ex.c **** 
 989:..//Source/stm/lib/STM32L1xx_HAL_Driver/Src/stm32l1xx_hal_rtc_ex.c ****   /* In case of interrupt mode is used, the interrupt source must disabled */
 990:..//Source/stm/lib/STM32L1xx_HAL_Driver/Src/stm32l1xx_hal_rtc_ex.c ****   __HAL_RTC_WAKEUPTIMER_DISABLE_IT(hrtc, RTC_IT_WUT);
 991:..//Source/stm/lib/STM32L1xx_HAL_Driver/Src/stm32l1xx_hal_rtc_ex.c **** 
 992:..//Source/stm/lib/STM32L1xx_HAL_Driver/Src/stm32l1xx_hal_rtc_ex.c ****   tickstart = HAL_GetTick();
 993:..//Source/stm/lib/STM32L1xx_HAL_Driver/Src/stm32l1xx_hal_rtc_ex.c ****   /* Wait till RTC WUTWF flag is set and if Time out is reached exit */
 994:..//Source/stm/lib/STM32L1xx_HAL_Driver/Src/stm32l1xx_hal_rtc_ex.c ****   while (__HAL_RTC_WAKEUPTIMER_GET_FLAG(hrtc, RTC_FLAG_WUTWF) == 0U)
 995:..//Source/stm/lib/STM32L1xx_HAL_Driver/Src/stm32l1xx_hal_rtc_ex.c ****   {
 996:..//Source/stm/lib/STM32L1xx_HAL_Driver/Src/stm32l1xx_hal_rtc_ex.c ****     if ((HAL_GetTick() - tickstart) >  RTC_TIMEOUT_VALUE)
 997:..//Source/stm/lib/STM32L1xx_HAL_Driver/Src/stm32l1xx_hal_rtc_ex.c ****     {
 998:..//Source/stm/lib/STM32L1xx_HAL_Driver/Src/stm32l1xx_hal_rtc_ex.c ****       /* Enable the write protection for RTC registers */
 999:..//Source/stm/lib/STM32L1xx_HAL_Driver/Src/stm32l1xx_hal_rtc_ex.c ****       __HAL_RTC_WRITEPROTECTION_ENABLE(hrtc);
1000:..//Source/stm/lib/STM32L1xx_HAL_Driver/Src/stm32l1xx_hal_rtc_ex.c **** 
1001:..//Source/stm/lib/STM32L1xx_HAL_Driver/Src/stm32l1xx_hal_rtc_ex.c ****       hrtc->State = HAL_RTC_STATE_TIMEOUT;
1002:..//Source/stm/lib/STM32L1xx_HAL_Driver/Src/stm32l1xx_hal_rtc_ex.c **** 
1003:..//Source/stm/lib/STM32L1xx_HAL_Driver/Src/stm32l1xx_hal_rtc_ex.c ****       /* Process Unlocked */
1004:..//Source/stm/lib/STM32L1xx_HAL_Driver/Src/stm32l1xx_hal_rtc_ex.c ****       __HAL_UNLOCK(hrtc);
1005:..//Source/stm/lib/STM32L1xx_HAL_Driver/Src/stm32l1xx_hal_rtc_ex.c **** 
1006:..//Source/stm/lib/STM32L1xx_HAL_Driver/Src/stm32l1xx_hal_rtc_ex.c ****       return HAL_TIMEOUT;
1007:..//Source/stm/lib/STM32L1xx_HAL_Driver/Src/stm32l1xx_hal_rtc_ex.c ****     }
1008:..//Source/stm/lib/STM32L1xx_HAL_Driver/Src/stm32l1xx_hal_rtc_ex.c ****   }
1009:..//Source/stm/lib/STM32L1xx_HAL_Driver/Src/stm32l1xx_hal_rtc_ex.c **** 
1010:..//Source/stm/lib/STM32L1xx_HAL_Driver/Src/stm32l1xx_hal_rtc_ex.c ****   /* Enable the write protection for RTC registers */
1011:..//Source/stm/lib/STM32L1xx_HAL_Driver/Src/stm32l1xx_hal_rtc_ex.c ****   __HAL_RTC_WRITEPROTECTION_ENABLE(hrtc);
1012:..//Source/stm/lib/STM32L1xx_HAL_Driver/Src/stm32l1xx_hal_rtc_ex.c **** 
1013:..//Source/stm/lib/STM32L1xx_HAL_Driver/Src/stm32l1xx_hal_rtc_ex.c ****   hrtc->State = HAL_RTC_STATE_READY;
1014:..//Source/stm/lib/STM32L1xx_HAL_Driver/Src/stm32l1xx_hal_rtc_ex.c **** 
1015:..//Source/stm/lib/STM32L1xx_HAL_Driver/Src/stm32l1xx_hal_rtc_ex.c ****   /* Process Unlocked */
1016:..//Source/stm/lib/STM32L1xx_HAL_Driver/Src/stm32l1xx_hal_rtc_ex.c ****   __HAL_UNLOCK(hrtc);
1017:..//Source/stm/lib/STM32L1xx_HAL_Driver/Src/stm32l1xx_hal_rtc_ex.c **** 
1018:..//Source/stm/lib/STM32L1xx_HAL_Driver/Src/stm32l1xx_hal_rtc_ex.c ****   return HAL_OK;
1019:..//Source/stm/lib/STM32L1xx_HAL_Driver/Src/stm32l1xx_hal_rtc_ex.c **** }
 1564              		.loc 1 1019 0
 1565 000a 38BD     		pop	{r3, r4, r5, pc}
 1566              	.LVL118:
 1567              	.L129:
 1568 000c 0446     		mov	r4, r0
 979:..//Source/stm/lib/STM32L1xx_HAL_Driver/Src/stm32l1xx_hal_rtc_ex.c **** 
 1569              		.loc 1 979 0 discriminator 2
 1570 000e 0123     		movs	r3, #1
 1571 0010 0377     		strb	r3, [r0, #28]
 981:..//Source/stm/lib/STM32L1xx_HAL_Driver/Src/stm32l1xx_hal_rtc_ex.c **** 
 1572              		.loc 1 981 0 discriminator 2
 1573 0012 0223     		movs	r3, #2
 1574 0014 4377     		strb	r3, [r0, #29]
 984:..//Source/stm/lib/STM32L1xx_HAL_Driver/Src/stm32l1xx_hal_rtc_ex.c **** 
 1575              		.loc 1 984 0 discriminator 2
 1576 0016 0368     		ldr	r3, [r0]
 1577 0018 CA22     		movs	r2, #202
 1578 001a 5A62     		str	r2, [r3, #36]
 1579 001c 0368     		ldr	r3, [r0]
 1580 001e 5322     		movs	r2, #83
 1581 0020 5A62     		str	r2, [r3, #36]
 987:..//Source/stm/lib/STM32L1xx_HAL_Driver/Src/stm32l1xx_hal_rtc_ex.c **** 
 1582              		.loc 1 987 0 discriminator 2
 1583 0022 0268     		ldr	r2, [r0]
 1584 0024 9368     		ldr	r3, [r2, #8]
ARM GAS  /tmp/ccTaTHmG.s 			page 47


 1585 0026 23F48063 		bic	r3, r3, #1024
 1586 002a 9360     		str	r3, [r2, #8]
 990:..//Source/stm/lib/STM32L1xx_HAL_Driver/Src/stm32l1xx_hal_rtc_ex.c **** 
 1587              		.loc 1 990 0 discriminator 2
 1588 002c 0268     		ldr	r2, [r0]
 1589 002e 9368     		ldr	r3, [r2, #8]
 1590 0030 23F48043 		bic	r3, r3, #16384
 1591 0034 9360     		str	r3, [r2, #8]
 992:..//Source/stm/lib/STM32L1xx_HAL_Driver/Src/stm32l1xx_hal_rtc_ex.c ****   /* Wait till RTC WUTWF flag is set and if Time out is reached exit */
 1592              		.loc 1 992 0 discriminator 2
 1593 0036 FFF7FEFF 		bl	HAL_GetTick
 1594              	.LVL119:
 1595 003a 0546     		mov	r5, r0
 1596              	.LVL120:
 1597              	.L125:
 994:..//Source/stm/lib/STM32L1xx_HAL_Driver/Src/stm32l1xx_hal_rtc_ex.c ****   {
 1598              		.loc 1 994 0
 1599 003c 2368     		ldr	r3, [r4]
 1600 003e DA68     		ldr	r2, [r3, #12]
 1601 0040 12F0040F 		tst	r2, #4
 1602 0044 0DD1     		bne	.L130
 996:..//Source/stm/lib/STM32L1xx_HAL_Driver/Src/stm32l1xx_hal_rtc_ex.c ****     {
 1603              		.loc 1 996 0
 1604 0046 FFF7FEFF 		bl	HAL_GetTick
 1605              	.LVL121:
 1606 004a 401B     		subs	r0, r0, r5
 1607 004c B0F57A7F 		cmp	r0, #1000
 1608 0050 F4D9     		bls	.L125
 999:..//Source/stm/lib/STM32L1xx_HAL_Driver/Src/stm32l1xx_hal_rtc_ex.c **** 
 1609              		.loc 1 999 0
 1610 0052 2368     		ldr	r3, [r4]
 1611 0054 FF22     		movs	r2, #255
 1612 0056 5A62     		str	r2, [r3, #36]
1001:..//Source/stm/lib/STM32L1xx_HAL_Driver/Src/stm32l1xx_hal_rtc_ex.c **** 
 1613              		.loc 1 1001 0
 1614 0058 0320     		movs	r0, #3
 1615 005a 6077     		strb	r0, [r4, #29]
1004:..//Source/stm/lib/STM32L1xx_HAL_Driver/Src/stm32l1xx_hal_rtc_ex.c **** 
 1616              		.loc 1 1004 0
 1617 005c 0023     		movs	r3, #0
 1618 005e 2377     		strb	r3, [r4, #28]
1006:..//Source/stm/lib/STM32L1xx_HAL_Driver/Src/stm32l1xx_hal_rtc_ex.c ****     }
 1619              		.loc 1 1006 0
 1620 0060 38BD     		pop	{r3, r4, r5, pc}
 1621              	.LVL122:
 1622              	.L130:
1011:..//Source/stm/lib/STM32L1xx_HAL_Driver/Src/stm32l1xx_hal_rtc_ex.c **** 
 1623              		.loc 1 1011 0
 1624 0062 FF22     		movs	r2, #255
 1625 0064 5A62     		str	r2, [r3, #36]
1013:..//Source/stm/lib/STM32L1xx_HAL_Driver/Src/stm32l1xx_hal_rtc_ex.c **** 
 1626              		.loc 1 1013 0
 1627 0066 0123     		movs	r3, #1
 1628 0068 6377     		strb	r3, [r4, #29]
1016:..//Source/stm/lib/STM32L1xx_HAL_Driver/Src/stm32l1xx_hal_rtc_ex.c **** 
 1629              		.loc 1 1016 0
 1630 006a 0020     		movs	r0, #0
ARM GAS  /tmp/ccTaTHmG.s 			page 48


 1631 006c 2077     		strb	r0, [r4, #28]
1018:..//Source/stm/lib/STM32L1xx_HAL_Driver/Src/stm32l1xx_hal_rtc_ex.c **** }
 1632              		.loc 1 1018 0
 1633 006e 38BD     		pop	{r3, r4, r5, pc}
 1634              		.cfi_endproc
 1635              	.LFE90:
 1637              		.section	.text.HAL_RTCEx_GetWakeUpTimer,"ax",%progbits
 1638              		.align	1
 1639              		.global	HAL_RTCEx_GetWakeUpTimer
 1640              		.syntax unified
 1641              		.thumb
 1642              		.thumb_func
 1643              		.fpu softvfp
 1645              	HAL_RTCEx_GetWakeUpTimer:
 1646              	.LFB91:
1020:..//Source/stm/lib/STM32L1xx_HAL_Driver/Src/stm32l1xx_hal_rtc_ex.c **** 
1021:..//Source/stm/lib/STM32L1xx_HAL_Driver/Src/stm32l1xx_hal_rtc_ex.c **** /**
1022:..//Source/stm/lib/STM32L1xx_HAL_Driver/Src/stm32l1xx_hal_rtc_ex.c ****   * @brief  Get wake up timer counter.
1023:..//Source/stm/lib/STM32L1xx_HAL_Driver/Src/stm32l1xx_hal_rtc_ex.c ****   * @param  hrtc RTC handle
1024:..//Source/stm/lib/STM32L1xx_HAL_Driver/Src/stm32l1xx_hal_rtc_ex.c ****   * @retval Counter value
1025:..//Source/stm/lib/STM32L1xx_HAL_Driver/Src/stm32l1xx_hal_rtc_ex.c ****   */
1026:..//Source/stm/lib/STM32L1xx_HAL_Driver/Src/stm32l1xx_hal_rtc_ex.c **** uint32_t HAL_RTCEx_GetWakeUpTimer(RTC_HandleTypeDef *hrtc)
1027:..//Source/stm/lib/STM32L1xx_HAL_Driver/Src/stm32l1xx_hal_rtc_ex.c **** {
 1647              		.loc 1 1027 0
 1648              		.cfi_startproc
 1649              		@ args = 0, pretend = 0, frame = 0
 1650              		@ frame_needed = 0, uses_anonymous_args = 0
 1651              		@ link register save eliminated.
 1652              	.LVL123:
1028:..//Source/stm/lib/STM32L1xx_HAL_Driver/Src/stm32l1xx_hal_rtc_ex.c ****   /* Get the counter value */
1029:..//Source/stm/lib/STM32L1xx_HAL_Driver/Src/stm32l1xx_hal_rtc_ex.c ****   return ((uint32_t)(hrtc->Instance->WUTR & RTC_WUTR_WUT));
 1653              		.loc 1 1029 0
 1654 0000 0368     		ldr	r3, [r0]
 1655 0002 5869     		ldr	r0, [r3, #20]
 1656              	.LVL124:
1030:..//Source/stm/lib/STM32L1xx_HAL_Driver/Src/stm32l1xx_hal_rtc_ex.c **** }
 1657              		.loc 1 1030 0
 1658 0004 80B2     		uxth	r0, r0
 1659 0006 7047     		bx	lr
 1660              		.cfi_endproc
 1661              	.LFE91:
 1663              		.section	.text.HAL_RTCEx_WakeUpTimerEventCallback,"ax",%progbits
 1664              		.align	1
 1665              		.weak	HAL_RTCEx_WakeUpTimerEventCallback
 1666              		.syntax unified
 1667              		.thumb
 1668              		.thumb_func
 1669              		.fpu softvfp
 1671              	HAL_RTCEx_WakeUpTimerEventCallback:
 1672              	.LFB93:
1031:..//Source/stm/lib/STM32L1xx_HAL_Driver/Src/stm32l1xx_hal_rtc_ex.c **** 
1032:..//Source/stm/lib/STM32L1xx_HAL_Driver/Src/stm32l1xx_hal_rtc_ex.c **** /**
1033:..//Source/stm/lib/STM32L1xx_HAL_Driver/Src/stm32l1xx_hal_rtc_ex.c ****   * @brief  Handle Wake Up Timer interrupt request.
1034:..//Source/stm/lib/STM32L1xx_HAL_Driver/Src/stm32l1xx_hal_rtc_ex.c ****   * @param  hrtc RTC handle
1035:..//Source/stm/lib/STM32L1xx_HAL_Driver/Src/stm32l1xx_hal_rtc_ex.c ****   * @retval None
1036:..//Source/stm/lib/STM32L1xx_HAL_Driver/Src/stm32l1xx_hal_rtc_ex.c ****   */
1037:..//Source/stm/lib/STM32L1xx_HAL_Driver/Src/stm32l1xx_hal_rtc_ex.c **** void HAL_RTCEx_WakeUpTimerIRQHandler(RTC_HandleTypeDef *hrtc)
ARM GAS  /tmp/ccTaTHmG.s 			page 49


1038:..//Source/stm/lib/STM32L1xx_HAL_Driver/Src/stm32l1xx_hal_rtc_ex.c **** {
1039:..//Source/stm/lib/STM32L1xx_HAL_Driver/Src/stm32l1xx_hal_rtc_ex.c ****   /* Get the pending status of the WAKEUPTIMER Interrupt */
1040:..//Source/stm/lib/STM32L1xx_HAL_Driver/Src/stm32l1xx_hal_rtc_ex.c ****   if (__HAL_RTC_WAKEUPTIMER_GET_FLAG(hrtc, RTC_FLAG_WUTF) != 0U)
1041:..//Source/stm/lib/STM32L1xx_HAL_Driver/Src/stm32l1xx_hal_rtc_ex.c ****   {
1042:..//Source/stm/lib/STM32L1xx_HAL_Driver/Src/stm32l1xx_hal_rtc_ex.c ****     /* WAKEUPTIMER callback */
1043:..//Source/stm/lib/STM32L1xx_HAL_Driver/Src/stm32l1xx_hal_rtc_ex.c **** #if (USE_HAL_RTC_REGISTER_CALLBACKS == 1)
1044:..//Source/stm/lib/STM32L1xx_HAL_Driver/Src/stm32l1xx_hal_rtc_ex.c ****     hrtc->WakeUpTimerEventCallback(hrtc);
1045:..//Source/stm/lib/STM32L1xx_HAL_Driver/Src/stm32l1xx_hal_rtc_ex.c **** #else
1046:..//Source/stm/lib/STM32L1xx_HAL_Driver/Src/stm32l1xx_hal_rtc_ex.c ****     HAL_RTCEx_WakeUpTimerEventCallback(hrtc);
1047:..//Source/stm/lib/STM32L1xx_HAL_Driver/Src/stm32l1xx_hal_rtc_ex.c **** #endif /* USE_HAL_RTC_REGISTER_CALLBACKS */
1048:..//Source/stm/lib/STM32L1xx_HAL_Driver/Src/stm32l1xx_hal_rtc_ex.c **** 
1049:..//Source/stm/lib/STM32L1xx_HAL_Driver/Src/stm32l1xx_hal_rtc_ex.c ****     /* Clear the WAKEUPTIMER interrupt pending bit */
1050:..//Source/stm/lib/STM32L1xx_HAL_Driver/Src/stm32l1xx_hal_rtc_ex.c ****     __HAL_RTC_WAKEUPTIMER_CLEAR_FLAG(hrtc, RTC_FLAG_WUTF);
1051:..//Source/stm/lib/STM32L1xx_HAL_Driver/Src/stm32l1xx_hal_rtc_ex.c ****   }
1052:..//Source/stm/lib/STM32L1xx_HAL_Driver/Src/stm32l1xx_hal_rtc_ex.c **** 
1053:..//Source/stm/lib/STM32L1xx_HAL_Driver/Src/stm32l1xx_hal_rtc_ex.c **** 
1054:..//Source/stm/lib/STM32L1xx_HAL_Driver/Src/stm32l1xx_hal_rtc_ex.c ****   /* Clear the EXTI's line Flag for RTC WakeUpTimer */
1055:..//Source/stm/lib/STM32L1xx_HAL_Driver/Src/stm32l1xx_hal_rtc_ex.c ****   __HAL_RTC_WAKEUPTIMER_EXTI_CLEAR_FLAG();
1056:..//Source/stm/lib/STM32L1xx_HAL_Driver/Src/stm32l1xx_hal_rtc_ex.c **** 
1057:..//Source/stm/lib/STM32L1xx_HAL_Driver/Src/stm32l1xx_hal_rtc_ex.c ****   /* Change RTC state */
1058:..//Source/stm/lib/STM32L1xx_HAL_Driver/Src/stm32l1xx_hal_rtc_ex.c ****   hrtc->State = HAL_RTC_STATE_READY;
1059:..//Source/stm/lib/STM32L1xx_HAL_Driver/Src/stm32l1xx_hal_rtc_ex.c **** }
1060:..//Source/stm/lib/STM32L1xx_HAL_Driver/Src/stm32l1xx_hal_rtc_ex.c **** 
1061:..//Source/stm/lib/STM32L1xx_HAL_Driver/Src/stm32l1xx_hal_rtc_ex.c **** /**
1062:..//Source/stm/lib/STM32L1xx_HAL_Driver/Src/stm32l1xx_hal_rtc_ex.c ****   * @brief  Wake Up Timer callback.
1063:..//Source/stm/lib/STM32L1xx_HAL_Driver/Src/stm32l1xx_hal_rtc_ex.c ****   * @param  hrtc RTC handle
1064:..//Source/stm/lib/STM32L1xx_HAL_Driver/Src/stm32l1xx_hal_rtc_ex.c ****   * @retval None
1065:..//Source/stm/lib/STM32L1xx_HAL_Driver/Src/stm32l1xx_hal_rtc_ex.c ****   */
1066:..//Source/stm/lib/STM32L1xx_HAL_Driver/Src/stm32l1xx_hal_rtc_ex.c **** __weak void HAL_RTCEx_WakeUpTimerEventCallback(RTC_HandleTypeDef *hrtc)
1067:..//Source/stm/lib/STM32L1xx_HAL_Driver/Src/stm32l1xx_hal_rtc_ex.c **** {
 1673              		.loc 1 1067 0
 1674              		.cfi_startproc
 1675              		@ args = 0, pretend = 0, frame = 0
 1676              		@ frame_needed = 0, uses_anonymous_args = 0
 1677              		@ link register save eliminated.
 1678              	.LVL125:
 1679 0000 7047     		bx	lr
 1680              		.cfi_endproc
 1681              	.LFE93:
 1683              		.section	.text.HAL_RTCEx_WakeUpTimerIRQHandler,"ax",%progbits
 1684              		.align	1
 1685              		.global	HAL_RTCEx_WakeUpTimerIRQHandler
 1686              		.syntax unified
 1687              		.thumb
 1688              		.thumb_func
 1689              		.fpu softvfp
 1691              	HAL_RTCEx_WakeUpTimerIRQHandler:
 1692              	.LFB92:
1038:..//Source/stm/lib/STM32L1xx_HAL_Driver/Src/stm32l1xx_hal_rtc_ex.c ****   /* Get the pending status of the WAKEUPTIMER Interrupt */
 1693              		.loc 1 1038 0
 1694              		.cfi_startproc
 1695              		@ args = 0, pretend = 0, frame = 0
 1696              		@ frame_needed = 0, uses_anonymous_args = 0
 1697              	.LVL126:
1038:..//Source/stm/lib/STM32L1xx_HAL_Driver/Src/stm32l1xx_hal_rtc_ex.c ****   /* Get the pending status of the WAKEUPTIMER Interrupt */
 1698              		.loc 1 1038 0
 1699 0000 10B5     		push	{r4, lr}
ARM GAS  /tmp/ccTaTHmG.s 			page 50


 1700              	.LCFI23:
 1701              		.cfi_def_cfa_offset 8
 1702              		.cfi_offset 4, -8
 1703              		.cfi_offset 14, -4
 1704 0002 0446     		mov	r4, r0
1040:..//Source/stm/lib/STM32L1xx_HAL_Driver/Src/stm32l1xx_hal_rtc_ex.c ****   {
 1705              		.loc 1 1040 0
 1706 0004 0368     		ldr	r3, [r0]
 1707 0006 DB68     		ldr	r3, [r3, #12]
 1708 0008 13F4806F 		tst	r3, #1024
 1709 000c 06D1     		bne	.L136
 1710              	.LVL127:
 1711              	.L134:
1055:..//Source/stm/lib/STM32L1xx_HAL_Driver/Src/stm32l1xx_hal_rtc_ex.c **** 
 1712              		.loc 1 1055 0
 1713 000e 4FF48012 		mov	r2, #1048576
 1714 0012 074B     		ldr	r3, .L137
 1715 0014 5A61     		str	r2, [r3, #20]
1058:..//Source/stm/lib/STM32L1xx_HAL_Driver/Src/stm32l1xx_hal_rtc_ex.c **** }
 1716              		.loc 1 1058 0
 1717 0016 0123     		movs	r3, #1
 1718 0018 6377     		strb	r3, [r4, #29]
 1719 001a 10BD     		pop	{r4, pc}
 1720              	.LVL128:
 1721              	.L136:
1046:..//Source/stm/lib/STM32L1xx_HAL_Driver/Src/stm32l1xx_hal_rtc_ex.c **** #endif /* USE_HAL_RTC_REGISTER_CALLBACKS */
 1722              		.loc 1 1046 0
 1723 001c FFF7FEFF 		bl	HAL_RTCEx_WakeUpTimerEventCallback
 1724              	.LVL129:
1050:..//Source/stm/lib/STM32L1xx_HAL_Driver/Src/stm32l1xx_hal_rtc_ex.c ****   }
 1725              		.loc 1 1050 0
 1726 0020 2268     		ldr	r2, [r4]
 1727 0022 D368     		ldr	r3, [r2, #12]
 1728 0024 DBB2     		uxtb	r3, r3
 1729 0026 63F49063 		orn	r3, r3, #1152
 1730 002a D360     		str	r3, [r2, #12]
 1731 002c EFE7     		b	.L134
 1732              	.L138:
 1733 002e 00BF     		.align	2
 1734              	.L137:
 1735 0030 00040140 		.word	1073808384
 1736              		.cfi_endproc
 1737              	.LFE92:
 1739              		.section	.text.HAL_RTCEx_PollForWakeUpTimerEvent,"ax",%progbits
 1740              		.align	1
 1741              		.global	HAL_RTCEx_PollForWakeUpTimerEvent
 1742              		.syntax unified
 1743              		.thumb
 1744              		.thumb_func
 1745              		.fpu softvfp
 1747              	HAL_RTCEx_PollForWakeUpTimerEvent:
 1748              	.LFB94:
1068:..//Source/stm/lib/STM32L1xx_HAL_Driver/Src/stm32l1xx_hal_rtc_ex.c ****   /* Prevent unused argument(s) compilation warning */
1069:..//Source/stm/lib/STM32L1xx_HAL_Driver/Src/stm32l1xx_hal_rtc_ex.c ****   UNUSED(hrtc);
1070:..//Source/stm/lib/STM32L1xx_HAL_Driver/Src/stm32l1xx_hal_rtc_ex.c **** 
1071:..//Source/stm/lib/STM32L1xx_HAL_Driver/Src/stm32l1xx_hal_rtc_ex.c ****   /* NOTE : This function Should not be modified, when the callback is needed,
1072:..//Source/stm/lib/STM32L1xx_HAL_Driver/Src/stm32l1xx_hal_rtc_ex.c ****             the HAL_RTCEx_WakeUpTimerEventCallback could be implemented in the user file
ARM GAS  /tmp/ccTaTHmG.s 			page 51


1073:..//Source/stm/lib/STM32L1xx_HAL_Driver/Src/stm32l1xx_hal_rtc_ex.c ****    */
1074:..//Source/stm/lib/STM32L1xx_HAL_Driver/Src/stm32l1xx_hal_rtc_ex.c **** }
1075:..//Source/stm/lib/STM32L1xx_HAL_Driver/Src/stm32l1xx_hal_rtc_ex.c **** 
1076:..//Source/stm/lib/STM32L1xx_HAL_Driver/Src/stm32l1xx_hal_rtc_ex.c **** /**
1077:..//Source/stm/lib/STM32L1xx_HAL_Driver/Src/stm32l1xx_hal_rtc_ex.c ****   * @brief  Handle Wake Up Timer Polling.
1078:..//Source/stm/lib/STM32L1xx_HAL_Driver/Src/stm32l1xx_hal_rtc_ex.c ****   * @param  hrtc RTC handle
1079:..//Source/stm/lib/STM32L1xx_HAL_Driver/Src/stm32l1xx_hal_rtc_ex.c ****   * @param  Timeout Timeout duration
1080:..//Source/stm/lib/STM32L1xx_HAL_Driver/Src/stm32l1xx_hal_rtc_ex.c ****   * @retval HAL status
1081:..//Source/stm/lib/STM32L1xx_HAL_Driver/Src/stm32l1xx_hal_rtc_ex.c ****   */
1082:..//Source/stm/lib/STM32L1xx_HAL_Driver/Src/stm32l1xx_hal_rtc_ex.c **** HAL_StatusTypeDef HAL_RTCEx_PollForWakeUpTimerEvent(RTC_HandleTypeDef *hrtc, uint32_t Timeout)
1083:..//Source/stm/lib/STM32L1xx_HAL_Driver/Src/stm32l1xx_hal_rtc_ex.c **** {
 1749              		.loc 1 1083 0
 1750              		.cfi_startproc
 1751              		@ args = 0, pretend = 0, frame = 0
 1752              		@ frame_needed = 0, uses_anonymous_args = 0
 1753              	.LVL130:
 1754 0000 70B5     		push	{r4, r5, r6, lr}
 1755              	.LCFI24:
 1756              		.cfi_def_cfa_offset 16
 1757              		.cfi_offset 4, -16
 1758              		.cfi_offset 5, -12
 1759              		.cfi_offset 6, -8
 1760              		.cfi_offset 14, -4
 1761 0002 0446     		mov	r4, r0
 1762 0004 0D46     		mov	r5, r1
1084:..//Source/stm/lib/STM32L1xx_HAL_Driver/Src/stm32l1xx_hal_rtc_ex.c ****   uint32_t tickstart = HAL_GetTick();
 1763              		.loc 1 1084 0
 1764 0006 FFF7FEFF 		bl	HAL_GetTick
 1765              	.LVL131:
 1766 000a 0646     		mov	r6, r0
 1767              	.LVL132:
 1768              	.L141:
1085:..//Source/stm/lib/STM32L1xx_HAL_Driver/Src/stm32l1xx_hal_rtc_ex.c **** 
1086:..//Source/stm/lib/STM32L1xx_HAL_Driver/Src/stm32l1xx_hal_rtc_ex.c ****   while (__HAL_RTC_WAKEUPTIMER_GET_FLAG(hrtc, RTC_FLAG_WUTF) == 0U)
 1769              		.loc 1 1086 0
 1770 000c 2368     		ldr	r3, [r4]
 1771 000e DA68     		ldr	r2, [r3, #12]
 1772 0010 12F4806F 		tst	r2, #1024
 1773 0014 0CD1     		bne	.L146
1087:..//Source/stm/lib/STM32L1xx_HAL_Driver/Src/stm32l1xx_hal_rtc_ex.c ****   {
1088:..//Source/stm/lib/STM32L1xx_HAL_Driver/Src/stm32l1xx_hal_rtc_ex.c ****     if (Timeout != HAL_MAX_DELAY)
 1774              		.loc 1 1088 0
 1775 0016 B5F1FF3F 		cmp	r5, #-1
 1776 001a F7D0     		beq	.L141
1089:..//Source/stm/lib/STM32L1xx_HAL_Driver/Src/stm32l1xx_hal_rtc_ex.c ****     {
1090:..//Source/stm/lib/STM32L1xx_HAL_Driver/Src/stm32l1xx_hal_rtc_ex.c ****       if (((HAL_GetTick() - tickstart) > Timeout) || (Timeout == 0U))
 1777              		.loc 1 1090 0
 1778 001c FFF7FEFF 		bl	HAL_GetTick
 1779              	.LVL133:
 1780 0020 801B     		subs	r0, r0, r6
 1781 0022 8542     		cmp	r5, r0
 1782 0024 01D3     		bcc	.L142
 1783              		.loc 1 1090 0 is_stmt 0 discriminator 1
 1784 0026 002D     		cmp	r5, #0
 1785 0028 F0D1     		bne	.L141
 1786              	.L142:
1091:..//Source/stm/lib/STM32L1xx_HAL_Driver/Src/stm32l1xx_hal_rtc_ex.c ****       {
ARM GAS  /tmp/ccTaTHmG.s 			page 52


1092:..//Source/stm/lib/STM32L1xx_HAL_Driver/Src/stm32l1xx_hal_rtc_ex.c ****         hrtc->State = HAL_RTC_STATE_TIMEOUT;
 1787              		.loc 1 1092 0 is_stmt 1
 1788 002a 0320     		movs	r0, #3
 1789 002c 6077     		strb	r0, [r4, #29]
1093:..//Source/stm/lib/STM32L1xx_HAL_Driver/Src/stm32l1xx_hal_rtc_ex.c **** 
1094:..//Source/stm/lib/STM32L1xx_HAL_Driver/Src/stm32l1xx_hal_rtc_ex.c ****         return HAL_TIMEOUT;
 1790              		.loc 1 1094 0
 1791 002e 70BD     		pop	{r4, r5, r6, pc}
 1792              	.LVL134:
 1793              	.L146:
1095:..//Source/stm/lib/STM32L1xx_HAL_Driver/Src/stm32l1xx_hal_rtc_ex.c ****       }
1096:..//Source/stm/lib/STM32L1xx_HAL_Driver/Src/stm32l1xx_hal_rtc_ex.c ****     }
1097:..//Source/stm/lib/STM32L1xx_HAL_Driver/Src/stm32l1xx_hal_rtc_ex.c ****   }
1098:..//Source/stm/lib/STM32L1xx_HAL_Driver/Src/stm32l1xx_hal_rtc_ex.c **** 
1099:..//Source/stm/lib/STM32L1xx_HAL_Driver/Src/stm32l1xx_hal_rtc_ex.c ****   /* Clear the WAKEUPTIMER Flag */
1100:..//Source/stm/lib/STM32L1xx_HAL_Driver/Src/stm32l1xx_hal_rtc_ex.c ****   __HAL_RTC_WAKEUPTIMER_CLEAR_FLAG(hrtc, RTC_FLAG_WUTF);
 1794              		.loc 1 1100 0
 1795 0030 DA68     		ldr	r2, [r3, #12]
 1796 0032 D2B2     		uxtb	r2, r2
 1797 0034 62F49062 		orn	r2, r2, #1152
 1798 0038 DA60     		str	r2, [r3, #12]
1101:..//Source/stm/lib/STM32L1xx_HAL_Driver/Src/stm32l1xx_hal_rtc_ex.c **** 
1102:..//Source/stm/lib/STM32L1xx_HAL_Driver/Src/stm32l1xx_hal_rtc_ex.c ****   /* Change RTC state */
1103:..//Source/stm/lib/STM32L1xx_HAL_Driver/Src/stm32l1xx_hal_rtc_ex.c ****   hrtc->State = HAL_RTC_STATE_READY;
 1799              		.loc 1 1103 0
 1800 003a 0123     		movs	r3, #1
 1801 003c 6377     		strb	r3, [r4, #29]
1104:..//Source/stm/lib/STM32L1xx_HAL_Driver/Src/stm32l1xx_hal_rtc_ex.c **** 
1105:..//Source/stm/lib/STM32L1xx_HAL_Driver/Src/stm32l1xx_hal_rtc_ex.c ****   return HAL_OK;
 1802              		.loc 1 1105 0
 1803 003e 0020     		movs	r0, #0
1106:..//Source/stm/lib/STM32L1xx_HAL_Driver/Src/stm32l1xx_hal_rtc_ex.c **** }
 1804              		.loc 1 1106 0
 1805 0040 70BD     		pop	{r4, r5, r6, pc}
 1806              		.cfi_endproc
 1807              	.LFE94:
 1809              		.section	.text.HAL_RTCEx_BKUPWrite,"ax",%progbits
 1810              		.align	1
 1811              		.global	HAL_RTCEx_BKUPWrite
 1812              		.syntax unified
 1813              		.thumb
 1814              		.thumb_func
 1815              		.fpu softvfp
 1817              	HAL_RTCEx_BKUPWrite:
 1818              	.LFB95:
1107:..//Source/stm/lib/STM32L1xx_HAL_Driver/Src/stm32l1xx_hal_rtc_ex.c **** 
1108:..//Source/stm/lib/STM32L1xx_HAL_Driver/Src/stm32l1xx_hal_rtc_ex.c **** /**
1109:..//Source/stm/lib/STM32L1xx_HAL_Driver/Src/stm32l1xx_hal_rtc_ex.c ****   * @}
1110:..//Source/stm/lib/STM32L1xx_HAL_Driver/Src/stm32l1xx_hal_rtc_ex.c ****   */
1111:..//Source/stm/lib/STM32L1xx_HAL_Driver/Src/stm32l1xx_hal_rtc_ex.c **** 
1112:..//Source/stm/lib/STM32L1xx_HAL_Driver/Src/stm32l1xx_hal_rtc_ex.c **** 
1113:..//Source/stm/lib/STM32L1xx_HAL_Driver/Src/stm32l1xx_hal_rtc_ex.c **** /** @addtogroup RTCEx_Exported_Functions_Group3
1114:..//Source/stm/lib/STM32L1xx_HAL_Driver/Src/stm32l1xx_hal_rtc_ex.c ****   * @brief    Extended Peripheral Control functions
1115:..//Source/stm/lib/STM32L1xx_HAL_Driver/Src/stm32l1xx_hal_rtc_ex.c ****   *
1116:..//Source/stm/lib/STM32L1xx_HAL_Driver/Src/stm32l1xx_hal_rtc_ex.c **** @verbatim
1117:..//Source/stm/lib/STM32L1xx_HAL_Driver/Src/stm32l1xx_hal_rtc_ex.c ****  ===============================================================================
1118:..//Source/stm/lib/STM32L1xx_HAL_Driver/Src/stm32l1xx_hal_rtc_ex.c ****               ##### Extended Peripheral Control functions #####
ARM GAS  /tmp/ccTaTHmG.s 			page 53


1119:..//Source/stm/lib/STM32L1xx_HAL_Driver/Src/stm32l1xx_hal_rtc_ex.c ****  ===============================================================================
1120:..//Source/stm/lib/STM32L1xx_HAL_Driver/Src/stm32l1xx_hal_rtc_ex.c ****     [..]
1121:..//Source/stm/lib/STM32L1xx_HAL_Driver/Src/stm32l1xx_hal_rtc_ex.c ****     This subsection provides functions allowing to
1122:..//Source/stm/lib/STM32L1xx_HAL_Driver/Src/stm32l1xx_hal_rtc_ex.c ****       (+) Write a data in a specified RTC Backup data register
1123:..//Source/stm/lib/STM32L1xx_HAL_Driver/Src/stm32l1xx_hal_rtc_ex.c ****       (+) Read a data in a specified RTC Backup data register
1124:..//Source/stm/lib/STM32L1xx_HAL_Driver/Src/stm32l1xx_hal_rtc_ex.c ****       (+) Set the Coarse calibration parameters.
1125:..//Source/stm/lib/STM32L1xx_HAL_Driver/Src/stm32l1xx_hal_rtc_ex.c ****       (+) Deactivate the Coarse calibration parameters
1126:..//Source/stm/lib/STM32L1xx_HAL_Driver/Src/stm32l1xx_hal_rtc_ex.c ****       (+) Set the Smooth calibration parameters.
1127:..//Source/stm/lib/STM32L1xx_HAL_Driver/Src/stm32l1xx_hal_rtc_ex.c ****       (+) Configure the Synchronization Shift Control Settings.
1128:..//Source/stm/lib/STM32L1xx_HAL_Driver/Src/stm32l1xx_hal_rtc_ex.c ****       (+) Configure the Calibration Pinout (RTC_CALIB) Selection (1Hz or 512Hz).
1129:..//Source/stm/lib/STM32L1xx_HAL_Driver/Src/stm32l1xx_hal_rtc_ex.c ****       (+) Deactivate the Calibration Pinout (RTC_CALIB) Selection (1Hz or 512Hz).
1130:..//Source/stm/lib/STM32L1xx_HAL_Driver/Src/stm32l1xx_hal_rtc_ex.c ****       (+) Enable the RTC reference clock detection.
1131:..//Source/stm/lib/STM32L1xx_HAL_Driver/Src/stm32l1xx_hal_rtc_ex.c ****       (+) Disable the RTC reference clock detection.
1132:..//Source/stm/lib/STM32L1xx_HAL_Driver/Src/stm32l1xx_hal_rtc_ex.c ****       (+) Enable the Bypass Shadow feature.
1133:..//Source/stm/lib/STM32L1xx_HAL_Driver/Src/stm32l1xx_hal_rtc_ex.c ****       (+) Disable the Bypass Shadow feature.
1134:..//Source/stm/lib/STM32L1xx_HAL_Driver/Src/stm32l1xx_hal_rtc_ex.c **** 
1135:..//Source/stm/lib/STM32L1xx_HAL_Driver/Src/stm32l1xx_hal_rtc_ex.c **** @endverbatim
1136:..//Source/stm/lib/STM32L1xx_HAL_Driver/Src/stm32l1xx_hal_rtc_ex.c ****   * @{
1137:..//Source/stm/lib/STM32L1xx_HAL_Driver/Src/stm32l1xx_hal_rtc_ex.c ****   */
1138:..//Source/stm/lib/STM32L1xx_HAL_Driver/Src/stm32l1xx_hal_rtc_ex.c **** 
1139:..//Source/stm/lib/STM32L1xx_HAL_Driver/Src/stm32l1xx_hal_rtc_ex.c **** /**
1140:..//Source/stm/lib/STM32L1xx_HAL_Driver/Src/stm32l1xx_hal_rtc_ex.c ****   * @brief  Write a data in a specified RTC Backup data register.
1141:..//Source/stm/lib/STM32L1xx_HAL_Driver/Src/stm32l1xx_hal_rtc_ex.c ****   * @param  hrtc RTC handle
1142:..//Source/stm/lib/STM32L1xx_HAL_Driver/Src/stm32l1xx_hal_rtc_ex.c ****   * @param  BackupRegister RTC Backup data Register number.
1143:..//Source/stm/lib/STM32L1xx_HAL_Driver/Src/stm32l1xx_hal_rtc_ex.c ****   *          This parameter can be: RTC_BKP_DRx where x can be from 0 to 19 to
1144:..//Source/stm/lib/STM32L1xx_HAL_Driver/Src/stm32l1xx_hal_rtc_ex.c ****   *                                 specify the register.
1145:..//Source/stm/lib/STM32L1xx_HAL_Driver/Src/stm32l1xx_hal_rtc_ex.c ****   * @param  Data Data to be written in the specified RTC Backup data register.
1146:..//Source/stm/lib/STM32L1xx_HAL_Driver/Src/stm32l1xx_hal_rtc_ex.c ****   * @retval None
1147:..//Source/stm/lib/STM32L1xx_HAL_Driver/Src/stm32l1xx_hal_rtc_ex.c ****   */
1148:..//Source/stm/lib/STM32L1xx_HAL_Driver/Src/stm32l1xx_hal_rtc_ex.c **** void HAL_RTCEx_BKUPWrite(RTC_HandleTypeDef *hrtc, uint32_t BackupRegister, uint32_t Data)
1149:..//Source/stm/lib/STM32L1xx_HAL_Driver/Src/stm32l1xx_hal_rtc_ex.c **** {
 1819              		.loc 1 1149 0
 1820              		.cfi_startproc
 1821              		@ args = 0, pretend = 0, frame = 0
 1822              		@ frame_needed = 0, uses_anonymous_args = 0
 1823              		@ link register save eliminated.
 1824              	.LVL135:
1150:..//Source/stm/lib/STM32L1xx_HAL_Driver/Src/stm32l1xx_hal_rtc_ex.c ****   uint32_t tmp;
1151:..//Source/stm/lib/STM32L1xx_HAL_Driver/Src/stm32l1xx_hal_rtc_ex.c **** 
1152:..//Source/stm/lib/STM32L1xx_HAL_Driver/Src/stm32l1xx_hal_rtc_ex.c ****   /* Check the parameters */
1153:..//Source/stm/lib/STM32L1xx_HAL_Driver/Src/stm32l1xx_hal_rtc_ex.c ****   assert_param(IS_RTC_BKP(BackupRegister));
1154:..//Source/stm/lib/STM32L1xx_HAL_Driver/Src/stm32l1xx_hal_rtc_ex.c **** 
1155:..//Source/stm/lib/STM32L1xx_HAL_Driver/Src/stm32l1xx_hal_rtc_ex.c ****   tmp = (uint32_t) & (hrtc->Instance->BKP0R);
 1825              		.loc 1 1155 0
 1826 0000 0368     		ldr	r3, [r0]
 1827 0002 5033     		adds	r3, r3, #80
 1828              	.LVL136:
1156:..//Source/stm/lib/STM32L1xx_HAL_Driver/Src/stm32l1xx_hal_rtc_ex.c ****   tmp += (BackupRegister * 4U);
1157:..//Source/stm/lib/STM32L1xx_HAL_Driver/Src/stm32l1xx_hal_rtc_ex.c **** 
1158:..//Source/stm/lib/STM32L1xx_HAL_Driver/Src/stm32l1xx_hal_rtc_ex.c ****   /* Write the specified register */
1159:..//Source/stm/lib/STM32L1xx_HAL_Driver/Src/stm32l1xx_hal_rtc_ex.c ****   *(__IO uint32_t *)tmp = (uint32_t)Data;
 1829              		.loc 1 1159 0
 1830 0004 43F82120 		str	r2, [r3, r1, lsl #2]
 1831 0008 7047     		bx	lr
 1832              		.cfi_endproc
 1833              	.LFE95:
 1835              		.section	.text.HAL_RTCEx_BKUPRead,"ax",%progbits
ARM GAS  /tmp/ccTaTHmG.s 			page 54


 1836              		.align	1
 1837              		.global	HAL_RTCEx_BKUPRead
 1838              		.syntax unified
 1839              		.thumb
 1840              		.thumb_func
 1841              		.fpu softvfp
 1843              	HAL_RTCEx_BKUPRead:
 1844              	.LFB96:
1160:..//Source/stm/lib/STM32L1xx_HAL_Driver/Src/stm32l1xx_hal_rtc_ex.c **** }
1161:..//Source/stm/lib/STM32L1xx_HAL_Driver/Src/stm32l1xx_hal_rtc_ex.c **** 
1162:..//Source/stm/lib/STM32L1xx_HAL_Driver/Src/stm32l1xx_hal_rtc_ex.c **** /**
1163:..//Source/stm/lib/STM32L1xx_HAL_Driver/Src/stm32l1xx_hal_rtc_ex.c ****   * @brief  Reads data from the specified RTC Backup data Register.
1164:..//Source/stm/lib/STM32L1xx_HAL_Driver/Src/stm32l1xx_hal_rtc_ex.c ****   * @param  hrtc RTC handle
1165:..//Source/stm/lib/STM32L1xx_HAL_Driver/Src/stm32l1xx_hal_rtc_ex.c ****   * @param  BackupRegister RTC Backup data Register number.
1166:..//Source/stm/lib/STM32L1xx_HAL_Driver/Src/stm32l1xx_hal_rtc_ex.c ****   *          This parameter can be: RTC_BKP_DRx where x can be from 0 to 19 to
1167:..//Source/stm/lib/STM32L1xx_HAL_Driver/Src/stm32l1xx_hal_rtc_ex.c ****   *                                 specify the register.
1168:..//Source/stm/lib/STM32L1xx_HAL_Driver/Src/stm32l1xx_hal_rtc_ex.c ****   * @retval Read value
1169:..//Source/stm/lib/STM32L1xx_HAL_Driver/Src/stm32l1xx_hal_rtc_ex.c ****   */
1170:..//Source/stm/lib/STM32L1xx_HAL_Driver/Src/stm32l1xx_hal_rtc_ex.c **** uint32_t HAL_RTCEx_BKUPRead(RTC_HandleTypeDef *hrtc, uint32_t BackupRegister)
1171:..//Source/stm/lib/STM32L1xx_HAL_Driver/Src/stm32l1xx_hal_rtc_ex.c **** {
 1845              		.loc 1 1171 0
 1846              		.cfi_startproc
 1847              		@ args = 0, pretend = 0, frame = 0
 1848              		@ frame_needed = 0, uses_anonymous_args = 0
 1849              		@ link register save eliminated.
 1850              	.LVL137:
1172:..//Source/stm/lib/STM32L1xx_HAL_Driver/Src/stm32l1xx_hal_rtc_ex.c ****   uint32_t tmp;
1173:..//Source/stm/lib/STM32L1xx_HAL_Driver/Src/stm32l1xx_hal_rtc_ex.c **** 
1174:..//Source/stm/lib/STM32L1xx_HAL_Driver/Src/stm32l1xx_hal_rtc_ex.c ****   /* Check the parameters */
1175:..//Source/stm/lib/STM32L1xx_HAL_Driver/Src/stm32l1xx_hal_rtc_ex.c ****   assert_param(IS_RTC_BKP(BackupRegister));
1176:..//Source/stm/lib/STM32L1xx_HAL_Driver/Src/stm32l1xx_hal_rtc_ex.c **** 
1177:..//Source/stm/lib/STM32L1xx_HAL_Driver/Src/stm32l1xx_hal_rtc_ex.c ****   tmp = (uint32_t) & (hrtc->Instance->BKP0R);
 1851              		.loc 1 1177 0
 1852 0000 0368     		ldr	r3, [r0]
 1853 0002 5033     		adds	r3, r3, #80
 1854              	.LVL138:
1178:..//Source/stm/lib/STM32L1xx_HAL_Driver/Src/stm32l1xx_hal_rtc_ex.c ****   tmp += (BackupRegister * 4U);
1179:..//Source/stm/lib/STM32L1xx_HAL_Driver/Src/stm32l1xx_hal_rtc_ex.c **** 
1180:..//Source/stm/lib/STM32L1xx_HAL_Driver/Src/stm32l1xx_hal_rtc_ex.c ****   /* Read the specified register */
1181:..//Source/stm/lib/STM32L1xx_HAL_Driver/Src/stm32l1xx_hal_rtc_ex.c ****   return (*(__IO uint32_t *)tmp);
 1855              		.loc 1 1181 0
 1856 0004 53F82100 		ldr	r0, [r3, r1, lsl #2]
 1857              	.LVL139:
1182:..//Source/stm/lib/STM32L1xx_HAL_Driver/Src/stm32l1xx_hal_rtc_ex.c **** }
 1858              		.loc 1 1182 0
 1859 0008 7047     		bx	lr
 1860              		.cfi_endproc
 1861              	.LFE96:
 1863              		.section	.text.HAL_RTCEx_SetCoarseCalib,"ax",%progbits
 1864              		.align	1
 1865              		.global	HAL_RTCEx_SetCoarseCalib
 1866              		.syntax unified
 1867              		.thumb
 1868              		.thumb_func
 1869              		.fpu softvfp
 1871              	HAL_RTCEx_SetCoarseCalib:
 1872              	.LFB97:
ARM GAS  /tmp/ccTaTHmG.s 			page 55


1183:..//Source/stm/lib/STM32L1xx_HAL_Driver/Src/stm32l1xx_hal_rtc_ex.c **** 
1184:..//Source/stm/lib/STM32L1xx_HAL_Driver/Src/stm32l1xx_hal_rtc_ex.c **** /**
1185:..//Source/stm/lib/STM32L1xx_HAL_Driver/Src/stm32l1xx_hal_rtc_ex.c ****   * @brief  Sets the Coarse calibration parameters.
1186:..//Source/stm/lib/STM32L1xx_HAL_Driver/Src/stm32l1xx_hal_rtc_ex.c ****   * @param  hrtc pointer to a RTC_HandleTypeDef structure that contains
1187:..//Source/stm/lib/STM32L1xx_HAL_Driver/Src/stm32l1xx_hal_rtc_ex.c ****   *                the configuration information for RTC.
1188:..//Source/stm/lib/STM32L1xx_HAL_Driver/Src/stm32l1xx_hal_rtc_ex.c ****   * @param  CalibSign Specifies the sign of the coarse calibration value.
1189:..//Source/stm/lib/STM32L1xx_HAL_Driver/Src/stm32l1xx_hal_rtc_ex.c ****   *          This parameter can be  one of the following values :
1190:..//Source/stm/lib/STM32L1xx_HAL_Driver/Src/stm32l1xx_hal_rtc_ex.c ****   *             @arg RTC_CALIBSIGN_POSITIVE: The value sign is positive
1191:..//Source/stm/lib/STM32L1xx_HAL_Driver/Src/stm32l1xx_hal_rtc_ex.c ****   *             @arg RTC_CALIBSIGN_NEGATIVE: The value sign is negative
1192:..//Source/stm/lib/STM32L1xx_HAL_Driver/Src/stm32l1xx_hal_rtc_ex.c ****   * @param  Value value of coarse calibration expressed in ppm (coded on 5 bits).
1193:..//Source/stm/lib/STM32L1xx_HAL_Driver/Src/stm32l1xx_hal_rtc_ex.c ****   *
1194:..//Source/stm/lib/STM32L1xx_HAL_Driver/Src/stm32l1xx_hal_rtc_ex.c ****   * @note   This Calibration value should be between 0 and 63 when using negative
1195:..//Source/stm/lib/STM32L1xx_HAL_Driver/Src/stm32l1xx_hal_rtc_ex.c ****   *         sign with a 2-ppm step.
1196:..//Source/stm/lib/STM32L1xx_HAL_Driver/Src/stm32l1xx_hal_rtc_ex.c ****   *
1197:..//Source/stm/lib/STM32L1xx_HAL_Driver/Src/stm32l1xx_hal_rtc_ex.c ****   * @note   This Calibration value should be between 0 and 126 when using positive
1198:..//Source/stm/lib/STM32L1xx_HAL_Driver/Src/stm32l1xx_hal_rtc_ex.c ****   *         sign with a 4-ppm step.
1199:..//Source/stm/lib/STM32L1xx_HAL_Driver/Src/stm32l1xx_hal_rtc_ex.c ****   * @retval HAL status
1200:..//Source/stm/lib/STM32L1xx_HAL_Driver/Src/stm32l1xx_hal_rtc_ex.c ****   */
1201:..//Source/stm/lib/STM32L1xx_HAL_Driver/Src/stm32l1xx_hal_rtc_ex.c **** HAL_StatusTypeDef HAL_RTCEx_SetCoarseCalib(RTC_HandleTypeDef *hrtc, uint32_t CalibSign, uint32_t Va
1202:..//Source/stm/lib/STM32L1xx_HAL_Driver/Src/stm32l1xx_hal_rtc_ex.c **** {
 1873              		.loc 1 1202 0
 1874              		.cfi_startproc
 1875              		@ args = 0, pretend = 0, frame = 0
 1876              		@ frame_needed = 0, uses_anonymous_args = 0
 1877              	.LVL140:
1203:..//Source/stm/lib/STM32L1xx_HAL_Driver/Src/stm32l1xx_hal_rtc_ex.c ****   /* Check the parameters */
1204:..//Source/stm/lib/STM32L1xx_HAL_Driver/Src/stm32l1xx_hal_rtc_ex.c ****   assert_param(IS_RTC_CALIB_SIGN(CalibSign));
1205:..//Source/stm/lib/STM32L1xx_HAL_Driver/Src/stm32l1xx_hal_rtc_ex.c ****   assert_param(IS_RTC_CALIB_VALUE(Value));
1206:..//Source/stm/lib/STM32L1xx_HAL_Driver/Src/stm32l1xx_hal_rtc_ex.c **** 
1207:..//Source/stm/lib/STM32L1xx_HAL_Driver/Src/stm32l1xx_hal_rtc_ex.c ****   /* Process Locked */
1208:..//Source/stm/lib/STM32L1xx_HAL_Driver/Src/stm32l1xx_hal_rtc_ex.c ****   __HAL_LOCK(hrtc);
 1878              		.loc 1 1208 0
 1879 0000 037F     		ldrb	r3, [r0, #28]	@ zero_extendqisi2
 1880 0002 012B     		cmp	r3, #1
 1881 0004 02D1     		bne	.L157
 1882 0006 0223     		movs	r3, #2
1209:..//Source/stm/lib/STM32L1xx_HAL_Driver/Src/stm32l1xx_hal_rtc_ex.c **** 
1210:..//Source/stm/lib/STM32L1xx_HAL_Driver/Src/stm32l1xx_hal_rtc_ex.c ****   hrtc->State = HAL_RTC_STATE_BUSY;
1211:..//Source/stm/lib/STM32L1xx_HAL_Driver/Src/stm32l1xx_hal_rtc_ex.c **** 
1212:..//Source/stm/lib/STM32L1xx_HAL_Driver/Src/stm32l1xx_hal_rtc_ex.c ****   /* Disable the write protection for RTC registers */
1213:..//Source/stm/lib/STM32L1xx_HAL_Driver/Src/stm32l1xx_hal_rtc_ex.c ****   __HAL_RTC_WRITEPROTECTION_DISABLE(hrtc);
1214:..//Source/stm/lib/STM32L1xx_HAL_Driver/Src/stm32l1xx_hal_rtc_ex.c **** 
1215:..//Source/stm/lib/STM32L1xx_HAL_Driver/Src/stm32l1xx_hal_rtc_ex.c ****   /* Set Initialization mode */
1216:..//Source/stm/lib/STM32L1xx_HAL_Driver/Src/stm32l1xx_hal_rtc_ex.c ****   if (RTC_EnterInitMode(hrtc) != HAL_OK)
1217:..//Source/stm/lib/STM32L1xx_HAL_Driver/Src/stm32l1xx_hal_rtc_ex.c ****   {
1218:..//Source/stm/lib/STM32L1xx_HAL_Driver/Src/stm32l1xx_hal_rtc_ex.c ****     /* Enable the write protection for RTC registers */
1219:..//Source/stm/lib/STM32L1xx_HAL_Driver/Src/stm32l1xx_hal_rtc_ex.c ****     __HAL_RTC_WRITEPROTECTION_ENABLE(hrtc);
1220:..//Source/stm/lib/STM32L1xx_HAL_Driver/Src/stm32l1xx_hal_rtc_ex.c **** 
1221:..//Source/stm/lib/STM32L1xx_HAL_Driver/Src/stm32l1xx_hal_rtc_ex.c ****     /* Set RTC state*/
1222:..//Source/stm/lib/STM32L1xx_HAL_Driver/Src/stm32l1xx_hal_rtc_ex.c ****     hrtc->State = HAL_RTC_STATE_ERROR;
1223:..//Source/stm/lib/STM32L1xx_HAL_Driver/Src/stm32l1xx_hal_rtc_ex.c **** 
1224:..//Source/stm/lib/STM32L1xx_HAL_Driver/Src/stm32l1xx_hal_rtc_ex.c ****     /* Process Unlocked */
1225:..//Source/stm/lib/STM32L1xx_HAL_Driver/Src/stm32l1xx_hal_rtc_ex.c ****     __HAL_UNLOCK(hrtc);
1226:..//Source/stm/lib/STM32L1xx_HAL_Driver/Src/stm32l1xx_hal_rtc_ex.c **** 
1227:..//Source/stm/lib/STM32L1xx_HAL_Driver/Src/stm32l1xx_hal_rtc_ex.c ****     return HAL_ERROR;
1228:..//Source/stm/lib/STM32L1xx_HAL_Driver/Src/stm32l1xx_hal_rtc_ex.c ****   }
1229:..//Source/stm/lib/STM32L1xx_HAL_Driver/Src/stm32l1xx_hal_rtc_ex.c ****   else
ARM GAS  /tmp/ccTaTHmG.s 			page 56


1230:..//Source/stm/lib/STM32L1xx_HAL_Driver/Src/stm32l1xx_hal_rtc_ex.c ****   {
1231:..//Source/stm/lib/STM32L1xx_HAL_Driver/Src/stm32l1xx_hal_rtc_ex.c ****     /* Enable the Coarse Calibration */
1232:..//Source/stm/lib/STM32L1xx_HAL_Driver/Src/stm32l1xx_hal_rtc_ex.c ****     __HAL_RTC_COARSE_CALIB_ENABLE(hrtc);
1233:..//Source/stm/lib/STM32L1xx_HAL_Driver/Src/stm32l1xx_hal_rtc_ex.c **** 
1234:..//Source/stm/lib/STM32L1xx_HAL_Driver/Src/stm32l1xx_hal_rtc_ex.c ****     /* Set the coarse calibration value */
1235:..//Source/stm/lib/STM32L1xx_HAL_Driver/Src/stm32l1xx_hal_rtc_ex.c ****     hrtc->Instance->CALIBR = (uint32_t)(CalibSign | Value);
1236:..//Source/stm/lib/STM32L1xx_HAL_Driver/Src/stm32l1xx_hal_rtc_ex.c **** 
1237:..//Source/stm/lib/STM32L1xx_HAL_Driver/Src/stm32l1xx_hal_rtc_ex.c ****     /* Exit Initialization mode */
1238:..//Source/stm/lib/STM32L1xx_HAL_Driver/Src/stm32l1xx_hal_rtc_ex.c ****     hrtc->Instance->ISR &= (uint32_t)~RTC_ISR_INIT;
1239:..//Source/stm/lib/STM32L1xx_HAL_Driver/Src/stm32l1xx_hal_rtc_ex.c ****   }
1240:..//Source/stm/lib/STM32L1xx_HAL_Driver/Src/stm32l1xx_hal_rtc_ex.c **** 
1241:..//Source/stm/lib/STM32L1xx_HAL_Driver/Src/stm32l1xx_hal_rtc_ex.c ****   /* Enable the write protection for RTC registers */
1242:..//Source/stm/lib/STM32L1xx_HAL_Driver/Src/stm32l1xx_hal_rtc_ex.c ****   __HAL_RTC_WRITEPROTECTION_ENABLE(hrtc);
1243:..//Source/stm/lib/STM32L1xx_HAL_Driver/Src/stm32l1xx_hal_rtc_ex.c **** 
1244:..//Source/stm/lib/STM32L1xx_HAL_Driver/Src/stm32l1xx_hal_rtc_ex.c ****   /* Change state */
1245:..//Source/stm/lib/STM32L1xx_HAL_Driver/Src/stm32l1xx_hal_rtc_ex.c ****   hrtc->State = HAL_RTC_STATE_READY;
1246:..//Source/stm/lib/STM32L1xx_HAL_Driver/Src/stm32l1xx_hal_rtc_ex.c **** 
1247:..//Source/stm/lib/STM32L1xx_HAL_Driver/Src/stm32l1xx_hal_rtc_ex.c ****   /* Process Unlocked */
1248:..//Source/stm/lib/STM32L1xx_HAL_Driver/Src/stm32l1xx_hal_rtc_ex.c ****   __HAL_UNLOCK(hrtc);
1249:..//Source/stm/lib/STM32L1xx_HAL_Driver/Src/stm32l1xx_hal_rtc_ex.c **** 
1250:..//Source/stm/lib/STM32L1xx_HAL_Driver/Src/stm32l1xx_hal_rtc_ex.c ****   return HAL_OK;
1251:..//Source/stm/lib/STM32L1xx_HAL_Driver/Src/stm32l1xx_hal_rtc_ex.c **** }
 1883              		.loc 1 1251 0
 1884 0008 1846     		mov	r0, r3
 1885              	.LVL141:
 1886 000a 7047     		bx	lr
 1887              	.LVL142:
 1888              	.L157:
1202:..//Source/stm/lib/STM32L1xx_HAL_Driver/Src/stm32l1xx_hal_rtc_ex.c ****   /* Check the parameters */
 1889              		.loc 1 1202 0 discriminator 2
 1890 000c 70B5     		push	{r4, r5, r6, lr}
 1891              	.LCFI25:
 1892              		.cfi_def_cfa_offset 16
 1893              		.cfi_offset 4, -16
 1894              		.cfi_offset 5, -12
 1895              		.cfi_offset 6, -8
 1896              		.cfi_offset 14, -4
 1897 000e 1646     		mov	r6, r2
 1898 0010 0D46     		mov	r5, r1
 1899 0012 0446     		mov	r4, r0
1208:..//Source/stm/lib/STM32L1xx_HAL_Driver/Src/stm32l1xx_hal_rtc_ex.c **** 
 1900              		.loc 1 1208 0 discriminator 2
 1901 0014 0123     		movs	r3, #1
 1902 0016 0377     		strb	r3, [r0, #28]
1210:..//Source/stm/lib/STM32L1xx_HAL_Driver/Src/stm32l1xx_hal_rtc_ex.c **** 
 1903              		.loc 1 1210 0 discriminator 2
 1904 0018 0223     		movs	r3, #2
 1905 001a 4377     		strb	r3, [r0, #29]
1213:..//Source/stm/lib/STM32L1xx_HAL_Driver/Src/stm32l1xx_hal_rtc_ex.c **** 
 1906              		.loc 1 1213 0 discriminator 2
 1907 001c 0368     		ldr	r3, [r0]
 1908 001e CA22     		movs	r2, #202
 1909              	.LVL143:
 1910 0020 5A62     		str	r2, [r3, #36]
 1911 0022 0368     		ldr	r3, [r0]
 1912 0024 5322     		movs	r2, #83
 1913 0026 5A62     		str	r2, [r3, #36]
ARM GAS  /tmp/ccTaTHmG.s 			page 57


1216:..//Source/stm/lib/STM32L1xx_HAL_Driver/Src/stm32l1xx_hal_rtc_ex.c ****   {
 1914              		.loc 1 1216 0 discriminator 2
 1915 0028 FFF7FEFF 		bl	RTC_EnterInitMode
 1916              	.LVL144:
 1917 002c 0346     		mov	r3, r0
 1918 002e A8B9     		cbnz	r0, .L158
1232:..//Source/stm/lib/STM32L1xx_HAL_Driver/Src/stm32l1xx_hal_rtc_ex.c **** 
 1919              		.loc 1 1232 0
 1920 0030 2168     		ldr	r1, [r4]
 1921 0032 8A68     		ldr	r2, [r1, #8]
 1922 0034 42F08002 		orr	r2, r2, #128
 1923 0038 8A60     		str	r2, [r1, #8]
1235:..//Source/stm/lib/STM32L1xx_HAL_Driver/Src/stm32l1xx_hal_rtc_ex.c **** 
 1924              		.loc 1 1235 0
 1925 003a 2268     		ldr	r2, [r4]
 1926 003c 3543     		orrs	r5, r5, r6
 1927              	.LVL145:
 1928 003e 9561     		str	r5, [r2, #24]
1238:..//Source/stm/lib/STM32L1xx_HAL_Driver/Src/stm32l1xx_hal_rtc_ex.c ****   }
 1929              		.loc 1 1238 0
 1930 0040 2168     		ldr	r1, [r4]
 1931 0042 CA68     		ldr	r2, [r1, #12]
 1932 0044 22F08002 		bic	r2, r2, #128
 1933 0048 CA60     		str	r2, [r1, #12]
1242:..//Source/stm/lib/STM32L1xx_HAL_Driver/Src/stm32l1xx_hal_rtc_ex.c **** 
 1934              		.loc 1 1242 0
 1935 004a 2268     		ldr	r2, [r4]
 1936 004c FF21     		movs	r1, #255
 1937 004e 5162     		str	r1, [r2, #36]
1245:..//Source/stm/lib/STM32L1xx_HAL_Driver/Src/stm32l1xx_hal_rtc_ex.c **** 
 1938              		.loc 1 1245 0
 1939 0050 0122     		movs	r2, #1
 1940 0052 6277     		strb	r2, [r4, #29]
1248:..//Source/stm/lib/STM32L1xx_HAL_Driver/Src/stm32l1xx_hal_rtc_ex.c **** 
 1941              		.loc 1 1248 0
 1942 0054 0022     		movs	r2, #0
 1943 0056 2277     		strb	r2, [r4, #28]
 1944              	.L150:
 1945              		.loc 1 1251 0
 1946 0058 1846     		mov	r0, r3
 1947 005a 70BD     		pop	{r4, r5, r6, pc}
 1948              	.LVL146:
 1949              	.L158:
1219:..//Source/stm/lib/STM32L1xx_HAL_Driver/Src/stm32l1xx_hal_rtc_ex.c **** 
 1950              		.loc 1 1219 0
 1951 005c 2368     		ldr	r3, [r4]
 1952 005e FF22     		movs	r2, #255
 1953 0060 5A62     		str	r2, [r3, #36]
1222:..//Source/stm/lib/STM32L1xx_HAL_Driver/Src/stm32l1xx_hal_rtc_ex.c **** 
 1954              		.loc 1 1222 0
 1955 0062 0423     		movs	r3, #4
 1956 0064 6377     		strb	r3, [r4, #29]
1225:..//Source/stm/lib/STM32L1xx_HAL_Driver/Src/stm32l1xx_hal_rtc_ex.c **** 
 1957              		.loc 1 1225 0
 1958 0066 0023     		movs	r3, #0
 1959 0068 2377     		strb	r3, [r4, #28]
1227:..//Source/stm/lib/STM32L1xx_HAL_Driver/Src/stm32l1xx_hal_rtc_ex.c ****   }
ARM GAS  /tmp/ccTaTHmG.s 			page 58


 1960              		.loc 1 1227 0
 1961 006a 0123     		movs	r3, #1
 1962 006c F4E7     		b	.L150
 1963              		.cfi_endproc
 1964              	.LFE97:
 1966              		.section	.text.HAL_RTCEx_DeactivateCoarseCalib,"ax",%progbits
 1967              		.align	1
 1968              		.global	HAL_RTCEx_DeactivateCoarseCalib
 1969              		.syntax unified
 1970              		.thumb
 1971              		.thumb_func
 1972              		.fpu softvfp
 1974              	HAL_RTCEx_DeactivateCoarseCalib:
 1975              	.LFB98:
1252:..//Source/stm/lib/STM32L1xx_HAL_Driver/Src/stm32l1xx_hal_rtc_ex.c **** 
1253:..//Source/stm/lib/STM32L1xx_HAL_Driver/Src/stm32l1xx_hal_rtc_ex.c **** /**
1254:..//Source/stm/lib/STM32L1xx_HAL_Driver/Src/stm32l1xx_hal_rtc_ex.c ****   * @brief  Deactivates the Coarse calibration parameters.
1255:..//Source/stm/lib/STM32L1xx_HAL_Driver/Src/stm32l1xx_hal_rtc_ex.c ****   * @param  hrtc pointer to a RTC_HandleTypeDef structure that contains
1256:..//Source/stm/lib/STM32L1xx_HAL_Driver/Src/stm32l1xx_hal_rtc_ex.c ****   *                the configuration information for RTC.
1257:..//Source/stm/lib/STM32L1xx_HAL_Driver/Src/stm32l1xx_hal_rtc_ex.c ****   * @retval HAL status
1258:..//Source/stm/lib/STM32L1xx_HAL_Driver/Src/stm32l1xx_hal_rtc_ex.c ****   */
1259:..//Source/stm/lib/STM32L1xx_HAL_Driver/Src/stm32l1xx_hal_rtc_ex.c **** HAL_StatusTypeDef HAL_RTCEx_DeactivateCoarseCalib(RTC_HandleTypeDef *hrtc)
1260:..//Source/stm/lib/STM32L1xx_HAL_Driver/Src/stm32l1xx_hal_rtc_ex.c **** {
 1976              		.loc 1 1260 0
 1977              		.cfi_startproc
 1978              		@ args = 0, pretend = 0, frame = 0
 1979              		@ frame_needed = 0, uses_anonymous_args = 0
 1980              	.LVL147:
1261:..//Source/stm/lib/STM32L1xx_HAL_Driver/Src/stm32l1xx_hal_rtc_ex.c ****   /* Process Locked */
1262:..//Source/stm/lib/STM32L1xx_HAL_Driver/Src/stm32l1xx_hal_rtc_ex.c ****   __HAL_LOCK(hrtc);
 1981              		.loc 1 1262 0
 1982 0000 037F     		ldrb	r3, [r0, #28]	@ zero_extendqisi2
 1983 0002 012B     		cmp	r3, #1
 1984 0004 02D1     		bne	.L167
 1985 0006 0223     		movs	r3, #2
1263:..//Source/stm/lib/STM32L1xx_HAL_Driver/Src/stm32l1xx_hal_rtc_ex.c **** 
1264:..//Source/stm/lib/STM32L1xx_HAL_Driver/Src/stm32l1xx_hal_rtc_ex.c ****   hrtc->State = HAL_RTC_STATE_BUSY;
1265:..//Source/stm/lib/STM32L1xx_HAL_Driver/Src/stm32l1xx_hal_rtc_ex.c **** 
1266:..//Source/stm/lib/STM32L1xx_HAL_Driver/Src/stm32l1xx_hal_rtc_ex.c ****   /* Disable the write protection for RTC registers */
1267:..//Source/stm/lib/STM32L1xx_HAL_Driver/Src/stm32l1xx_hal_rtc_ex.c ****   __HAL_RTC_WRITEPROTECTION_DISABLE(hrtc);
1268:..//Source/stm/lib/STM32L1xx_HAL_Driver/Src/stm32l1xx_hal_rtc_ex.c **** 
1269:..//Source/stm/lib/STM32L1xx_HAL_Driver/Src/stm32l1xx_hal_rtc_ex.c ****   /* Set Initialization mode */
1270:..//Source/stm/lib/STM32L1xx_HAL_Driver/Src/stm32l1xx_hal_rtc_ex.c ****   if (RTC_EnterInitMode(hrtc) != HAL_OK)
1271:..//Source/stm/lib/STM32L1xx_HAL_Driver/Src/stm32l1xx_hal_rtc_ex.c ****   {
1272:..//Source/stm/lib/STM32L1xx_HAL_Driver/Src/stm32l1xx_hal_rtc_ex.c ****     /* Enable the write protection for RTC registers */
1273:..//Source/stm/lib/STM32L1xx_HAL_Driver/Src/stm32l1xx_hal_rtc_ex.c ****     __HAL_RTC_WRITEPROTECTION_ENABLE(hrtc);
1274:..//Source/stm/lib/STM32L1xx_HAL_Driver/Src/stm32l1xx_hal_rtc_ex.c **** 
1275:..//Source/stm/lib/STM32L1xx_HAL_Driver/Src/stm32l1xx_hal_rtc_ex.c ****     /* Set RTC state*/
1276:..//Source/stm/lib/STM32L1xx_HAL_Driver/Src/stm32l1xx_hal_rtc_ex.c ****     hrtc->State = HAL_RTC_STATE_ERROR;
1277:..//Source/stm/lib/STM32L1xx_HAL_Driver/Src/stm32l1xx_hal_rtc_ex.c **** 
1278:..//Source/stm/lib/STM32L1xx_HAL_Driver/Src/stm32l1xx_hal_rtc_ex.c ****     /* Process Unlocked */
1279:..//Source/stm/lib/STM32L1xx_HAL_Driver/Src/stm32l1xx_hal_rtc_ex.c ****     __HAL_UNLOCK(hrtc);
1280:..//Source/stm/lib/STM32L1xx_HAL_Driver/Src/stm32l1xx_hal_rtc_ex.c **** 
1281:..//Source/stm/lib/STM32L1xx_HAL_Driver/Src/stm32l1xx_hal_rtc_ex.c ****     return HAL_ERROR;
1282:..//Source/stm/lib/STM32L1xx_HAL_Driver/Src/stm32l1xx_hal_rtc_ex.c ****   }
1283:..//Source/stm/lib/STM32L1xx_HAL_Driver/Src/stm32l1xx_hal_rtc_ex.c ****   else
1284:..//Source/stm/lib/STM32L1xx_HAL_Driver/Src/stm32l1xx_hal_rtc_ex.c ****   {
ARM GAS  /tmp/ccTaTHmG.s 			page 59


1285:..//Source/stm/lib/STM32L1xx_HAL_Driver/Src/stm32l1xx_hal_rtc_ex.c ****     /* Enable the Coarse Calibration */
1286:..//Source/stm/lib/STM32L1xx_HAL_Driver/Src/stm32l1xx_hal_rtc_ex.c ****     __HAL_RTC_COARSE_CALIB_DISABLE(hrtc);
1287:..//Source/stm/lib/STM32L1xx_HAL_Driver/Src/stm32l1xx_hal_rtc_ex.c **** 
1288:..//Source/stm/lib/STM32L1xx_HAL_Driver/Src/stm32l1xx_hal_rtc_ex.c ****     /* Exit Initialization mode */
1289:..//Source/stm/lib/STM32L1xx_HAL_Driver/Src/stm32l1xx_hal_rtc_ex.c ****     hrtc->Instance->ISR &= (uint32_t)~RTC_ISR_INIT;
1290:..//Source/stm/lib/STM32L1xx_HAL_Driver/Src/stm32l1xx_hal_rtc_ex.c ****   }
1291:..//Source/stm/lib/STM32L1xx_HAL_Driver/Src/stm32l1xx_hal_rtc_ex.c **** 
1292:..//Source/stm/lib/STM32L1xx_HAL_Driver/Src/stm32l1xx_hal_rtc_ex.c ****   /* Enable the write protection for RTC registers */
1293:..//Source/stm/lib/STM32L1xx_HAL_Driver/Src/stm32l1xx_hal_rtc_ex.c ****   __HAL_RTC_WRITEPROTECTION_ENABLE(hrtc);
1294:..//Source/stm/lib/STM32L1xx_HAL_Driver/Src/stm32l1xx_hal_rtc_ex.c **** 
1295:..//Source/stm/lib/STM32L1xx_HAL_Driver/Src/stm32l1xx_hal_rtc_ex.c ****   /* Change state */
1296:..//Source/stm/lib/STM32L1xx_HAL_Driver/Src/stm32l1xx_hal_rtc_ex.c ****   hrtc->State = HAL_RTC_STATE_READY;
1297:..//Source/stm/lib/STM32L1xx_HAL_Driver/Src/stm32l1xx_hal_rtc_ex.c **** 
1298:..//Source/stm/lib/STM32L1xx_HAL_Driver/Src/stm32l1xx_hal_rtc_ex.c ****   /* Process Unlocked */
1299:..//Source/stm/lib/STM32L1xx_HAL_Driver/Src/stm32l1xx_hal_rtc_ex.c ****   __HAL_UNLOCK(hrtc);
1300:..//Source/stm/lib/STM32L1xx_HAL_Driver/Src/stm32l1xx_hal_rtc_ex.c **** 
1301:..//Source/stm/lib/STM32L1xx_HAL_Driver/Src/stm32l1xx_hal_rtc_ex.c ****   return HAL_OK;
1302:..//Source/stm/lib/STM32L1xx_HAL_Driver/Src/stm32l1xx_hal_rtc_ex.c **** }
 1986              		.loc 1 1302 0
 1987 0008 1846     		mov	r0, r3
 1988              	.LVL148:
 1989 000a 7047     		bx	lr
 1990              	.LVL149:
 1991              	.L167:
1260:..//Source/stm/lib/STM32L1xx_HAL_Driver/Src/stm32l1xx_hal_rtc_ex.c ****   /* Process Locked */
 1992              		.loc 1 1260 0 discriminator 2
 1993 000c 10B5     		push	{r4, lr}
 1994              	.LCFI26:
 1995              		.cfi_def_cfa_offset 8
 1996              		.cfi_offset 4, -8
 1997              		.cfi_offset 14, -4
 1998 000e 0446     		mov	r4, r0
1262:..//Source/stm/lib/STM32L1xx_HAL_Driver/Src/stm32l1xx_hal_rtc_ex.c **** 
 1999              		.loc 1 1262 0 discriminator 2
 2000 0010 0123     		movs	r3, #1
 2001 0012 0377     		strb	r3, [r0, #28]
1264:..//Source/stm/lib/STM32L1xx_HAL_Driver/Src/stm32l1xx_hal_rtc_ex.c **** 
 2002              		.loc 1 1264 0 discriminator 2
 2003 0014 0223     		movs	r3, #2
 2004 0016 4377     		strb	r3, [r0, #29]
1267:..//Source/stm/lib/STM32L1xx_HAL_Driver/Src/stm32l1xx_hal_rtc_ex.c **** 
 2005              		.loc 1 1267 0 discriminator 2
 2006 0018 0368     		ldr	r3, [r0]
 2007 001a CA22     		movs	r2, #202
 2008 001c 5A62     		str	r2, [r3, #36]
 2009 001e 0368     		ldr	r3, [r0]
 2010 0020 5322     		movs	r2, #83
 2011 0022 5A62     		str	r2, [r3, #36]
1270:..//Source/stm/lib/STM32L1xx_HAL_Driver/Src/stm32l1xx_hal_rtc_ex.c ****   {
 2012              		.loc 1 1270 0 discriminator 2
 2013 0024 FFF7FEFF 		bl	RTC_EnterInitMode
 2014              	.LVL150:
 2015 0028 0346     		mov	r3, r0
 2016 002a 90B9     		cbnz	r0, .L168
1286:..//Source/stm/lib/STM32L1xx_HAL_Driver/Src/stm32l1xx_hal_rtc_ex.c **** 
 2017              		.loc 1 1286 0
 2018 002c 2168     		ldr	r1, [r4]
ARM GAS  /tmp/ccTaTHmG.s 			page 60


 2019 002e 8A68     		ldr	r2, [r1, #8]
 2020 0030 22F08002 		bic	r2, r2, #128
 2021 0034 8A60     		str	r2, [r1, #8]
1289:..//Source/stm/lib/STM32L1xx_HAL_Driver/Src/stm32l1xx_hal_rtc_ex.c ****   }
 2022              		.loc 1 1289 0
 2023 0036 2168     		ldr	r1, [r4]
 2024 0038 CA68     		ldr	r2, [r1, #12]
 2025 003a 22F08002 		bic	r2, r2, #128
 2026 003e CA60     		str	r2, [r1, #12]
1293:..//Source/stm/lib/STM32L1xx_HAL_Driver/Src/stm32l1xx_hal_rtc_ex.c **** 
 2027              		.loc 1 1293 0
 2028 0040 2268     		ldr	r2, [r4]
 2029 0042 FF21     		movs	r1, #255
 2030 0044 5162     		str	r1, [r2, #36]
1296:..//Source/stm/lib/STM32L1xx_HAL_Driver/Src/stm32l1xx_hal_rtc_ex.c **** 
 2031              		.loc 1 1296 0
 2032 0046 0122     		movs	r2, #1
 2033 0048 6277     		strb	r2, [r4, #29]
1299:..//Source/stm/lib/STM32L1xx_HAL_Driver/Src/stm32l1xx_hal_rtc_ex.c **** 
 2034              		.loc 1 1299 0
 2035 004a 0022     		movs	r2, #0
 2036 004c 2277     		strb	r2, [r4, #28]
 2037              	.L160:
 2038              		.loc 1 1302 0
 2039 004e 1846     		mov	r0, r3
 2040 0050 10BD     		pop	{r4, pc}
 2041              	.LVL151:
 2042              	.L168:
1273:..//Source/stm/lib/STM32L1xx_HAL_Driver/Src/stm32l1xx_hal_rtc_ex.c **** 
 2043              		.loc 1 1273 0
 2044 0052 2368     		ldr	r3, [r4]
 2045 0054 FF22     		movs	r2, #255
 2046 0056 5A62     		str	r2, [r3, #36]
1276:..//Source/stm/lib/STM32L1xx_HAL_Driver/Src/stm32l1xx_hal_rtc_ex.c **** 
 2047              		.loc 1 1276 0
 2048 0058 0423     		movs	r3, #4
 2049 005a 6377     		strb	r3, [r4, #29]
1279:..//Source/stm/lib/STM32L1xx_HAL_Driver/Src/stm32l1xx_hal_rtc_ex.c **** 
 2050              		.loc 1 1279 0
 2051 005c 0023     		movs	r3, #0
 2052 005e 2377     		strb	r3, [r4, #28]
1281:..//Source/stm/lib/STM32L1xx_HAL_Driver/Src/stm32l1xx_hal_rtc_ex.c ****   }
 2053              		.loc 1 1281 0
 2054 0060 0123     		movs	r3, #1
 2055 0062 F4E7     		b	.L160
 2056              		.cfi_endproc
 2057              	.LFE98:
 2059              		.section	.text.HAL_RTCEx_SetSmoothCalib,"ax",%progbits
 2060              		.align	1
 2061              		.global	HAL_RTCEx_SetSmoothCalib
 2062              		.syntax unified
 2063              		.thumb
 2064              		.thumb_func
 2065              		.fpu softvfp
 2067              	HAL_RTCEx_SetSmoothCalib:
 2068              	.LFB99:
1303:..//Source/stm/lib/STM32L1xx_HAL_Driver/Src/stm32l1xx_hal_rtc_ex.c **** 
ARM GAS  /tmp/ccTaTHmG.s 			page 61


1304:..//Source/stm/lib/STM32L1xx_HAL_Driver/Src/stm32l1xx_hal_rtc_ex.c **** #if defined(STM32L100xBA) || defined (STM32L151xBA) || defined (STM32L152xBA) || defined(STM32L100x
1305:..//Source/stm/lib/STM32L1xx_HAL_Driver/Src/stm32l1xx_hal_rtc_ex.c **** /**
1306:..//Source/stm/lib/STM32L1xx_HAL_Driver/Src/stm32l1xx_hal_rtc_ex.c ****   * @brief  Set the Smooth calibration parameters.
1307:..//Source/stm/lib/STM32L1xx_HAL_Driver/Src/stm32l1xx_hal_rtc_ex.c ****   * @param  hrtc RTC handle
1308:..//Source/stm/lib/STM32L1xx_HAL_Driver/Src/stm32l1xx_hal_rtc_ex.c ****   * @param  SmoothCalibPeriod Select the Smooth Calibration Period.
1309:..//Source/stm/lib/STM32L1xx_HAL_Driver/Src/stm32l1xx_hal_rtc_ex.c ****   *          This parameter can be can be one of the following values :
1310:..//Source/stm/lib/STM32L1xx_HAL_Driver/Src/stm32l1xx_hal_rtc_ex.c ****   *             @arg RTC_SMOOTHCALIB_PERIOD_32SEC: The smooth calibration period is 32s.
1311:..//Source/stm/lib/STM32L1xx_HAL_Driver/Src/stm32l1xx_hal_rtc_ex.c ****   *             @arg RTC_SMOOTHCALIB_PERIOD_16SEC: The smooth calibration period is 16s.
1312:..//Source/stm/lib/STM32L1xx_HAL_Driver/Src/stm32l1xx_hal_rtc_ex.c ****   *             @arg RTC_SMOOTHCALIB_PERIOD_8SEC: The smooth calibration period is 8s.
1313:..//Source/stm/lib/STM32L1xx_HAL_Driver/Src/stm32l1xx_hal_rtc_ex.c ****   * @param  SmoothCalibPlusPulses Select to Set or reset the CALP bit.
1314:..//Source/stm/lib/STM32L1xx_HAL_Driver/Src/stm32l1xx_hal_rtc_ex.c ****   *          This parameter can be one of the following values:
1315:..//Source/stm/lib/STM32L1xx_HAL_Driver/Src/stm32l1xx_hal_rtc_ex.c ****   *             @arg RTC_SMOOTHCALIB_PLUSPULSES_SET: Add one RTCCLK pulse every 2*11 pulses.
1316:..//Source/stm/lib/STM32L1xx_HAL_Driver/Src/stm32l1xx_hal_rtc_ex.c ****   *             @arg RTC_SMOOTHCALIB_PLUSPULSES_RESET: No RTCCLK pulses are added.
1317:..//Source/stm/lib/STM32L1xx_HAL_Driver/Src/stm32l1xx_hal_rtc_ex.c ****   * @param  SmoothCalibMinusPulsesValue Select the value of CALM[8:0] bits.
1318:..//Source/stm/lib/STM32L1xx_HAL_Driver/Src/stm32l1xx_hal_rtc_ex.c ****   *          This parameter can be one any value from 0 to 0x000001FF.
1319:..//Source/stm/lib/STM32L1xx_HAL_Driver/Src/stm32l1xx_hal_rtc_ex.c ****   * @note   To deactivate the smooth calibration, the field SmoothCalibPlusPulses
1320:..//Source/stm/lib/STM32L1xx_HAL_Driver/Src/stm32l1xx_hal_rtc_ex.c ****   *         must be equal to SMOOTHCALIB_PLUSPULSES_RESET and the field
1321:..//Source/stm/lib/STM32L1xx_HAL_Driver/Src/stm32l1xx_hal_rtc_ex.c ****   *         SmoothCalibMinusPulsesValue mut be equal to 0.
1322:..//Source/stm/lib/STM32L1xx_HAL_Driver/Src/stm32l1xx_hal_rtc_ex.c ****   * @retval HAL status
1323:..//Source/stm/lib/STM32L1xx_HAL_Driver/Src/stm32l1xx_hal_rtc_ex.c ****   */
1324:..//Source/stm/lib/STM32L1xx_HAL_Driver/Src/stm32l1xx_hal_rtc_ex.c **** HAL_StatusTypeDef HAL_RTCEx_SetSmoothCalib(RTC_HandleTypeDef *hrtc, uint32_t SmoothCalibPeriod, uin
1325:..//Source/stm/lib/STM32L1xx_HAL_Driver/Src/stm32l1xx_hal_rtc_ex.c **** {
 2069              		.loc 1 1325 0
 2070              		.cfi_startproc
 2071              		@ args = 0, pretend = 0, frame = 0
 2072              		@ frame_needed = 0, uses_anonymous_args = 0
 2073              	.LVL152:
 2074 0000 2DE9F041 		push	{r4, r5, r6, r7, r8, lr}
 2075              	.LCFI27:
 2076              		.cfi_def_cfa_offset 24
 2077              		.cfi_offset 4, -24
 2078              		.cfi_offset 5, -20
 2079              		.cfi_offset 6, -16
 2080              		.cfi_offset 7, -12
 2081              		.cfi_offset 8, -8
 2082              		.cfi_offset 14, -4
1326:..//Source/stm/lib/STM32L1xx_HAL_Driver/Src/stm32l1xx_hal_rtc_ex.c ****   uint32_t tickstart;
1327:..//Source/stm/lib/STM32L1xx_HAL_Driver/Src/stm32l1xx_hal_rtc_ex.c **** 
1328:..//Source/stm/lib/STM32L1xx_HAL_Driver/Src/stm32l1xx_hal_rtc_ex.c ****   /* Check the parameters */
1329:..//Source/stm/lib/STM32L1xx_HAL_Driver/Src/stm32l1xx_hal_rtc_ex.c ****   assert_param(IS_RTC_SMOOTH_CALIB_PERIOD(SmoothCalibPeriod));
1330:..//Source/stm/lib/STM32L1xx_HAL_Driver/Src/stm32l1xx_hal_rtc_ex.c ****   assert_param(IS_RTC_SMOOTH_CALIB_PLUS(SmoothCalibPlusPulses));
1331:..//Source/stm/lib/STM32L1xx_HAL_Driver/Src/stm32l1xx_hal_rtc_ex.c ****   assert_param(IS_RTC_SMOOTH_CALIB_MINUS(SmoothCalibMinusPulsesValue));
1332:..//Source/stm/lib/STM32L1xx_HAL_Driver/Src/stm32l1xx_hal_rtc_ex.c **** 
1333:..//Source/stm/lib/STM32L1xx_HAL_Driver/Src/stm32l1xx_hal_rtc_ex.c ****   /* Process Locked */
1334:..//Source/stm/lib/STM32L1xx_HAL_Driver/Src/stm32l1xx_hal_rtc_ex.c ****   __HAL_LOCK(hrtc);
 2083              		.loc 1 1334 0
 2084 0004 047F     		ldrb	r4, [r0, #28]	@ zero_extendqisi2
 2085 0006 012C     		cmp	r4, #1
 2086 0008 37D0     		beq	.L174
 2087 000a 1E46     		mov	r6, r3
 2088 000c 1746     		mov	r7, r2
 2089 000e 0D46     		mov	r5, r1
 2090 0010 0446     		mov	r4, r0
 2091              		.loc 1 1334 0 is_stmt 0 discriminator 2
 2092 0012 0123     		movs	r3, #1
 2093              	.LVL153:
 2094 0014 0377     		strb	r3, [r0, #28]
ARM GAS  /tmp/ccTaTHmG.s 			page 62


1335:..//Source/stm/lib/STM32L1xx_HAL_Driver/Src/stm32l1xx_hal_rtc_ex.c **** 
1336:..//Source/stm/lib/STM32L1xx_HAL_Driver/Src/stm32l1xx_hal_rtc_ex.c ****   hrtc->State = HAL_RTC_STATE_BUSY;
 2095              		.loc 1 1336 0 is_stmt 1 discriminator 2
 2096 0016 0223     		movs	r3, #2
 2097 0018 4377     		strb	r3, [r0, #29]
1337:..//Source/stm/lib/STM32L1xx_HAL_Driver/Src/stm32l1xx_hal_rtc_ex.c **** 
1338:..//Source/stm/lib/STM32L1xx_HAL_Driver/Src/stm32l1xx_hal_rtc_ex.c ****   /* Disable the write protection for RTC registers */
1339:..//Source/stm/lib/STM32L1xx_HAL_Driver/Src/stm32l1xx_hal_rtc_ex.c ****   __HAL_RTC_WRITEPROTECTION_DISABLE(hrtc);
 2098              		.loc 1 1339 0 discriminator 2
 2099 001a 0368     		ldr	r3, [r0]
 2100 001c CA22     		movs	r2, #202
 2101              	.LVL154:
 2102 001e 5A62     		str	r2, [r3, #36]
 2103 0020 0368     		ldr	r3, [r0]
 2104 0022 5322     		movs	r2, #83
 2105 0024 5A62     		str	r2, [r3, #36]
1340:..//Source/stm/lib/STM32L1xx_HAL_Driver/Src/stm32l1xx_hal_rtc_ex.c **** 
1341:..//Source/stm/lib/STM32L1xx_HAL_Driver/Src/stm32l1xx_hal_rtc_ex.c ****   /* check if a calibration is pending*/
1342:..//Source/stm/lib/STM32L1xx_HAL_Driver/Src/stm32l1xx_hal_rtc_ex.c ****   if ((hrtc->Instance->ISR & RTC_ISR_RECALPF) != 0U)
 2106              		.loc 1 1342 0 discriminator 2
 2107 0026 0368     		ldr	r3, [r0]
 2108 0028 DB68     		ldr	r3, [r3, #12]
 2109 002a 13F4803F 		tst	r3, #65536
 2110 002e 0CD1     		bne	.L176
 2111              	.LVL155:
 2112              	.L171:
1343:..//Source/stm/lib/STM32L1xx_HAL_Driver/Src/stm32l1xx_hal_rtc_ex.c ****   {
1344:..//Source/stm/lib/STM32L1xx_HAL_Driver/Src/stm32l1xx_hal_rtc_ex.c ****     tickstart = HAL_GetTick();
1345:..//Source/stm/lib/STM32L1xx_HAL_Driver/Src/stm32l1xx_hal_rtc_ex.c **** 
1346:..//Source/stm/lib/STM32L1xx_HAL_Driver/Src/stm32l1xx_hal_rtc_ex.c ****     /* check if a calibration is pending*/
1347:..//Source/stm/lib/STM32L1xx_HAL_Driver/Src/stm32l1xx_hal_rtc_ex.c ****     while ((hrtc->Instance->ISR & RTC_ISR_RECALPF) != 0U)
1348:..//Source/stm/lib/STM32L1xx_HAL_Driver/Src/stm32l1xx_hal_rtc_ex.c ****     {
1349:..//Source/stm/lib/STM32L1xx_HAL_Driver/Src/stm32l1xx_hal_rtc_ex.c ****       if ((HAL_GetTick() - tickstart) >  RTC_TIMEOUT_VALUE)
1350:..//Source/stm/lib/STM32L1xx_HAL_Driver/Src/stm32l1xx_hal_rtc_ex.c ****       {
1351:..//Source/stm/lib/STM32L1xx_HAL_Driver/Src/stm32l1xx_hal_rtc_ex.c ****         /* Enable the write protection for RTC registers */
1352:..//Source/stm/lib/STM32L1xx_HAL_Driver/Src/stm32l1xx_hal_rtc_ex.c ****         __HAL_RTC_WRITEPROTECTION_ENABLE(hrtc);
1353:..//Source/stm/lib/STM32L1xx_HAL_Driver/Src/stm32l1xx_hal_rtc_ex.c **** 
1354:..//Source/stm/lib/STM32L1xx_HAL_Driver/Src/stm32l1xx_hal_rtc_ex.c ****         /* Change RTC state */
1355:..//Source/stm/lib/STM32L1xx_HAL_Driver/Src/stm32l1xx_hal_rtc_ex.c ****         hrtc->State = HAL_RTC_STATE_TIMEOUT;
1356:..//Source/stm/lib/STM32L1xx_HAL_Driver/Src/stm32l1xx_hal_rtc_ex.c **** 
1357:..//Source/stm/lib/STM32L1xx_HAL_Driver/Src/stm32l1xx_hal_rtc_ex.c ****         /* Process Unlocked */
1358:..//Source/stm/lib/STM32L1xx_HAL_Driver/Src/stm32l1xx_hal_rtc_ex.c ****         __HAL_UNLOCK(hrtc);
1359:..//Source/stm/lib/STM32L1xx_HAL_Driver/Src/stm32l1xx_hal_rtc_ex.c **** 
1360:..//Source/stm/lib/STM32L1xx_HAL_Driver/Src/stm32l1xx_hal_rtc_ex.c ****         return HAL_TIMEOUT;
1361:..//Source/stm/lib/STM32L1xx_HAL_Driver/Src/stm32l1xx_hal_rtc_ex.c ****       }
1362:..//Source/stm/lib/STM32L1xx_HAL_Driver/Src/stm32l1xx_hal_rtc_ex.c ****     }
1363:..//Source/stm/lib/STM32L1xx_HAL_Driver/Src/stm32l1xx_hal_rtc_ex.c ****   }
1364:..//Source/stm/lib/STM32L1xx_HAL_Driver/Src/stm32l1xx_hal_rtc_ex.c **** 
1365:..//Source/stm/lib/STM32L1xx_HAL_Driver/Src/stm32l1xx_hal_rtc_ex.c ****   /* Configure the Smooth calibration settings */
1366:..//Source/stm/lib/STM32L1xx_HAL_Driver/Src/stm32l1xx_hal_rtc_ex.c ****   hrtc->Instance->CALR = (uint32_t)((uint32_t)SmoothCalibPeriod | (uint32_t)SmoothCalibPlusPulses |
 2113              		.loc 1 1366 0
 2114 0030 2368     		ldr	r3, [r4]
 2115 0032 3D43     		orrs	r5, r5, r7
 2116              	.LVL156:
 2117 0034 3543     		orrs	r5, r5, r6
 2118 0036 DD63     		str	r5, [r3, #60]
1367:..//Source/stm/lib/STM32L1xx_HAL_Driver/Src/stm32l1xx_hal_rtc_ex.c **** 
ARM GAS  /tmp/ccTaTHmG.s 			page 63


1368:..//Source/stm/lib/STM32L1xx_HAL_Driver/Src/stm32l1xx_hal_rtc_ex.c ****   /* Enable the write protection for RTC registers */
1369:..//Source/stm/lib/STM32L1xx_HAL_Driver/Src/stm32l1xx_hal_rtc_ex.c ****   __HAL_RTC_WRITEPROTECTION_ENABLE(hrtc);
 2119              		.loc 1 1369 0
 2120 0038 2368     		ldr	r3, [r4]
 2121 003a FF22     		movs	r2, #255
 2122 003c 5A62     		str	r2, [r3, #36]
1370:..//Source/stm/lib/STM32L1xx_HAL_Driver/Src/stm32l1xx_hal_rtc_ex.c **** 
1371:..//Source/stm/lib/STM32L1xx_HAL_Driver/Src/stm32l1xx_hal_rtc_ex.c ****   /* Change RTC state */
1372:..//Source/stm/lib/STM32L1xx_HAL_Driver/Src/stm32l1xx_hal_rtc_ex.c ****   hrtc->State = HAL_RTC_STATE_READY;
 2123              		.loc 1 1372 0
 2124 003e 0123     		movs	r3, #1
 2125 0040 6377     		strb	r3, [r4, #29]
1373:..//Source/stm/lib/STM32L1xx_HAL_Driver/Src/stm32l1xx_hal_rtc_ex.c **** 
1374:..//Source/stm/lib/STM32L1xx_HAL_Driver/Src/stm32l1xx_hal_rtc_ex.c ****   /* Process Unlocked */
1375:..//Source/stm/lib/STM32L1xx_HAL_Driver/Src/stm32l1xx_hal_rtc_ex.c ****   __HAL_UNLOCK(hrtc);
 2126              		.loc 1 1375 0
 2127 0042 0020     		movs	r0, #0
 2128 0044 2077     		strb	r0, [r4, #28]
1376:..//Source/stm/lib/STM32L1xx_HAL_Driver/Src/stm32l1xx_hal_rtc_ex.c **** 
1377:..//Source/stm/lib/STM32L1xx_HAL_Driver/Src/stm32l1xx_hal_rtc_ex.c ****   return HAL_OK;
 2129              		.loc 1 1377 0
 2130 0046 BDE8F081 		pop	{r4, r5, r6, r7, r8, pc}
 2131              	.LVL157:
 2132              	.L176:
1344:..//Source/stm/lib/STM32L1xx_HAL_Driver/Src/stm32l1xx_hal_rtc_ex.c **** 
 2133              		.loc 1 1344 0
 2134 004a FFF7FEFF 		bl	HAL_GetTick
 2135              	.LVL158:
 2136 004e 8046     		mov	r8, r0
 2137              	.LVL159:
 2138              	.L172:
1347:..//Source/stm/lib/STM32L1xx_HAL_Driver/Src/stm32l1xx_hal_rtc_ex.c ****     {
 2139              		.loc 1 1347 0
 2140 0050 2168     		ldr	r1, [r4]
 2141 0052 C968     		ldr	r1, [r1, #12]
 2142 0054 11F4803F 		tst	r1, #65536
 2143 0058 EAD0     		beq	.L171
1349:..//Source/stm/lib/STM32L1xx_HAL_Driver/Src/stm32l1xx_hal_rtc_ex.c ****       {
 2144              		.loc 1 1349 0
 2145 005a FFF7FEFF 		bl	HAL_GetTick
 2146              	.LVL160:
 2147 005e A0EB0800 		sub	r0, r0, r8
 2148 0062 B0F57A7F 		cmp	r0, #1000
 2149 0066 F3D9     		bls	.L172
1352:..//Source/stm/lib/STM32L1xx_HAL_Driver/Src/stm32l1xx_hal_rtc_ex.c **** 
 2150              		.loc 1 1352 0
 2151 0068 2368     		ldr	r3, [r4]
 2152 006a FF22     		movs	r2, #255
 2153 006c 5A62     		str	r2, [r3, #36]
1355:..//Source/stm/lib/STM32L1xx_HAL_Driver/Src/stm32l1xx_hal_rtc_ex.c **** 
 2154              		.loc 1 1355 0
 2155 006e 0320     		movs	r0, #3
 2156 0070 6077     		strb	r0, [r4, #29]
1358:..//Source/stm/lib/STM32L1xx_HAL_Driver/Src/stm32l1xx_hal_rtc_ex.c **** 
 2157              		.loc 1 1358 0
 2158 0072 0023     		movs	r3, #0
 2159 0074 2377     		strb	r3, [r4, #28]
ARM GAS  /tmp/ccTaTHmG.s 			page 64


1360:..//Source/stm/lib/STM32L1xx_HAL_Driver/Src/stm32l1xx_hal_rtc_ex.c ****       }
 2160              		.loc 1 1360 0
 2161 0076 BDE8F081 		pop	{r4, r5, r6, r7, r8, pc}
 2162              	.LVL161:
 2163              	.L174:
1334:..//Source/stm/lib/STM32L1xx_HAL_Driver/Src/stm32l1xx_hal_rtc_ex.c **** 
 2164              		.loc 1 1334 0
 2165 007a 0220     		movs	r0, #2
 2166              	.LVL162:
1378:..//Source/stm/lib/STM32L1xx_HAL_Driver/Src/stm32l1xx_hal_rtc_ex.c **** }
 2167              		.loc 1 1378 0
 2168 007c BDE8F081 		pop	{r4, r5, r6, r7, r8, pc}
 2169              		.cfi_endproc
 2170              	.LFE99:
 2172              		.section	.text.HAL_RTCEx_SetSynchroShift,"ax",%progbits
 2173              		.align	1
 2174              		.global	HAL_RTCEx_SetSynchroShift
 2175              		.syntax unified
 2176              		.thumb
 2177              		.thumb_func
 2178              		.fpu softvfp
 2180              	HAL_RTCEx_SetSynchroShift:
 2181              	.LFB100:
1379:..//Source/stm/lib/STM32L1xx_HAL_Driver/Src/stm32l1xx_hal_rtc_ex.c **** 
1380:..//Source/stm/lib/STM32L1xx_HAL_Driver/Src/stm32l1xx_hal_rtc_ex.c **** /**
1381:..//Source/stm/lib/STM32L1xx_HAL_Driver/Src/stm32l1xx_hal_rtc_ex.c ****   * @brief  Configure the Synchronization Shift Control Settings.
1382:..//Source/stm/lib/STM32L1xx_HAL_Driver/Src/stm32l1xx_hal_rtc_ex.c ****   * @note   When REFCKON is set, firmware must not write to Shift control register.
1383:..//Source/stm/lib/STM32L1xx_HAL_Driver/Src/stm32l1xx_hal_rtc_ex.c ****   * @param  hrtc RTC handle
1384:..//Source/stm/lib/STM32L1xx_HAL_Driver/Src/stm32l1xx_hal_rtc_ex.c ****   * @param  ShiftAdd1S Select to add or not 1 second to the time calendar.
1385:..//Source/stm/lib/STM32L1xx_HAL_Driver/Src/stm32l1xx_hal_rtc_ex.c ****   *          This parameter can be one of the following values :
1386:..//Source/stm/lib/STM32L1xx_HAL_Driver/Src/stm32l1xx_hal_rtc_ex.c ****   *             @arg RTC_SHIFTADD1S_SET: Add one second to the clock calendar.
1387:..//Source/stm/lib/STM32L1xx_HAL_Driver/Src/stm32l1xx_hal_rtc_ex.c ****   *             @arg RTC_SHIFTADD1S_RESET: No effect.
1388:..//Source/stm/lib/STM32L1xx_HAL_Driver/Src/stm32l1xx_hal_rtc_ex.c ****   * @param  ShiftSubFS Select the number of Second Fractions to substitute.
1389:..//Source/stm/lib/STM32L1xx_HAL_Driver/Src/stm32l1xx_hal_rtc_ex.c ****   *          This parameter can be one any value from 0 to 0x7FFF.
1390:..//Source/stm/lib/STM32L1xx_HAL_Driver/Src/stm32l1xx_hal_rtc_ex.c ****   * @retval HAL status
1391:..//Source/stm/lib/STM32L1xx_HAL_Driver/Src/stm32l1xx_hal_rtc_ex.c ****   */
1392:..//Source/stm/lib/STM32L1xx_HAL_Driver/Src/stm32l1xx_hal_rtc_ex.c **** HAL_StatusTypeDef HAL_RTCEx_SetSynchroShift(RTC_HandleTypeDef *hrtc, uint32_t ShiftAdd1S, uint32_t 
1393:..//Source/stm/lib/STM32L1xx_HAL_Driver/Src/stm32l1xx_hal_rtc_ex.c **** {
 2182              		.loc 1 1393 0
 2183              		.cfi_startproc
 2184              		@ args = 0, pretend = 0, frame = 0
 2185              		@ frame_needed = 0, uses_anonymous_args = 0
 2186              	.LVL163:
 2187 0000 F8B5     		push	{r3, r4, r5, r6, r7, lr}
 2188              	.LCFI28:
 2189              		.cfi_def_cfa_offset 24
 2190              		.cfi_offset 3, -24
 2191              		.cfi_offset 4, -20
 2192              		.cfi_offset 5, -16
 2193              		.cfi_offset 6, -12
 2194              		.cfi_offset 7, -8
 2195              		.cfi_offset 14, -4
1394:..//Source/stm/lib/STM32L1xx_HAL_Driver/Src/stm32l1xx_hal_rtc_ex.c ****   uint32_t tickstart;
1395:..//Source/stm/lib/STM32L1xx_HAL_Driver/Src/stm32l1xx_hal_rtc_ex.c **** 
1396:..//Source/stm/lib/STM32L1xx_HAL_Driver/Src/stm32l1xx_hal_rtc_ex.c ****   /* Check the parameters */
1397:..//Source/stm/lib/STM32L1xx_HAL_Driver/Src/stm32l1xx_hal_rtc_ex.c ****   assert_param(IS_RTC_SHIFT_ADD1S(ShiftAdd1S));
1398:..//Source/stm/lib/STM32L1xx_HAL_Driver/Src/stm32l1xx_hal_rtc_ex.c ****   assert_param(IS_RTC_SHIFT_SUBFS(ShiftSubFS));
ARM GAS  /tmp/ccTaTHmG.s 			page 65


1399:..//Source/stm/lib/STM32L1xx_HAL_Driver/Src/stm32l1xx_hal_rtc_ex.c **** 
1400:..//Source/stm/lib/STM32L1xx_HAL_Driver/Src/stm32l1xx_hal_rtc_ex.c ****   /* Process Locked */
1401:..//Source/stm/lib/STM32L1xx_HAL_Driver/Src/stm32l1xx_hal_rtc_ex.c ****   __HAL_LOCK(hrtc);
 2196              		.loc 1 1401 0
 2197 0002 037F     		ldrb	r3, [r0, #28]	@ zero_extendqisi2
 2198 0004 012B     		cmp	r3, #1
 2199 0006 02D1     		bne	.L185
 2200 0008 0223     		movs	r3, #2
 2201              	.LVL164:
 2202              	.L178:
1402:..//Source/stm/lib/STM32L1xx_HAL_Driver/Src/stm32l1xx_hal_rtc_ex.c **** 
1403:..//Source/stm/lib/STM32L1xx_HAL_Driver/Src/stm32l1xx_hal_rtc_ex.c ****   hrtc->State = HAL_RTC_STATE_BUSY;
1404:..//Source/stm/lib/STM32L1xx_HAL_Driver/Src/stm32l1xx_hal_rtc_ex.c **** 
1405:..//Source/stm/lib/STM32L1xx_HAL_Driver/Src/stm32l1xx_hal_rtc_ex.c ****   /* Disable the write protection for RTC registers */
1406:..//Source/stm/lib/STM32L1xx_HAL_Driver/Src/stm32l1xx_hal_rtc_ex.c ****   __HAL_RTC_WRITEPROTECTION_DISABLE(hrtc);
1407:..//Source/stm/lib/STM32L1xx_HAL_Driver/Src/stm32l1xx_hal_rtc_ex.c **** 
1408:..//Source/stm/lib/STM32L1xx_HAL_Driver/Src/stm32l1xx_hal_rtc_ex.c ****   tickstart = HAL_GetTick();
1409:..//Source/stm/lib/STM32L1xx_HAL_Driver/Src/stm32l1xx_hal_rtc_ex.c **** 
1410:..//Source/stm/lib/STM32L1xx_HAL_Driver/Src/stm32l1xx_hal_rtc_ex.c ****   /* Wait until the shift is completed*/
1411:..//Source/stm/lib/STM32L1xx_HAL_Driver/Src/stm32l1xx_hal_rtc_ex.c ****   while ((hrtc->Instance->ISR & RTC_ISR_SHPF) != 0U)
1412:..//Source/stm/lib/STM32L1xx_HAL_Driver/Src/stm32l1xx_hal_rtc_ex.c ****   {
1413:..//Source/stm/lib/STM32L1xx_HAL_Driver/Src/stm32l1xx_hal_rtc_ex.c ****     if ((HAL_GetTick() - tickstart) >  RTC_TIMEOUT_VALUE)
1414:..//Source/stm/lib/STM32L1xx_HAL_Driver/Src/stm32l1xx_hal_rtc_ex.c ****     {
1415:..//Source/stm/lib/STM32L1xx_HAL_Driver/Src/stm32l1xx_hal_rtc_ex.c ****       /* Enable the write protection for RTC registers */
1416:..//Source/stm/lib/STM32L1xx_HAL_Driver/Src/stm32l1xx_hal_rtc_ex.c ****       __HAL_RTC_WRITEPROTECTION_ENABLE(hrtc);
1417:..//Source/stm/lib/STM32L1xx_HAL_Driver/Src/stm32l1xx_hal_rtc_ex.c **** 
1418:..//Source/stm/lib/STM32L1xx_HAL_Driver/Src/stm32l1xx_hal_rtc_ex.c ****       hrtc->State = HAL_RTC_STATE_TIMEOUT;
1419:..//Source/stm/lib/STM32L1xx_HAL_Driver/Src/stm32l1xx_hal_rtc_ex.c **** 
1420:..//Source/stm/lib/STM32L1xx_HAL_Driver/Src/stm32l1xx_hal_rtc_ex.c ****       /* Process Unlocked */
1421:..//Source/stm/lib/STM32L1xx_HAL_Driver/Src/stm32l1xx_hal_rtc_ex.c ****       __HAL_UNLOCK(hrtc);
1422:..//Source/stm/lib/STM32L1xx_HAL_Driver/Src/stm32l1xx_hal_rtc_ex.c **** 
1423:..//Source/stm/lib/STM32L1xx_HAL_Driver/Src/stm32l1xx_hal_rtc_ex.c ****       return HAL_TIMEOUT;
1424:..//Source/stm/lib/STM32L1xx_HAL_Driver/Src/stm32l1xx_hal_rtc_ex.c ****     }
1425:..//Source/stm/lib/STM32L1xx_HAL_Driver/Src/stm32l1xx_hal_rtc_ex.c ****   }
1426:..//Source/stm/lib/STM32L1xx_HAL_Driver/Src/stm32l1xx_hal_rtc_ex.c **** 
1427:..//Source/stm/lib/STM32L1xx_HAL_Driver/Src/stm32l1xx_hal_rtc_ex.c ****   /* Check if the reference clock detection is disabled */
1428:..//Source/stm/lib/STM32L1xx_HAL_Driver/Src/stm32l1xx_hal_rtc_ex.c ****   if ((hrtc->Instance->CR & RTC_CR_REFCKON) == 0U)
1429:..//Source/stm/lib/STM32L1xx_HAL_Driver/Src/stm32l1xx_hal_rtc_ex.c ****   {
1430:..//Source/stm/lib/STM32L1xx_HAL_Driver/Src/stm32l1xx_hal_rtc_ex.c ****     /* Configure the Shift settings */
1431:..//Source/stm/lib/STM32L1xx_HAL_Driver/Src/stm32l1xx_hal_rtc_ex.c ****     hrtc->Instance->SHIFTR = (uint32_t)(uint32_t)(ShiftSubFS) | (uint32_t)(ShiftAdd1S);
1432:..//Source/stm/lib/STM32L1xx_HAL_Driver/Src/stm32l1xx_hal_rtc_ex.c **** 
1433:..//Source/stm/lib/STM32L1xx_HAL_Driver/Src/stm32l1xx_hal_rtc_ex.c ****     /* Wait for synchro */
1434:..//Source/stm/lib/STM32L1xx_HAL_Driver/Src/stm32l1xx_hal_rtc_ex.c ****     if (HAL_RTC_WaitForSynchro(hrtc) != HAL_OK)
1435:..//Source/stm/lib/STM32L1xx_HAL_Driver/Src/stm32l1xx_hal_rtc_ex.c ****     {
1436:..//Source/stm/lib/STM32L1xx_HAL_Driver/Src/stm32l1xx_hal_rtc_ex.c ****       /* Enable the write protection for RTC registers */
1437:..//Source/stm/lib/STM32L1xx_HAL_Driver/Src/stm32l1xx_hal_rtc_ex.c ****       __HAL_RTC_WRITEPROTECTION_ENABLE(hrtc);
1438:..//Source/stm/lib/STM32L1xx_HAL_Driver/Src/stm32l1xx_hal_rtc_ex.c **** 
1439:..//Source/stm/lib/STM32L1xx_HAL_Driver/Src/stm32l1xx_hal_rtc_ex.c ****       hrtc->State = HAL_RTC_STATE_ERROR;
1440:..//Source/stm/lib/STM32L1xx_HAL_Driver/Src/stm32l1xx_hal_rtc_ex.c **** 
1441:..//Source/stm/lib/STM32L1xx_HAL_Driver/Src/stm32l1xx_hal_rtc_ex.c ****       /* Process Unlocked */
1442:..//Source/stm/lib/STM32L1xx_HAL_Driver/Src/stm32l1xx_hal_rtc_ex.c ****       __HAL_UNLOCK(hrtc);
1443:..//Source/stm/lib/STM32L1xx_HAL_Driver/Src/stm32l1xx_hal_rtc_ex.c **** 
1444:..//Source/stm/lib/STM32L1xx_HAL_Driver/Src/stm32l1xx_hal_rtc_ex.c ****       return HAL_ERROR;
1445:..//Source/stm/lib/STM32L1xx_HAL_Driver/Src/stm32l1xx_hal_rtc_ex.c ****     }
1446:..//Source/stm/lib/STM32L1xx_HAL_Driver/Src/stm32l1xx_hal_rtc_ex.c ****   }
1447:..//Source/stm/lib/STM32L1xx_HAL_Driver/Src/stm32l1xx_hal_rtc_ex.c ****   else
1448:..//Source/stm/lib/STM32L1xx_HAL_Driver/Src/stm32l1xx_hal_rtc_ex.c ****   {
ARM GAS  /tmp/ccTaTHmG.s 			page 66


1449:..//Source/stm/lib/STM32L1xx_HAL_Driver/Src/stm32l1xx_hal_rtc_ex.c ****     /* Enable the write protection for RTC registers */
1450:..//Source/stm/lib/STM32L1xx_HAL_Driver/Src/stm32l1xx_hal_rtc_ex.c ****     __HAL_RTC_WRITEPROTECTION_ENABLE(hrtc);
1451:..//Source/stm/lib/STM32L1xx_HAL_Driver/Src/stm32l1xx_hal_rtc_ex.c **** 
1452:..//Source/stm/lib/STM32L1xx_HAL_Driver/Src/stm32l1xx_hal_rtc_ex.c ****     /* Change RTC state */
1453:..//Source/stm/lib/STM32L1xx_HAL_Driver/Src/stm32l1xx_hal_rtc_ex.c ****     hrtc->State = HAL_RTC_STATE_ERROR;
1454:..//Source/stm/lib/STM32L1xx_HAL_Driver/Src/stm32l1xx_hal_rtc_ex.c **** 
