ARM GAS  /tmp/ccwjpfsR.s 			page 1


   1              		.cpu cortex-m3
   2              		.eabi_attribute 20, 1
   3              		.eabi_attribute 21, 1
   4              		.eabi_attribute 23, 3
   5              		.eabi_attribute 24, 1
   6              		.eabi_attribute 25, 1
   7              		.eabi_attribute 26, 1
   8              		.eabi_attribute 30, 1
   9              		.eabi_attribute 34, 1
  10              		.eabi_attribute 18, 4
  11              		.file	"stm32l1xx_hal_tim_ex.c"
  12              		.text
  13              	.Ltext0:
  14              		.cfi_sections	.debug_frame
  15              		.section	.text.HAL_TIMEx_MasterConfigSynchronization,"ax",%progbits
  16              		.align	1
  17              		.global	HAL_TIMEx_MasterConfigSynchronization
  18              		.syntax unified
  19              		.thumb
  20              		.thumb_func
  21              		.fpu softvfp
  23              	HAL_TIMEx_MasterConfigSynchronization:
  24              	.LFB72:
  25              		.file 1 "..//Source/stm/lib/STM32L1xx_HAL_Driver/Src/stm32l1xx_hal_tim_ex.c"
   1:..//Source/stm/lib/STM32L1xx_HAL_Driver/Src/stm32l1xx_hal_tim_ex.c **** /**
   2:..//Source/stm/lib/STM32L1xx_HAL_Driver/Src/stm32l1xx_hal_tim_ex.c ****   ******************************************************************************
   3:..//Source/stm/lib/STM32L1xx_HAL_Driver/Src/stm32l1xx_hal_tim_ex.c ****   * @file    stm32l1xx_hal_tim_ex.c
   4:..//Source/stm/lib/STM32L1xx_HAL_Driver/Src/stm32l1xx_hal_tim_ex.c ****   * @author  MCD Application Team
   5:..//Source/stm/lib/STM32L1xx_HAL_Driver/Src/stm32l1xx_hal_tim_ex.c ****   * @brief   TIM HAL module driver.
   6:..//Source/stm/lib/STM32L1xx_HAL_Driver/Src/stm32l1xx_hal_tim_ex.c ****   *          This file provides firmware functions to manage the following
   7:..//Source/stm/lib/STM32L1xx_HAL_Driver/Src/stm32l1xx_hal_tim_ex.c ****   *          functionalities of the Timer Extended peripheral:
   8:..//Source/stm/lib/STM32L1xx_HAL_Driver/Src/stm32l1xx_hal_tim_ex.c ****   *           + Time Master and Slave synchronization configuration
   9:..//Source/stm/lib/STM32L1xx_HAL_Driver/Src/stm32l1xx_hal_tim_ex.c ****   *           + Time OCRef clear configuration
  10:..//Source/stm/lib/STM32L1xx_HAL_Driver/Src/stm32l1xx_hal_tim_ex.c ****   *           + Timer remapping capabilities configuration
  11:..//Source/stm/lib/STM32L1xx_HAL_Driver/Src/stm32l1xx_hal_tim_ex.c ****   @verbatim
  12:..//Source/stm/lib/STM32L1xx_HAL_Driver/Src/stm32l1xx_hal_tim_ex.c ****   ==============================================================================
  13:..//Source/stm/lib/STM32L1xx_HAL_Driver/Src/stm32l1xx_hal_tim_ex.c ****                       ##### TIMER Extended features #####
  14:..//Source/stm/lib/STM32L1xx_HAL_Driver/Src/stm32l1xx_hal_tim_ex.c ****   ==============================================================================
  15:..//Source/stm/lib/STM32L1xx_HAL_Driver/Src/stm32l1xx_hal_tim_ex.c ****   [..]
  16:..//Source/stm/lib/STM32L1xx_HAL_Driver/Src/stm32l1xx_hal_tim_ex.c ****     The Timer Extended features include:
  17:..//Source/stm/lib/STM32L1xx_HAL_Driver/Src/stm32l1xx_hal_tim_ex.c ****     (#) Synchronization circuit to control the timer with external signals and to
  18:..//Source/stm/lib/STM32L1xx_HAL_Driver/Src/stm32l1xx_hal_tim_ex.c ****         interconnect several timers together.
  19:..//Source/stm/lib/STM32L1xx_HAL_Driver/Src/stm32l1xx_hal_tim_ex.c **** 
  20:..//Source/stm/lib/STM32L1xx_HAL_Driver/Src/stm32l1xx_hal_tim_ex.c ****   @endverbatim
  21:..//Source/stm/lib/STM32L1xx_HAL_Driver/Src/stm32l1xx_hal_tim_ex.c ****   ******************************************************************************
  22:..//Source/stm/lib/STM32L1xx_HAL_Driver/Src/stm32l1xx_hal_tim_ex.c ****     * @attention
  23:..//Source/stm/lib/STM32L1xx_HAL_Driver/Src/stm32l1xx_hal_tim_ex.c ****   *
  24:..//Source/stm/lib/STM32L1xx_HAL_Driver/Src/stm32l1xx_hal_tim_ex.c ****   * <h2><center>&copy; Copyright (c) 2016 STMicroelectronics.
  25:..//Source/stm/lib/STM32L1xx_HAL_Driver/Src/stm32l1xx_hal_tim_ex.c ****   * All rights reserved.</center></h2>
  26:..//Source/stm/lib/STM32L1xx_HAL_Driver/Src/stm32l1xx_hal_tim_ex.c ****   *
  27:..//Source/stm/lib/STM32L1xx_HAL_Driver/Src/stm32l1xx_hal_tim_ex.c ****   * This software component is licensed by ST under BSD 3-Clause license,
  28:..//Source/stm/lib/STM32L1xx_HAL_Driver/Src/stm32l1xx_hal_tim_ex.c ****   * the "License"; You may not use this file except in compliance with the
  29:..//Source/stm/lib/STM32L1xx_HAL_Driver/Src/stm32l1xx_hal_tim_ex.c ****   * License. You may obtain a copy of the License at:
  30:..//Source/stm/lib/STM32L1xx_HAL_Driver/Src/stm32l1xx_hal_tim_ex.c ****   *                        opensource.org/licenses/BSD-3-Clause
  31:..//Source/stm/lib/STM32L1xx_HAL_Driver/Src/stm32l1xx_hal_tim_ex.c ****   *
  32:..//Source/stm/lib/STM32L1xx_HAL_Driver/Src/stm32l1xx_hal_tim_ex.c ****   ******************************************************************************
  33:..//Source/stm/lib/STM32L1xx_HAL_Driver/Src/stm32l1xx_hal_tim_ex.c **** */
ARM GAS  /tmp/ccwjpfsR.s 			page 2


  34:..//Source/stm/lib/STM32L1xx_HAL_Driver/Src/stm32l1xx_hal_tim_ex.c **** 
  35:..//Source/stm/lib/STM32L1xx_HAL_Driver/Src/stm32l1xx_hal_tim_ex.c **** /* Includes ------------------------------------------------------------------*/
  36:..//Source/stm/lib/STM32L1xx_HAL_Driver/Src/stm32l1xx_hal_tim_ex.c **** #include "stm32l1xx_hal.h"
  37:..//Source/stm/lib/STM32L1xx_HAL_Driver/Src/stm32l1xx_hal_tim_ex.c **** 
  38:..//Source/stm/lib/STM32L1xx_HAL_Driver/Src/stm32l1xx_hal_tim_ex.c **** /** @addtogroup STM32L1xx_HAL_Driver
  39:..//Source/stm/lib/STM32L1xx_HAL_Driver/Src/stm32l1xx_hal_tim_ex.c ****   * @{
  40:..//Source/stm/lib/STM32L1xx_HAL_Driver/Src/stm32l1xx_hal_tim_ex.c ****   */
  41:..//Source/stm/lib/STM32L1xx_HAL_Driver/Src/stm32l1xx_hal_tim_ex.c **** 
  42:..//Source/stm/lib/STM32L1xx_HAL_Driver/Src/stm32l1xx_hal_tim_ex.c **** /** @defgroup TIMEx TIMEx
  43:..//Source/stm/lib/STM32L1xx_HAL_Driver/Src/stm32l1xx_hal_tim_ex.c ****   * @brief TIM Extended HAL module driver
  44:..//Source/stm/lib/STM32L1xx_HAL_Driver/Src/stm32l1xx_hal_tim_ex.c ****   * @{
  45:..//Source/stm/lib/STM32L1xx_HAL_Driver/Src/stm32l1xx_hal_tim_ex.c ****   */
  46:..//Source/stm/lib/STM32L1xx_HAL_Driver/Src/stm32l1xx_hal_tim_ex.c **** 
  47:..//Source/stm/lib/STM32L1xx_HAL_Driver/Src/stm32l1xx_hal_tim_ex.c **** #ifdef HAL_TIM_MODULE_ENABLED
  48:..//Source/stm/lib/STM32L1xx_HAL_Driver/Src/stm32l1xx_hal_tim_ex.c **** 
  49:..//Source/stm/lib/STM32L1xx_HAL_Driver/Src/stm32l1xx_hal_tim_ex.c **** /* Private typedef -----------------------------------------------------------*/
  50:..//Source/stm/lib/STM32L1xx_HAL_Driver/Src/stm32l1xx_hal_tim_ex.c **** /* Private define ------------------------------------------------------------*/
  51:..//Source/stm/lib/STM32L1xx_HAL_Driver/Src/stm32l1xx_hal_tim_ex.c **** /* Private macro -------------------------------------------------------------*/
  52:..//Source/stm/lib/STM32L1xx_HAL_Driver/Src/stm32l1xx_hal_tim_ex.c **** /* Private variables ---------------------------------------------------------*/
  53:..//Source/stm/lib/STM32L1xx_HAL_Driver/Src/stm32l1xx_hal_tim_ex.c **** /* Private function prototypes -----------------------------------------------*/
  54:..//Source/stm/lib/STM32L1xx_HAL_Driver/Src/stm32l1xx_hal_tim_ex.c **** 
  55:..//Source/stm/lib/STM32L1xx_HAL_Driver/Src/stm32l1xx_hal_tim_ex.c **** /* Exported functions --------------------------------------------------------*/
  56:..//Source/stm/lib/STM32L1xx_HAL_Driver/Src/stm32l1xx_hal_tim_ex.c **** /** @defgroup TIMEx_Exported_Functions TIM Extended Exported Functions
  57:..//Source/stm/lib/STM32L1xx_HAL_Driver/Src/stm32l1xx_hal_tim_ex.c ****   * @{
  58:..//Source/stm/lib/STM32L1xx_HAL_Driver/Src/stm32l1xx_hal_tim_ex.c ****   */
  59:..//Source/stm/lib/STM32L1xx_HAL_Driver/Src/stm32l1xx_hal_tim_ex.c **** /** @defgroup TIMEx_Exported_Functions_Group5 Extended Peripheral Control functions
  60:..//Source/stm/lib/STM32L1xx_HAL_Driver/Src/stm32l1xx_hal_tim_ex.c ****   * @brief    Peripheral Control functions
  61:..//Source/stm/lib/STM32L1xx_HAL_Driver/Src/stm32l1xx_hal_tim_ex.c ****   *
  62:..//Source/stm/lib/STM32L1xx_HAL_Driver/Src/stm32l1xx_hal_tim_ex.c **** @verbatim
  63:..//Source/stm/lib/STM32L1xx_HAL_Driver/Src/stm32l1xx_hal_tim_ex.c ****   ==============================================================================
  64:..//Source/stm/lib/STM32L1xx_HAL_Driver/Src/stm32l1xx_hal_tim_ex.c ****                     ##### Peripheral Control functions #####
  65:..//Source/stm/lib/STM32L1xx_HAL_Driver/Src/stm32l1xx_hal_tim_ex.c ****   ==============================================================================
  66:..//Source/stm/lib/STM32L1xx_HAL_Driver/Src/stm32l1xx_hal_tim_ex.c ****   [..]
  67:..//Source/stm/lib/STM32L1xx_HAL_Driver/Src/stm32l1xx_hal_tim_ex.c ****     This section provides functions allowing to:
  68:..//Source/stm/lib/STM32L1xx_HAL_Driver/Src/stm32l1xx_hal_tim_ex.c ****       (+) Configure Master synchronization.
  69:..//Source/stm/lib/STM32L1xx_HAL_Driver/Src/stm32l1xx_hal_tim_ex.c ****       (+) Configure timer remapping capabilities.
  70:..//Source/stm/lib/STM32L1xx_HAL_Driver/Src/stm32l1xx_hal_tim_ex.c **** 
  71:..//Source/stm/lib/STM32L1xx_HAL_Driver/Src/stm32l1xx_hal_tim_ex.c **** @endverbatim
  72:..//Source/stm/lib/STM32L1xx_HAL_Driver/Src/stm32l1xx_hal_tim_ex.c ****   * @{
  73:..//Source/stm/lib/STM32L1xx_HAL_Driver/Src/stm32l1xx_hal_tim_ex.c ****   */
  74:..//Source/stm/lib/STM32L1xx_HAL_Driver/Src/stm32l1xx_hal_tim_ex.c **** 
  75:..//Source/stm/lib/STM32L1xx_HAL_Driver/Src/stm32l1xx_hal_tim_ex.c **** /**
  76:..//Source/stm/lib/STM32L1xx_HAL_Driver/Src/stm32l1xx_hal_tim_ex.c ****   * @brief  Configures the TIM in master mode.
  77:..//Source/stm/lib/STM32L1xx_HAL_Driver/Src/stm32l1xx_hal_tim_ex.c ****   * @param  htim TIM handle.
  78:..//Source/stm/lib/STM32L1xx_HAL_Driver/Src/stm32l1xx_hal_tim_ex.c ****   * @param  sMasterConfig pointer to a TIM_MasterConfigTypeDef structure that
  79:..//Source/stm/lib/STM32L1xx_HAL_Driver/Src/stm32l1xx_hal_tim_ex.c ****   *         contains the selected trigger output (TRGO) and the Master/Slave
  80:..//Source/stm/lib/STM32L1xx_HAL_Driver/Src/stm32l1xx_hal_tim_ex.c ****   *         mode.
  81:..//Source/stm/lib/STM32L1xx_HAL_Driver/Src/stm32l1xx_hal_tim_ex.c ****   * @retval HAL status
  82:..//Source/stm/lib/STM32L1xx_HAL_Driver/Src/stm32l1xx_hal_tim_ex.c ****   */
  83:..//Source/stm/lib/STM32L1xx_HAL_Driver/Src/stm32l1xx_hal_tim_ex.c **** HAL_StatusTypeDef HAL_TIMEx_MasterConfigSynchronization(TIM_HandleTypeDef *htim,
  84:..//Source/stm/lib/STM32L1xx_HAL_Driver/Src/stm32l1xx_hal_tim_ex.c ****                                                         TIM_MasterConfigTypeDef *sMasterConfig)
  85:..//Source/stm/lib/STM32L1xx_HAL_Driver/Src/stm32l1xx_hal_tim_ex.c **** {
  26              		.loc 1 85 0
  27              		.cfi_startproc
  28              		@ args = 0, pretend = 0, frame = 0
  29              		@ frame_needed = 0, uses_anonymous_args = 0
  30              		@ link register save eliminated.
ARM GAS  /tmp/ccwjpfsR.s 			page 3


  31              	.LVL0:
  86:..//Source/stm/lib/STM32L1xx_HAL_Driver/Src/stm32l1xx_hal_tim_ex.c ****   uint32_t tmpcr2;
  87:..//Source/stm/lib/STM32L1xx_HAL_Driver/Src/stm32l1xx_hal_tim_ex.c ****   uint32_t tmpsmcr;
  88:..//Source/stm/lib/STM32L1xx_HAL_Driver/Src/stm32l1xx_hal_tim_ex.c **** 
  89:..//Source/stm/lib/STM32L1xx_HAL_Driver/Src/stm32l1xx_hal_tim_ex.c ****   /* Check the parameters */
  90:..//Source/stm/lib/STM32L1xx_HAL_Driver/Src/stm32l1xx_hal_tim_ex.c ****   assert_param(IS_TIM_SYNCHRO_INSTANCE(htim->Instance));
  91:..//Source/stm/lib/STM32L1xx_HAL_Driver/Src/stm32l1xx_hal_tim_ex.c ****   assert_param(IS_TIM_TRGO_SOURCE(sMasterConfig->MasterOutputTrigger));
  92:..//Source/stm/lib/STM32L1xx_HAL_Driver/Src/stm32l1xx_hal_tim_ex.c ****   assert_param(IS_TIM_MSM_STATE(sMasterConfig->MasterSlaveMode));
  93:..//Source/stm/lib/STM32L1xx_HAL_Driver/Src/stm32l1xx_hal_tim_ex.c **** 
  94:..//Source/stm/lib/STM32L1xx_HAL_Driver/Src/stm32l1xx_hal_tim_ex.c ****   /* Check input state */
  95:..//Source/stm/lib/STM32L1xx_HAL_Driver/Src/stm32l1xx_hal_tim_ex.c ****   __HAL_LOCK(htim);
  32              		.loc 1 95 0
  33 0000 90F83830 		ldrb	r3, [r0, #56]	@ zero_extendqisi2
  34 0004 012B     		cmp	r3, #1
  35 0006 1CD0     		beq	.L3
  85:..//Source/stm/lib/STM32L1xx_HAL_Driver/Src/stm32l1xx_hal_tim_ex.c ****   uint32_t tmpcr2;
  36              		.loc 1 85 0 discriminator 2
  37 0008 70B4     		push	{r4, r5, r6}
  38              	.LCFI0:
  39              		.cfi_def_cfa_offset 12
  40              		.cfi_offset 4, -12
  41              		.cfi_offset 5, -8
  42              		.cfi_offset 6, -4
  43              		.loc 1 95 0 discriminator 2
  44 000a 0125     		movs	r5, #1
  45 000c 80F83850 		strb	r5, [r0, #56]
  96:..//Source/stm/lib/STM32L1xx_HAL_Driver/Src/stm32l1xx_hal_tim_ex.c **** 
  97:..//Source/stm/lib/STM32L1xx_HAL_Driver/Src/stm32l1xx_hal_tim_ex.c ****   /* Change the handler state */
  98:..//Source/stm/lib/STM32L1xx_HAL_Driver/Src/stm32l1xx_hal_tim_ex.c ****   htim->State = HAL_TIM_STATE_BUSY;
  46              		.loc 1 98 0 discriminator 2
  47 0010 0223     		movs	r3, #2
  48 0012 80F83930 		strb	r3, [r0, #57]
  99:..//Source/stm/lib/STM32L1xx_HAL_Driver/Src/stm32l1xx_hal_tim_ex.c **** 
 100:..//Source/stm/lib/STM32L1xx_HAL_Driver/Src/stm32l1xx_hal_tim_ex.c ****   /* Get the TIMx CR2 register value */
 101:..//Source/stm/lib/STM32L1xx_HAL_Driver/Src/stm32l1xx_hal_tim_ex.c ****   tmpcr2 = htim->Instance->CR2;
  49              		.loc 1 101 0 discriminator 2
  50 0016 0468     		ldr	r4, [r0]
  51 0018 6268     		ldr	r2, [r4, #4]
  52              	.LVL1:
 102:..//Source/stm/lib/STM32L1xx_HAL_Driver/Src/stm32l1xx_hal_tim_ex.c **** 
 103:..//Source/stm/lib/STM32L1xx_HAL_Driver/Src/stm32l1xx_hal_tim_ex.c ****   /* Get the TIMx SMCR register value */
 104:..//Source/stm/lib/STM32L1xx_HAL_Driver/Src/stm32l1xx_hal_tim_ex.c ****   tmpsmcr = htim->Instance->SMCR;
  53              		.loc 1 104 0 discriminator 2
  54 001a A368     		ldr	r3, [r4, #8]
  55              	.LVL2:
 105:..//Source/stm/lib/STM32L1xx_HAL_Driver/Src/stm32l1xx_hal_tim_ex.c **** 
 106:..//Source/stm/lib/STM32L1xx_HAL_Driver/Src/stm32l1xx_hal_tim_ex.c ****   /* Reset the MMS Bits */
 107:..//Source/stm/lib/STM32L1xx_HAL_Driver/Src/stm32l1xx_hal_tim_ex.c ****   tmpcr2 &= ~TIM_CR2_MMS;
  56              		.loc 1 107 0 discriminator 2
  57 001c 22F07002 		bic	r2, r2, #112
  58              	.LVL3:
 108:..//Source/stm/lib/STM32L1xx_HAL_Driver/Src/stm32l1xx_hal_tim_ex.c ****   /* Select the TRGO source */
 109:..//Source/stm/lib/STM32L1xx_HAL_Driver/Src/stm32l1xx_hal_tim_ex.c ****   tmpcr2 |=  sMasterConfig->MasterOutputTrigger;
  59              		.loc 1 109 0 discriminator 2
  60 0020 0E68     		ldr	r6, [r1]
  61 0022 3243     		orrs	r2, r2, r6
  62              	.LVL4:
ARM GAS  /tmp/ccwjpfsR.s 			page 4


 110:..//Source/stm/lib/STM32L1xx_HAL_Driver/Src/stm32l1xx_hal_tim_ex.c **** 
 111:..//Source/stm/lib/STM32L1xx_HAL_Driver/Src/stm32l1xx_hal_tim_ex.c ****   /* Reset the MSM Bit */
 112:..//Source/stm/lib/STM32L1xx_HAL_Driver/Src/stm32l1xx_hal_tim_ex.c ****   tmpsmcr &= ~TIM_SMCR_MSM;
  63              		.loc 1 112 0 discriminator 2
  64 0024 23F08003 		bic	r3, r3, #128
  65              	.LVL5:
 113:..//Source/stm/lib/STM32L1xx_HAL_Driver/Src/stm32l1xx_hal_tim_ex.c ****   /* Set master mode */
 114:..//Source/stm/lib/STM32L1xx_HAL_Driver/Src/stm32l1xx_hal_tim_ex.c ****   tmpsmcr |= sMasterConfig->MasterSlaveMode;
  66              		.loc 1 114 0 discriminator 2
  67 0028 4968     		ldr	r1, [r1, #4]
  68              	.LVL6:
  69 002a 0B43     		orrs	r3, r3, r1
  70              	.LVL7:
 115:..//Source/stm/lib/STM32L1xx_HAL_Driver/Src/stm32l1xx_hal_tim_ex.c **** 
 116:..//Source/stm/lib/STM32L1xx_HAL_Driver/Src/stm32l1xx_hal_tim_ex.c ****   /* Update TIMx CR2 */
 117:..//Source/stm/lib/STM32L1xx_HAL_Driver/Src/stm32l1xx_hal_tim_ex.c ****   htim->Instance->CR2 = tmpcr2;
  71              		.loc 1 117 0 discriminator 2
  72 002c 6260     		str	r2, [r4, #4]
 118:..//Source/stm/lib/STM32L1xx_HAL_Driver/Src/stm32l1xx_hal_tim_ex.c **** 
 119:..//Source/stm/lib/STM32L1xx_HAL_Driver/Src/stm32l1xx_hal_tim_ex.c ****   /* Update TIMx SMCR */
 120:..//Source/stm/lib/STM32L1xx_HAL_Driver/Src/stm32l1xx_hal_tim_ex.c ****   htim->Instance->SMCR = tmpsmcr;
  73              		.loc 1 120 0 discriminator 2
  74 002e 0268     		ldr	r2, [r0]
  75              	.LVL8:
  76 0030 9360     		str	r3, [r2, #8]
  77              	.LVL9:
 121:..//Source/stm/lib/STM32L1xx_HAL_Driver/Src/stm32l1xx_hal_tim_ex.c **** 
 122:..//Source/stm/lib/STM32L1xx_HAL_Driver/Src/stm32l1xx_hal_tim_ex.c ****   /* Change the htim state */
 123:..//Source/stm/lib/STM32L1xx_HAL_Driver/Src/stm32l1xx_hal_tim_ex.c ****   htim->State = HAL_TIM_STATE_READY;
  78              		.loc 1 123 0 discriminator 2
  79 0032 80F83950 		strb	r5, [r0, #57]
 124:..//Source/stm/lib/STM32L1xx_HAL_Driver/Src/stm32l1xx_hal_tim_ex.c **** 
 125:..//Source/stm/lib/STM32L1xx_HAL_Driver/Src/stm32l1xx_hal_tim_ex.c ****   __HAL_UNLOCK(htim);
  80              		.loc 1 125 0 discriminator 2
  81 0036 0023     		movs	r3, #0
  82              	.LVL10:
  83 0038 80F83830 		strb	r3, [r0, #56]
 126:..//Source/stm/lib/STM32L1xx_HAL_Driver/Src/stm32l1xx_hal_tim_ex.c **** 
 127:..//Source/stm/lib/STM32L1xx_HAL_Driver/Src/stm32l1xx_hal_tim_ex.c ****   return HAL_OK;
  84              		.loc 1 127 0 discriminator 2
  85 003c 1846     		mov	r0, r3
  86              	.LVL11:
 128:..//Source/stm/lib/STM32L1xx_HAL_Driver/Src/stm32l1xx_hal_tim_ex.c **** }
  87              		.loc 1 128 0 discriminator 2
  88 003e 70BC     		pop	{r4, r5, r6}
  89              	.LCFI1:
  90              		.cfi_restore 6
  91              		.cfi_restore 5
  92              		.cfi_restore 4
  93              		.cfi_def_cfa_offset 0
  94 0040 7047     		bx	lr
  95              	.LVL12:
  96              	.L3:
  95:..//Source/stm/lib/STM32L1xx_HAL_Driver/Src/stm32l1xx_hal_tim_ex.c **** 
  97              		.loc 1 95 0
  98 0042 0220     		movs	r0, #2
  99              	.LVL13:
ARM GAS  /tmp/ccwjpfsR.s 			page 5


 100 0044 7047     		bx	lr
 101              		.cfi_endproc
 102              	.LFE72:
 104              		.section	.text.HAL_TIMEx_RemapConfig,"ax",%progbits
 105              		.align	1
 106              		.global	HAL_TIMEx_RemapConfig
 107              		.syntax unified
 108              		.thumb
 109              		.thumb_func
 110              		.fpu softvfp
 112              	HAL_TIMEx_RemapConfig:
 113              	.LFB73:
 129:..//Source/stm/lib/STM32L1xx_HAL_Driver/Src/stm32l1xx_hal_tim_ex.c **** 
 130:..//Source/stm/lib/STM32L1xx_HAL_Driver/Src/stm32l1xx_hal_tim_ex.c **** /**
 131:..//Source/stm/lib/STM32L1xx_HAL_Driver/Src/stm32l1xx_hal_tim_ex.c ****   * @brief  Configures the TIMx Remapping input capabilities.
 132:..//Source/stm/lib/STM32L1xx_HAL_Driver/Src/stm32l1xx_hal_tim_ex.c ****   * @param  htim TIM handle.
 133:..//Source/stm/lib/STM32L1xx_HAL_Driver/Src/stm32l1xx_hal_tim_ex.c ****   * @param  Remap specifies the TIM remapping source.
 134:..//Source/stm/lib/STM32L1xx_HAL_Driver/Src/stm32l1xx_hal_tim_ex.c ****   *
 135:..//Source/stm/lib/STM32L1xx_HAL_Driver/Src/stm32l1xx_hal_tim_ex.c ****   *         For TIM2, the parameter can have the following values:(see note)
 136:..//Source/stm/lib/STM32L1xx_HAL_Driver/Src/stm32l1xx_hal_tim_ex.c ****   *            @arg TIM_TIM2_ITR1_TIM10_OC:      TIM2 ITR1 input is connected to TIM10 OC
 137:..//Source/stm/lib/STM32L1xx_HAL_Driver/Src/stm32l1xx_hal_tim_ex.c ****   *            @arg TIM_TIM2_ITR1_TIM5_TGO:      TIM2 ITR1 input is connected to TIM5 TGO
 138:..//Source/stm/lib/STM32L1xx_HAL_Driver/Src/stm32l1xx_hal_tim_ex.c ****   *
 139:..//Source/stm/lib/STM32L1xx_HAL_Driver/Src/stm32l1xx_hal_tim_ex.c ****   *         For TIM3, the parameter can have the following values:(see note)
 140:..//Source/stm/lib/STM32L1xx_HAL_Driver/Src/stm32l1xx_hal_tim_ex.c ****   *            @arg TIM_TIM3_ITR2_TIM11_OC:      TIM3 ITR2 input is connected to TIM11 OC
 141:..//Source/stm/lib/STM32L1xx_HAL_Driver/Src/stm32l1xx_hal_tim_ex.c ****   *            @arg TIM_TIM3_ITR2_TIM5_TGO:      TIM3 ITR2 input is connected to TIM5 TGO
 142:..//Source/stm/lib/STM32L1xx_HAL_Driver/Src/stm32l1xx_hal_tim_ex.c ****   *
 143:..//Source/stm/lib/STM32L1xx_HAL_Driver/Src/stm32l1xx_hal_tim_ex.c ****   *         For TIM9, the parameter is a combination of 2 fields (field1 | field2):
 144:..//Source/stm/lib/STM32L1xx_HAL_Driver/Src/stm32l1xx_hal_tim_ex.c ****   *
 145:..//Source/stm/lib/STM32L1xx_HAL_Driver/Src/stm32l1xx_hal_tim_ex.c ****   *                   field1 can have the following values:(see note)
 146:..//Source/stm/lib/STM32L1xx_HAL_Driver/Src/stm32l1xx_hal_tim_ex.c ****   *            @arg TIM_TIM9_ITR1_TIM3_TGO:      TIM9 ITR1 input is connected to TIM3 TGO
 147:..//Source/stm/lib/STM32L1xx_HAL_Driver/Src/stm32l1xx_hal_tim_ex.c ****   *            @arg TIM_TIM9_ITR1_TS:            TIM9 ITR1 input is connected to touch sensing I/O
 148:..//Source/stm/lib/STM32L1xx_HAL_Driver/Src/stm32l1xx_hal_tim_ex.c ****   *
 149:..//Source/stm/lib/STM32L1xx_HAL_Driver/Src/stm32l1xx_hal_tim_ex.c ****   *                   field2 can have the following values:
 150:..//Source/stm/lib/STM32L1xx_HAL_Driver/Src/stm32l1xx_hal_tim_ex.c ****   *            @arg TIM_TIM9_GPIO:               TIM9 Channel1 is connected to GPIO
 151:..//Source/stm/lib/STM32L1xx_HAL_Driver/Src/stm32l1xx_hal_tim_ex.c ****   *            @arg TIM_TIM9_LSE:                TIM9 Channel1 is connected to LSE internal clock
 152:..//Source/stm/lib/STM32L1xx_HAL_Driver/Src/stm32l1xx_hal_tim_ex.c ****   *            @arg TIM_TIM9_GPIO1:              TIM9 Channel1 is connected to GPIO
 153:..//Source/stm/lib/STM32L1xx_HAL_Driver/Src/stm32l1xx_hal_tim_ex.c ****   *            @arg TIM_TIM9_GPIO2:              TIM9 Channel1 is connected to GPIO
 154:..//Source/stm/lib/STM32L1xx_HAL_Driver/Src/stm32l1xx_hal_tim_ex.c ****   *
 155:..//Source/stm/lib/STM32L1xx_HAL_Driver/Src/stm32l1xx_hal_tim_ex.c ****   *         For TIM10, the parameter is a combination of 3 fields (field1 | field2 | field3):
 156:..//Source/stm/lib/STM32L1xx_HAL_Driver/Src/stm32l1xx_hal_tim_ex.c ****   *
 157:..//Source/stm/lib/STM32L1xx_HAL_Driver/Src/stm32l1xx_hal_tim_ex.c ****   *                   field1 can have the following values:(see note)
 158:..//Source/stm/lib/STM32L1xx_HAL_Driver/Src/stm32l1xx_hal_tim_ex.c ****   *            @arg TIM_TIM10_TI1RMP:            TIM10 Channel 1 depends on TI1_RMP
 159:..//Source/stm/lib/STM32L1xx_HAL_Driver/Src/stm32l1xx_hal_tim_ex.c ****   *            @arg TIM_TIM10_RI:                TIM10 Channel 1 is connected to RI
 160:..//Source/stm/lib/STM32L1xx_HAL_Driver/Src/stm32l1xx_hal_tim_ex.c ****   *
 161:..//Source/stm/lib/STM32L1xx_HAL_Driver/Src/stm32l1xx_hal_tim_ex.c ****   *                   field2 can have the following values:(see note)
 162:..//Source/stm/lib/STM32L1xx_HAL_Driver/Src/stm32l1xx_hal_tim_ex.c ****   *            @arg TIM_TIM10_ETR_LSE:           TIM10 ETR input is connected to LSE clock
 163:..//Source/stm/lib/STM32L1xx_HAL_Driver/Src/stm32l1xx_hal_tim_ex.c ****   *            @arg TIM_TIM10_ETR_TIM9_TGO:      TIM10 ETR input is connected to TIM9 TGO
 164:..//Source/stm/lib/STM32L1xx_HAL_Driver/Src/stm32l1xx_hal_tim_ex.c ****   *
 165:..//Source/stm/lib/STM32L1xx_HAL_Driver/Src/stm32l1xx_hal_tim_ex.c ****   *                   field3 can have the following values:
 166:..//Source/stm/lib/STM32L1xx_HAL_Driver/Src/stm32l1xx_hal_tim_ex.c ****   *            @arg TIM_TIM10_GPIO:              TIM10 Channel1 is connected to GPIO
 167:..//Source/stm/lib/STM32L1xx_HAL_Driver/Src/stm32l1xx_hal_tim_ex.c ****   *            @arg TIM_TIM10_LSI:               TIM10 Channel1 is connected to LSI internal clock
 168:..//Source/stm/lib/STM32L1xx_HAL_Driver/Src/stm32l1xx_hal_tim_ex.c ****   *            @arg TIM_TIM10_LSE:               TIM10 Channel1 is connected to LSE internal clock
 169:..//Source/stm/lib/STM32L1xx_HAL_Driver/Src/stm32l1xx_hal_tim_ex.c ****   *            @arg TIM_TIM10_RTC:               TIM10 Channel1 is connected to RTC wakeup interrup
 170:..//Source/stm/lib/STM32L1xx_HAL_Driver/Src/stm32l1xx_hal_tim_ex.c ****   *
 171:..//Source/stm/lib/STM32L1xx_HAL_Driver/Src/stm32l1xx_hal_tim_ex.c ****   *         For TIM11, the parameter is a combination of 3 fields (field1 | field2 | field3):
 172:..//Source/stm/lib/STM32L1xx_HAL_Driver/Src/stm32l1xx_hal_tim_ex.c ****   *
 173:..//Source/stm/lib/STM32L1xx_HAL_Driver/Src/stm32l1xx_hal_tim_ex.c ****   *                   field1 can have the following values:(see note)
ARM GAS  /tmp/ccwjpfsR.s 			page 6


 174:..//Source/stm/lib/STM32L1xx_HAL_Driver/Src/stm32l1xx_hal_tim_ex.c ****   *            @arg TIM_TIM11_TI1RMP:            TIM11 Channel 1 depends on TI1_RMP
 175:..//Source/stm/lib/STM32L1xx_HAL_Driver/Src/stm32l1xx_hal_tim_ex.c ****   *            @arg TIM_TIM11_RI:                TIM11 Channel 1 is connected to RI
 176:..//Source/stm/lib/STM32L1xx_HAL_Driver/Src/stm32l1xx_hal_tim_ex.c ****   *
 177:..//Source/stm/lib/STM32L1xx_HAL_Driver/Src/stm32l1xx_hal_tim_ex.c ****   *                   field2 can have the following values:(see note)
 178:..//Source/stm/lib/STM32L1xx_HAL_Driver/Src/stm32l1xx_hal_tim_ex.c ****   *            @arg TIM_TIM11_ETR_LSE:           TIM11 ETR input is connected to LSE clock
 179:..//Source/stm/lib/STM32L1xx_HAL_Driver/Src/stm32l1xx_hal_tim_ex.c ****   *            @arg TIM_TIM11_ETR_TIM9_TGO:      TIM11 ETR input is connected to TIM9 TGO
 180:..//Source/stm/lib/STM32L1xx_HAL_Driver/Src/stm32l1xx_hal_tim_ex.c ****   *
 181:..//Source/stm/lib/STM32L1xx_HAL_Driver/Src/stm32l1xx_hal_tim_ex.c ****   *                   field3 can have the following values:
 182:..//Source/stm/lib/STM32L1xx_HAL_Driver/Src/stm32l1xx_hal_tim_ex.c ****   *            @arg TIM_TIM11_GPIO:     TIM11 Channel1 is connected to GPIO
 183:..//Source/stm/lib/STM32L1xx_HAL_Driver/Src/stm32l1xx_hal_tim_ex.c ****   *            @arg TIM_TIM11_MSI:      TIM11 Channel1 is connected to MSI internal clock
 184:..//Source/stm/lib/STM32L1xx_HAL_Driver/Src/stm32l1xx_hal_tim_ex.c ****   *            @arg TIM_TIM11_HSE_RTC:  TIM11 Channel1 is connected to HSE_RTC clock
 185:..//Source/stm/lib/STM32L1xx_HAL_Driver/Src/stm32l1xx_hal_tim_ex.c ****   *            @arg TIM_TIM11_GPIO1:    TIM11 Channel1 is connected to GPIO
 186:..//Source/stm/lib/STM32L1xx_HAL_Driver/Src/stm32l1xx_hal_tim_ex.c ****   *
 187:..//Source/stm/lib/STM32L1xx_HAL_Driver/Src/stm32l1xx_hal_tim_ex.c ****   * @note   Available only in Cat.3, Cat.4,Cat.5 and Cat.6 devices.
 188:..//Source/stm/lib/STM32L1xx_HAL_Driver/Src/stm32l1xx_hal_tim_ex.c ****   *
 189:..//Source/stm/lib/STM32L1xx_HAL_Driver/Src/stm32l1xx_hal_tim_ex.c ****   * @retval HAL status
 190:..//Source/stm/lib/STM32L1xx_HAL_Driver/Src/stm32l1xx_hal_tim_ex.c ****   */
 191:..//Source/stm/lib/STM32L1xx_HAL_Driver/Src/stm32l1xx_hal_tim_ex.c **** HAL_StatusTypeDef HAL_TIMEx_RemapConfig(TIM_HandleTypeDef *htim, uint32_t Remap)
 192:..//Source/stm/lib/STM32L1xx_HAL_Driver/Src/stm32l1xx_hal_tim_ex.c **** {
 114              		.loc 1 192 0
 115              		.cfi_startproc
 116              		@ args = 0, pretend = 0, frame = 0
 117              		@ frame_needed = 0, uses_anonymous_args = 0
 118              		@ link register save eliminated.
 119              	.LVL14:
 193:..//Source/stm/lib/STM32L1xx_HAL_Driver/Src/stm32l1xx_hal_tim_ex.c ****   __HAL_LOCK(htim);
 120              		.loc 1 193 0
 121 0000 90F83830 		ldrb	r3, [r0, #56]	@ zero_extendqisi2
 122 0004 012B     		cmp	r3, #1
 123 0006 06D0     		beq	.L10
 194:..//Source/stm/lib/STM32L1xx_HAL_Driver/Src/stm32l1xx_hal_tim_ex.c **** 
 195:..//Source/stm/lib/STM32L1xx_HAL_Driver/Src/stm32l1xx_hal_tim_ex.c ****   /* Check parameters */
 196:..//Source/stm/lib/STM32L1xx_HAL_Driver/Src/stm32l1xx_hal_tim_ex.c ****   assert_param(IS_TIM_REMAP(htim->Instance, Remap));
 197:..//Source/stm/lib/STM32L1xx_HAL_Driver/Src/stm32l1xx_hal_tim_ex.c **** 
 198:..//Source/stm/lib/STM32L1xx_HAL_Driver/Src/stm32l1xx_hal_tim_ex.c ****   /* Set the Timer remapping configuration */
 199:..//Source/stm/lib/STM32L1xx_HAL_Driver/Src/stm32l1xx_hal_tim_ex.c ****   WRITE_REG(htim->Instance->OR, Remap);
 124              		.loc 1 199 0 discriminator 2
 125 0008 0368     		ldr	r3, [r0]
 126 000a 1965     		str	r1, [r3, #80]
 200:..//Source/stm/lib/STM32L1xx_HAL_Driver/Src/stm32l1xx_hal_tim_ex.c **** 
 201:..//Source/stm/lib/STM32L1xx_HAL_Driver/Src/stm32l1xx_hal_tim_ex.c ****   __HAL_UNLOCK(htim);
 127              		.loc 1 201 0 discriminator 2
 128 000c 0023     		movs	r3, #0
 129 000e 80F83830 		strb	r3, [r0, #56]
 202:..//Source/stm/lib/STM32L1xx_HAL_Driver/Src/stm32l1xx_hal_tim_ex.c **** 
 203:..//Source/stm/lib/STM32L1xx_HAL_Driver/Src/stm32l1xx_hal_tim_ex.c ****   return HAL_OK;
 130              		.loc 1 203 0 discriminator 2
 131 0012 1846     		mov	r0, r3
 132              	.LVL15:
 133 0014 7047     		bx	lr
 134              	.LVL16:
 135              	.L10:
 193:..//Source/stm/lib/STM32L1xx_HAL_Driver/Src/stm32l1xx_hal_tim_ex.c **** 
 136              		.loc 1 193 0
 137 0016 0220     		movs	r0, #2
 138              	.LVL17:
 204:..//Source/stm/lib/STM32L1xx_HAL_Driver/Src/stm32l1xx_hal_tim_ex.c **** }
ARM GAS  /tmp/ccwjpfsR.s 			page 7


 139              		.loc 1 204 0
 140 0018 7047     		bx	lr
 141              		.cfi_endproc
 142              	.LFE73:
 144              		.text
 145              	.Letext0:
 146              		.file 2 "/usr/include/newlib/machine/_default_types.h"
 147              		.file 3 "/usr/include/newlib/sys/_stdint.h"
 148              		.file 4 "..//Source/stm/lib/CMSIS/Include/core_cm3.h"
 149              		.file 5 "..//Source/stm/lib/CMSIS/Device/ST/STM32L1xx/Include/system_stm32l1xx.h"
 150              		.file 6 "..//Source/stm/lib/CMSIS/Device/ST/STM32L1xx/Include/stm32l151xba.h"
 151              		.file 7 "..//Source/stm/lib/STM32L1xx_HAL_Driver/Inc/stm32l1xx_hal_def.h"
 152              		.file 8 "..//Source/stm/lib/STM32L1xx_HAL_Driver/Inc/stm32l1xx_hal_dma.h"
 153              		.file 9 "..//Source/stm/lib/STM32L1xx_HAL_Driver/Inc/stm32l1xx_hal_tim.h"
 154              		.file 10 "..//Source/stm/lib/STM32L1xx_HAL_Driver/Inc/stm32l1xx_hal.h"
ARM GAS  /tmp/ccwjpfsR.s 			page 8

