ARM GAS  /tmp/ccUlkaTj.s 			page 1


   1              		.cpu cortex-m3
   2              		.eabi_attribute 20, 1
   3              		.eabi_attribute 21, 1
   4              		.eabi_attribute 23, 3
   5              		.eabi_attribute 24, 1
   6              		.eabi_attribute 25, 1
   7              		.eabi_attribute 26, 1
   8              		.eabi_attribute 30, 1
   9              		.eabi_attribute 34, 1
  10              		.eabi_attribute 18, 4
  11              		.file	"stm32l1xx_hal_flash.c"
  12              		.text
  13              	.Ltext0:
  14              		.cfi_sections	.debug_frame
  15              		.section	.text.FLASH_SetErrorCode,"ax",%progbits
  16              		.align	1
  17              		.syntax unified
  18              		.thumb
  19              		.thumb_func
  20              		.fpu softvfp
  22              	FLASH_SetErrorCode:
  23              	.LFB84:
  24              		.file 1 "..//Source/stm/lib/STM32L1xx_HAL_Driver/Src/stm32l1xx_hal_flash.c"
   1:..//Source/stm/lib/STM32L1xx_HAL_Driver/Src/stm32l1xx_hal_flash.c **** /**
   2:..//Source/stm/lib/STM32L1xx_HAL_Driver/Src/stm32l1xx_hal_flash.c ****   ******************************************************************************
   3:..//Source/stm/lib/STM32L1xx_HAL_Driver/Src/stm32l1xx_hal_flash.c ****   * @file    stm32l1xx_hal_flash.c
   4:..//Source/stm/lib/STM32L1xx_HAL_Driver/Src/stm32l1xx_hal_flash.c ****   * @author  MCD Application Team
   5:..//Source/stm/lib/STM32L1xx_HAL_Driver/Src/stm32l1xx_hal_flash.c ****   * @brief   FLASH HAL module driver.
   6:..//Source/stm/lib/STM32L1xx_HAL_Driver/Src/stm32l1xx_hal_flash.c ****   *          This file provides firmware functions to manage the following 
   7:..//Source/stm/lib/STM32L1xx_HAL_Driver/Src/stm32l1xx_hal_flash.c ****   *          functionalities of the internal FLASH memory:
   8:..//Source/stm/lib/STM32L1xx_HAL_Driver/Src/stm32l1xx_hal_flash.c ****   *           + Program operations functions
   9:..//Source/stm/lib/STM32L1xx_HAL_Driver/Src/stm32l1xx_hal_flash.c ****   *           + Memory Control functions 
  10:..//Source/stm/lib/STM32L1xx_HAL_Driver/Src/stm32l1xx_hal_flash.c ****   *           + Peripheral State functions
  11:..//Source/stm/lib/STM32L1xx_HAL_Driver/Src/stm32l1xx_hal_flash.c ****   *         
  12:..//Source/stm/lib/STM32L1xx_HAL_Driver/Src/stm32l1xx_hal_flash.c ****   @verbatim
  13:..//Source/stm/lib/STM32L1xx_HAL_Driver/Src/stm32l1xx_hal_flash.c ****   ==============================================================================
  14:..//Source/stm/lib/STM32L1xx_HAL_Driver/Src/stm32l1xx_hal_flash.c ****                         ##### FLASH peripheral features #####
  15:..//Source/stm/lib/STM32L1xx_HAL_Driver/Src/stm32l1xx_hal_flash.c ****   ==============================================================================
  16:..//Source/stm/lib/STM32L1xx_HAL_Driver/Src/stm32l1xx_hal_flash.c ****   [..] The Flash memory interface manages CPU AHB I-Code and D-Code accesses 
  17:..//Source/stm/lib/STM32L1xx_HAL_Driver/Src/stm32l1xx_hal_flash.c ****        to the Flash memory. It implements the erase and program Flash memory operations 
  18:..//Source/stm/lib/STM32L1xx_HAL_Driver/Src/stm32l1xx_hal_flash.c ****        and the read and write protection mechanisms.
  19:..//Source/stm/lib/STM32L1xx_HAL_Driver/Src/stm32l1xx_hal_flash.c **** 
  20:..//Source/stm/lib/STM32L1xx_HAL_Driver/Src/stm32l1xx_hal_flash.c ****   [..] The Flash memory interface accelerates code execution with a system of instruction
  21:..//Source/stm/lib/STM32L1xx_HAL_Driver/Src/stm32l1xx_hal_flash.c ****       prefetch. 
  22:..//Source/stm/lib/STM32L1xx_HAL_Driver/Src/stm32l1xx_hal_flash.c **** 
  23:..//Source/stm/lib/STM32L1xx_HAL_Driver/Src/stm32l1xx_hal_flash.c ****   [..] The FLASH main features are:
  24:..//Source/stm/lib/STM32L1xx_HAL_Driver/Src/stm32l1xx_hal_flash.c ****       (+) Flash memory read operations
  25:..//Source/stm/lib/STM32L1xx_HAL_Driver/Src/stm32l1xx_hal_flash.c ****       (+) Flash memory program/erase operations
  26:..//Source/stm/lib/STM32L1xx_HAL_Driver/Src/stm32l1xx_hal_flash.c ****       (+) Read / write protections
  27:..//Source/stm/lib/STM32L1xx_HAL_Driver/Src/stm32l1xx_hal_flash.c ****       (+) Prefetch on I-Code
  28:..//Source/stm/lib/STM32L1xx_HAL_Driver/Src/stm32l1xx_hal_flash.c ****       (+) Option Bytes programming
  29:..//Source/stm/lib/STM32L1xx_HAL_Driver/Src/stm32l1xx_hal_flash.c **** 
  30:..//Source/stm/lib/STM32L1xx_HAL_Driver/Src/stm32l1xx_hal_flash.c **** 
  31:..//Source/stm/lib/STM32L1xx_HAL_Driver/Src/stm32l1xx_hal_flash.c ****                      ##### How to use this driver #####
  32:..//Source/stm/lib/STM32L1xx_HAL_Driver/Src/stm32l1xx_hal_flash.c ****   ==============================================================================
  33:..//Source/stm/lib/STM32L1xx_HAL_Driver/Src/stm32l1xx_hal_flash.c ****   [..]                             
  34:..//Source/stm/lib/STM32L1xx_HAL_Driver/Src/stm32l1xx_hal_flash.c ****       This driver provides functions and macros to configure and program the FLASH 
ARM GAS  /tmp/ccUlkaTj.s 			page 2


  35:..//Source/stm/lib/STM32L1xx_HAL_Driver/Src/stm32l1xx_hal_flash.c ****       memory of all STM32L1xx devices.
  36:..//Source/stm/lib/STM32L1xx_HAL_Driver/Src/stm32l1xx_hal_flash.c ****     
  37:..//Source/stm/lib/STM32L1xx_HAL_Driver/Src/stm32l1xx_hal_flash.c ****       (#) FLASH Memory I/O Programming functions: this group includes all needed
  38:..//Source/stm/lib/STM32L1xx_HAL_Driver/Src/stm32l1xx_hal_flash.c ****           functions to erase and program the main memory:
  39:..//Source/stm/lib/STM32L1xx_HAL_Driver/Src/stm32l1xx_hal_flash.c ****         (++) Lock and Unlock the FLASH interface
  40:..//Source/stm/lib/STM32L1xx_HAL_Driver/Src/stm32l1xx_hal_flash.c ****         (++) Erase function: Erase page
  41:..//Source/stm/lib/STM32L1xx_HAL_Driver/Src/stm32l1xx_hal_flash.c ****         (++) Program functions: Fast Word and Half Page(should be 
  42:..//Source/stm/lib/STM32L1xx_HAL_Driver/Src/stm32l1xx_hal_flash.c ****         executed from internal SRAM).
  43:..//Source/stm/lib/STM32L1xx_HAL_Driver/Src/stm32l1xx_hal_flash.c ****   
  44:..//Source/stm/lib/STM32L1xx_HAL_Driver/Src/stm32l1xx_hal_flash.c ****       (#) DATA EEPROM Programming functions: this group includes all 
  45:..//Source/stm/lib/STM32L1xx_HAL_Driver/Src/stm32l1xx_hal_flash.c ****           needed functions to erase and program the DATA EEPROM memory:
  46:..//Source/stm/lib/STM32L1xx_HAL_Driver/Src/stm32l1xx_hal_flash.c ****         (++) Lock and Unlock the DATA EEPROM interface.
  47:..//Source/stm/lib/STM32L1xx_HAL_Driver/Src/stm32l1xx_hal_flash.c ****         (++) Erase function: Erase Byte, erase HalfWord, erase Word, erase 
  48:..//Source/stm/lib/STM32L1xx_HAL_Driver/Src/stm32l1xx_hal_flash.c ****              Double Word (should be executed from internal SRAM).
  49:..//Source/stm/lib/STM32L1xx_HAL_Driver/Src/stm32l1xx_hal_flash.c ****         (++) Program functions: Fast Program Byte, Fast Program Half-Word, 
  50:..//Source/stm/lib/STM32L1xx_HAL_Driver/Src/stm32l1xx_hal_flash.c ****              FastProgramWord, Program Byte, Program Half-Word, 
  51:..//Source/stm/lib/STM32L1xx_HAL_Driver/Src/stm32l1xx_hal_flash.c ****              Program Word and Program Double-Word (should be executed 
  52:..//Source/stm/lib/STM32L1xx_HAL_Driver/Src/stm32l1xx_hal_flash.c ****              from internal SRAM).
  53:..//Source/stm/lib/STM32L1xx_HAL_Driver/Src/stm32l1xx_hal_flash.c **** 
  54:..//Source/stm/lib/STM32L1xx_HAL_Driver/Src/stm32l1xx_hal_flash.c ****       (#) FLASH Option Bytes Programming functions: this group includes all needed
  55:..//Source/stm/lib/STM32L1xx_HAL_Driver/Src/stm32l1xx_hal_flash.c ****           functions to manage the Option Bytes:
  56:..//Source/stm/lib/STM32L1xx_HAL_Driver/Src/stm32l1xx_hal_flash.c ****         (++) Lock and Unlock the Option Bytes
  57:..//Source/stm/lib/STM32L1xx_HAL_Driver/Src/stm32l1xx_hal_flash.c ****         (++) Set/Reset the write protection
  58:..//Source/stm/lib/STM32L1xx_HAL_Driver/Src/stm32l1xx_hal_flash.c ****         (++) Set the Read protection Level
  59:..//Source/stm/lib/STM32L1xx_HAL_Driver/Src/stm32l1xx_hal_flash.c ****         (++) Program the user Option Bytes
  60:..//Source/stm/lib/STM32L1xx_HAL_Driver/Src/stm32l1xx_hal_flash.c ****         (++) Launch the Option Bytes loader
  61:..//Source/stm/lib/STM32L1xx_HAL_Driver/Src/stm32l1xx_hal_flash.c ****         (++) Set/Get the Read protection Level.
  62:..//Source/stm/lib/STM32L1xx_HAL_Driver/Src/stm32l1xx_hal_flash.c ****         (++) Set/Get the BOR level.
  63:..//Source/stm/lib/STM32L1xx_HAL_Driver/Src/stm32l1xx_hal_flash.c ****         (++) Get the Write protection.
  64:..//Source/stm/lib/STM32L1xx_HAL_Driver/Src/stm32l1xx_hal_flash.c ****         (++) Get the user option bytes.
  65:..//Source/stm/lib/STM32L1xx_HAL_Driver/Src/stm32l1xx_hal_flash.c ****     
  66:..//Source/stm/lib/STM32L1xx_HAL_Driver/Src/stm32l1xx_hal_flash.c ****       (#) Interrupts and flags management functions : this group 
  67:..//Source/stm/lib/STM32L1xx_HAL_Driver/Src/stm32l1xx_hal_flash.c ****           includes all needed functions to:
  68:..//Source/stm/lib/STM32L1xx_HAL_Driver/Src/stm32l1xx_hal_flash.c ****         (++) Handle FLASH interrupts
  69:..//Source/stm/lib/STM32L1xx_HAL_Driver/Src/stm32l1xx_hal_flash.c ****         (++) Wait for last FLASH operation according to its status
  70:..//Source/stm/lib/STM32L1xx_HAL_Driver/Src/stm32l1xx_hal_flash.c ****         (++) Get error flag status
  71:..//Source/stm/lib/STM32L1xx_HAL_Driver/Src/stm32l1xx_hal_flash.c **** 
  72:..//Source/stm/lib/STM32L1xx_HAL_Driver/Src/stm32l1xx_hal_flash.c ****     (#) FLASH Interface configuration functions: this group includes 
  73:..//Source/stm/lib/STM32L1xx_HAL_Driver/Src/stm32l1xx_hal_flash.c ****       the management of following features:
  74:..//Source/stm/lib/STM32L1xx_HAL_Driver/Src/stm32l1xx_hal_flash.c ****       (++) Enable/Disable the RUN PowerDown mode.
  75:..//Source/stm/lib/STM32L1xx_HAL_Driver/Src/stm32l1xx_hal_flash.c ****       (++) Enable/Disable the SLEEP PowerDown mode.  
  76:..//Source/stm/lib/STM32L1xx_HAL_Driver/Src/stm32l1xx_hal_flash.c ****   
  77:..//Source/stm/lib/STM32L1xx_HAL_Driver/Src/stm32l1xx_hal_flash.c ****     (#) FLASH Peripheral State methods: this group includes 
  78:..//Source/stm/lib/STM32L1xx_HAL_Driver/Src/stm32l1xx_hal_flash.c ****       the management of following features:
  79:..//Source/stm/lib/STM32L1xx_HAL_Driver/Src/stm32l1xx_hal_flash.c ****       (++) Wait for the FLASH operation
  80:..//Source/stm/lib/STM32L1xx_HAL_Driver/Src/stm32l1xx_hal_flash.c ****       (++)  Get the specific FLASH error flag
  81:..//Source/stm/lib/STM32L1xx_HAL_Driver/Src/stm32l1xx_hal_flash.c ****     
  82:..//Source/stm/lib/STM32L1xx_HAL_Driver/Src/stm32l1xx_hal_flash.c ****   [..] In addition to these function, this driver includes a set of macros allowing
  83:..//Source/stm/lib/STM32L1xx_HAL_Driver/Src/stm32l1xx_hal_flash.c ****        to handle the following operations:
  84:..//Source/stm/lib/STM32L1xx_HAL_Driver/Src/stm32l1xx_hal_flash.c ****       
  85:..//Source/stm/lib/STM32L1xx_HAL_Driver/Src/stm32l1xx_hal_flash.c ****       (+) Set/Get the latency
  86:..//Source/stm/lib/STM32L1xx_HAL_Driver/Src/stm32l1xx_hal_flash.c ****       (+) Enable/Disable the prefetch buffer
  87:..//Source/stm/lib/STM32L1xx_HAL_Driver/Src/stm32l1xx_hal_flash.c ****       (+) Enable/Disable the 64 bit Read Access.
  88:..//Source/stm/lib/STM32L1xx_HAL_Driver/Src/stm32l1xx_hal_flash.c ****       (+) Enable/Disable the Flash power-down
  89:..//Source/stm/lib/STM32L1xx_HAL_Driver/Src/stm32l1xx_hal_flash.c ****       (+) Enable/Disable the FLASH interrupts
  90:..//Source/stm/lib/STM32L1xx_HAL_Driver/Src/stm32l1xx_hal_flash.c ****       (+) Monitor the FLASH flags status
  91:..//Source/stm/lib/STM32L1xx_HAL_Driver/Src/stm32l1xx_hal_flash.c ****           
ARM GAS  /tmp/ccUlkaTj.s 			page 3


  92:..//Source/stm/lib/STM32L1xx_HAL_Driver/Src/stm32l1xx_hal_flash.c ****                  ##### Programming operation functions #####
  93:..//Source/stm/lib/STM32L1xx_HAL_Driver/Src/stm32l1xx_hal_flash.c ****   ===============================================================================  
  94:..//Source/stm/lib/STM32L1xx_HAL_Driver/Src/stm32l1xx_hal_flash.c ****      [..]
  95:..//Source/stm/lib/STM32L1xx_HAL_Driver/Src/stm32l1xx_hal_flash.c ****      This subsection provides a set of functions allowing to manage the FLASH 
  96:..//Source/stm/lib/STM32L1xx_HAL_Driver/Src/stm32l1xx_hal_flash.c ****      program operations.
  97:..//Source/stm/lib/STM32L1xx_HAL_Driver/Src/stm32l1xx_hal_flash.c ****   
  98:..//Source/stm/lib/STM32L1xx_HAL_Driver/Src/stm32l1xx_hal_flash.c ****     [..] The FLASH Memory Programming functions, includes the following functions:
  99:..//Source/stm/lib/STM32L1xx_HAL_Driver/Src/stm32l1xx_hal_flash.c ****      (+) HAL_FLASH_Unlock(void);
 100:..//Source/stm/lib/STM32L1xx_HAL_Driver/Src/stm32l1xx_hal_flash.c ****      (+) HAL_FLASH_Lock(void);
 101:..//Source/stm/lib/STM32L1xx_HAL_Driver/Src/stm32l1xx_hal_flash.c ****      (+) HAL_FLASH_Program(uint32_t TypeProgram, uint32_t Address, uint32_t Data)
 102:..//Source/stm/lib/STM32L1xx_HAL_Driver/Src/stm32l1xx_hal_flash.c ****      (+) HAL_FLASH_Program_IT(uint32_t TypeProgram, uint32_t Address, uint32_t Data)
 103:..//Source/stm/lib/STM32L1xx_HAL_Driver/Src/stm32l1xx_hal_flash.c ****     
 104:..//Source/stm/lib/STM32L1xx_HAL_Driver/Src/stm32l1xx_hal_flash.c ****      [..] Any operation of erase or program should follow these steps:
 105:..//Source/stm/lib/STM32L1xx_HAL_Driver/Src/stm32l1xx_hal_flash.c ****      (#) Call the HAL_FLASH_Unlock() function to enable the flash control register and 
 106:..//Source/stm/lib/STM32L1xx_HAL_Driver/Src/stm32l1xx_hal_flash.c ****          program memory access.
 107:..//Source/stm/lib/STM32L1xx_HAL_Driver/Src/stm32l1xx_hal_flash.c ****      (#) Call the desired function to erase page or program data.
 108:..//Source/stm/lib/STM32L1xx_HAL_Driver/Src/stm32l1xx_hal_flash.c ****      (#) Call the HAL_FLASH_Lock() to disable the flash program memory access 
 109:..//Source/stm/lib/STM32L1xx_HAL_Driver/Src/stm32l1xx_hal_flash.c ****         (recommended to protect the FLASH memory against possible unwanted operation).
 110:..//Source/stm/lib/STM32L1xx_HAL_Driver/Src/stm32l1xx_hal_flash.c ****   
 111:..//Source/stm/lib/STM32L1xx_HAL_Driver/Src/stm32l1xx_hal_flash.c ****                ##### Option Bytes Programming functions ##### 
 112:..//Source/stm/lib/STM32L1xx_HAL_Driver/Src/stm32l1xx_hal_flash.c ****    ==============================================================================  
 113:..//Source/stm/lib/STM32L1xx_HAL_Driver/Src/stm32l1xx_hal_flash.c ****   
 114:..//Source/stm/lib/STM32L1xx_HAL_Driver/Src/stm32l1xx_hal_flash.c ****      [..] The FLASH_Option Bytes Programming_functions, includes the following functions:
 115:..//Source/stm/lib/STM32L1xx_HAL_Driver/Src/stm32l1xx_hal_flash.c ****      (+) HAL_FLASH_OB_Unlock(void);
 116:..//Source/stm/lib/STM32L1xx_HAL_Driver/Src/stm32l1xx_hal_flash.c ****      (+) HAL_FLASH_OB_Lock(void);
 117:..//Source/stm/lib/STM32L1xx_HAL_Driver/Src/stm32l1xx_hal_flash.c ****      (+) HAL_FLASH_OB_Launch(void);
 118:..//Source/stm/lib/STM32L1xx_HAL_Driver/Src/stm32l1xx_hal_flash.c ****      (+) HAL_FLASHEx_OBProgram(FLASH_OBProgramInitTypeDef *pOBInit);
 119:..//Source/stm/lib/STM32L1xx_HAL_Driver/Src/stm32l1xx_hal_flash.c ****      (+) HAL_FLASHEx_OBGetConfig(FLASH_OBProgramInitTypeDef *pOBInit);
 120:..//Source/stm/lib/STM32L1xx_HAL_Driver/Src/stm32l1xx_hal_flash.c ****     
 121:..//Source/stm/lib/STM32L1xx_HAL_Driver/Src/stm32l1xx_hal_flash.c ****      [..] Any operation of erase or program should follow these steps:
 122:..//Source/stm/lib/STM32L1xx_HAL_Driver/Src/stm32l1xx_hal_flash.c ****      (#) Call the HAL_FLASH_OB_Unlock() function to enable the Flash option control 
 123:..//Source/stm/lib/STM32L1xx_HAL_Driver/Src/stm32l1xx_hal_flash.c ****          register access.
 124:..//Source/stm/lib/STM32L1xx_HAL_Driver/Src/stm32l1xx_hal_flash.c ****      (#) Call the following functions to program the desired option bytes.
 125:..//Source/stm/lib/STM32L1xx_HAL_Driver/Src/stm32l1xx_hal_flash.c ****          (++) HAL_FLASHEx_OBProgram(FLASH_OBProgramInitTypeDef *pOBInit);      
 126:..//Source/stm/lib/STM32L1xx_HAL_Driver/Src/stm32l1xx_hal_flash.c ****      (#) Once all needed option bytes to be programmed are correctly written, call the
 127:..//Source/stm/lib/STM32L1xx_HAL_Driver/Src/stm32l1xx_hal_flash.c ****          HAL_FLASH_OB_Launch(void) function to launch the Option Bytes programming process.
 128:..//Source/stm/lib/STM32L1xx_HAL_Driver/Src/stm32l1xx_hal_flash.c ****      (#) Call the HAL_FLASH_OB_Lock() to disable the Flash option control register access (recommen
 129:..//Source/stm/lib/STM32L1xx_HAL_Driver/Src/stm32l1xx_hal_flash.c ****          to protect the option Bytes against possible unwanted operations).
 130:..//Source/stm/lib/STM32L1xx_HAL_Driver/Src/stm32l1xx_hal_flash.c ****   
 131:..//Source/stm/lib/STM32L1xx_HAL_Driver/Src/stm32l1xx_hal_flash.c ****     [..] Proprietary code Read Out Protection (PcROP):    
 132:..//Source/stm/lib/STM32L1xx_HAL_Driver/Src/stm32l1xx_hal_flash.c ****     (#) The PcROP sector is selected by using the same option bytes as the Write
 133:..//Source/stm/lib/STM32L1xx_HAL_Driver/Src/stm32l1xx_hal_flash.c ****         protection. As a result, these 2 options are exclusive each other.
 134:..//Source/stm/lib/STM32L1xx_HAL_Driver/Src/stm32l1xx_hal_flash.c ****     (#) To activate PCROP mode for Flash sectors(s), you need to follow the sequence below:
 135:..//Source/stm/lib/STM32L1xx_HAL_Driver/Src/stm32l1xx_hal_flash.c ****         (++) Use this function HAL_FLASHEx_AdvOBProgram with PCROPState = OB_PCROP_STATE_ENABLE.
 136:..//Source/stm/lib/STM32L1xx_HAL_Driver/Src/stm32l1xx_hal_flash.c **** 
 137:..//Source/stm/lib/STM32L1xx_HAL_Driver/Src/stm32l1xx_hal_flash.c ****   @endverbatim
 138:..//Source/stm/lib/STM32L1xx_HAL_Driver/Src/stm32l1xx_hal_flash.c ****   ******************************************************************************
 139:..//Source/stm/lib/STM32L1xx_HAL_Driver/Src/stm32l1xx_hal_flash.c ****   * @attention
 140:..//Source/stm/lib/STM32L1xx_HAL_Driver/Src/stm32l1xx_hal_flash.c ****   *
 141:..//Source/stm/lib/STM32L1xx_HAL_Driver/Src/stm32l1xx_hal_flash.c ****   * <h2><center>&copy; Copyright (c) 2017 STMicroelectronics.
 142:..//Source/stm/lib/STM32L1xx_HAL_Driver/Src/stm32l1xx_hal_flash.c ****   * All rights reserved.</center></h2>
 143:..//Source/stm/lib/STM32L1xx_HAL_Driver/Src/stm32l1xx_hal_flash.c ****   *
 144:..//Source/stm/lib/STM32L1xx_HAL_Driver/Src/stm32l1xx_hal_flash.c ****   * This software component is licensed by ST under BSD 3-Clause license,
 145:..//Source/stm/lib/STM32L1xx_HAL_Driver/Src/stm32l1xx_hal_flash.c ****   * the "License"; You may not use this file except in compliance with the
 146:..//Source/stm/lib/STM32L1xx_HAL_Driver/Src/stm32l1xx_hal_flash.c ****   * License. You may obtain a copy of the License at:
 147:..//Source/stm/lib/STM32L1xx_HAL_Driver/Src/stm32l1xx_hal_flash.c ****   *                        opensource.org/licenses/BSD-3-Clause
 148:..//Source/stm/lib/STM32L1xx_HAL_Driver/Src/stm32l1xx_hal_flash.c ****   *
ARM GAS  /tmp/ccUlkaTj.s 			page 4


 149:..//Source/stm/lib/STM32L1xx_HAL_Driver/Src/stm32l1xx_hal_flash.c ****   ******************************************************************************
 150:..//Source/stm/lib/STM32L1xx_HAL_Driver/Src/stm32l1xx_hal_flash.c ****   */
 151:..//Source/stm/lib/STM32L1xx_HAL_Driver/Src/stm32l1xx_hal_flash.c **** 
 152:..//Source/stm/lib/STM32L1xx_HAL_Driver/Src/stm32l1xx_hal_flash.c **** /* Includes ------------------------------------------------------------------*/
 153:..//Source/stm/lib/STM32L1xx_HAL_Driver/Src/stm32l1xx_hal_flash.c **** #include "stm32l1xx_hal.h"
 154:..//Source/stm/lib/STM32L1xx_HAL_Driver/Src/stm32l1xx_hal_flash.c **** 
 155:..//Source/stm/lib/STM32L1xx_HAL_Driver/Src/stm32l1xx_hal_flash.c **** /** @addtogroup STM32L1xx_HAL_Driver
 156:..//Source/stm/lib/STM32L1xx_HAL_Driver/Src/stm32l1xx_hal_flash.c ****   * @{
 157:..//Source/stm/lib/STM32L1xx_HAL_Driver/Src/stm32l1xx_hal_flash.c ****   */
 158:..//Source/stm/lib/STM32L1xx_HAL_Driver/Src/stm32l1xx_hal_flash.c **** 
 159:..//Source/stm/lib/STM32L1xx_HAL_Driver/Src/stm32l1xx_hal_flash.c **** #ifdef HAL_FLASH_MODULE_ENABLED
 160:..//Source/stm/lib/STM32L1xx_HAL_Driver/Src/stm32l1xx_hal_flash.c **** 
 161:..//Source/stm/lib/STM32L1xx_HAL_Driver/Src/stm32l1xx_hal_flash.c **** /** @defgroup FLASH FLASH
 162:..//Source/stm/lib/STM32L1xx_HAL_Driver/Src/stm32l1xx_hal_flash.c ****   * @brief FLASH HAL module driver
 163:..//Source/stm/lib/STM32L1xx_HAL_Driver/Src/stm32l1xx_hal_flash.c ****   * @{
 164:..//Source/stm/lib/STM32L1xx_HAL_Driver/Src/stm32l1xx_hal_flash.c ****   */
 165:..//Source/stm/lib/STM32L1xx_HAL_Driver/Src/stm32l1xx_hal_flash.c **** 
 166:..//Source/stm/lib/STM32L1xx_HAL_Driver/Src/stm32l1xx_hal_flash.c **** /* Private typedef -----------------------------------------------------------*/
 167:..//Source/stm/lib/STM32L1xx_HAL_Driver/Src/stm32l1xx_hal_flash.c **** /* Private define ------------------------------------------------------------*/
 168:..//Source/stm/lib/STM32L1xx_HAL_Driver/Src/stm32l1xx_hal_flash.c **** /** @defgroup FLASH_Private_Constants FLASH Private Constants
 169:..//Source/stm/lib/STM32L1xx_HAL_Driver/Src/stm32l1xx_hal_flash.c ****   * @{
 170:..//Source/stm/lib/STM32L1xx_HAL_Driver/Src/stm32l1xx_hal_flash.c ****   */
 171:..//Source/stm/lib/STM32L1xx_HAL_Driver/Src/stm32l1xx_hal_flash.c **** /**
 172:..//Source/stm/lib/STM32L1xx_HAL_Driver/Src/stm32l1xx_hal_flash.c ****   * @}
 173:..//Source/stm/lib/STM32L1xx_HAL_Driver/Src/stm32l1xx_hal_flash.c ****   */
 174:..//Source/stm/lib/STM32L1xx_HAL_Driver/Src/stm32l1xx_hal_flash.c **** 
 175:..//Source/stm/lib/STM32L1xx_HAL_Driver/Src/stm32l1xx_hal_flash.c **** /* Private macro ---------------------------- ---------------------------------*/
 176:..//Source/stm/lib/STM32L1xx_HAL_Driver/Src/stm32l1xx_hal_flash.c **** /** @defgroup FLASH_Private_Macros FLASH Private Macros
 177:..//Source/stm/lib/STM32L1xx_HAL_Driver/Src/stm32l1xx_hal_flash.c ****   * @{
 178:..//Source/stm/lib/STM32L1xx_HAL_Driver/Src/stm32l1xx_hal_flash.c ****   */
 179:..//Source/stm/lib/STM32L1xx_HAL_Driver/Src/stm32l1xx_hal_flash.c ****  
 180:..//Source/stm/lib/STM32L1xx_HAL_Driver/Src/stm32l1xx_hal_flash.c **** /**
 181:..//Source/stm/lib/STM32L1xx_HAL_Driver/Src/stm32l1xx_hal_flash.c ****   * @}
 182:..//Source/stm/lib/STM32L1xx_HAL_Driver/Src/stm32l1xx_hal_flash.c ****   */
 183:..//Source/stm/lib/STM32L1xx_HAL_Driver/Src/stm32l1xx_hal_flash.c **** 
 184:..//Source/stm/lib/STM32L1xx_HAL_Driver/Src/stm32l1xx_hal_flash.c **** /* Private variables ---------------------------------------------------------*/
 185:..//Source/stm/lib/STM32L1xx_HAL_Driver/Src/stm32l1xx_hal_flash.c **** /** @defgroup FLASH_Private_Variables FLASH Private Variables
 186:..//Source/stm/lib/STM32L1xx_HAL_Driver/Src/stm32l1xx_hal_flash.c ****   * @{
 187:..//Source/stm/lib/STM32L1xx_HAL_Driver/Src/stm32l1xx_hal_flash.c ****   */
 188:..//Source/stm/lib/STM32L1xx_HAL_Driver/Src/stm32l1xx_hal_flash.c **** /* Variables used for Erase pages under interruption*/
 189:..//Source/stm/lib/STM32L1xx_HAL_Driver/Src/stm32l1xx_hal_flash.c **** FLASH_ProcessTypeDef pFlash;
 190:..//Source/stm/lib/STM32L1xx_HAL_Driver/Src/stm32l1xx_hal_flash.c **** /**
 191:..//Source/stm/lib/STM32L1xx_HAL_Driver/Src/stm32l1xx_hal_flash.c ****   * @}
 192:..//Source/stm/lib/STM32L1xx_HAL_Driver/Src/stm32l1xx_hal_flash.c ****   */
 193:..//Source/stm/lib/STM32L1xx_HAL_Driver/Src/stm32l1xx_hal_flash.c **** 
 194:..//Source/stm/lib/STM32L1xx_HAL_Driver/Src/stm32l1xx_hal_flash.c **** /* Private function prototypes -----------------------------------------------*/
 195:..//Source/stm/lib/STM32L1xx_HAL_Driver/Src/stm32l1xx_hal_flash.c **** /** @defgroup FLASH_Private_Functions FLASH Private Functions
 196:..//Source/stm/lib/STM32L1xx_HAL_Driver/Src/stm32l1xx_hal_flash.c ****   * @{
 197:..//Source/stm/lib/STM32L1xx_HAL_Driver/Src/stm32l1xx_hal_flash.c ****   */
 198:..//Source/stm/lib/STM32L1xx_HAL_Driver/Src/stm32l1xx_hal_flash.c **** static  void   FLASH_SetErrorCode(void);
 199:..//Source/stm/lib/STM32L1xx_HAL_Driver/Src/stm32l1xx_hal_flash.c **** extern void    FLASH_PageErase(uint32_t PageAddress);
 200:..//Source/stm/lib/STM32L1xx_HAL_Driver/Src/stm32l1xx_hal_flash.c **** /**
 201:..//Source/stm/lib/STM32L1xx_HAL_Driver/Src/stm32l1xx_hal_flash.c ****   * @}
 202:..//Source/stm/lib/STM32L1xx_HAL_Driver/Src/stm32l1xx_hal_flash.c ****   */
 203:..//Source/stm/lib/STM32L1xx_HAL_Driver/Src/stm32l1xx_hal_flash.c **** 
 204:..//Source/stm/lib/STM32L1xx_HAL_Driver/Src/stm32l1xx_hal_flash.c **** /* Exported functions ---------------------------------------------------------*/
 205:..//Source/stm/lib/STM32L1xx_HAL_Driver/Src/stm32l1xx_hal_flash.c **** /** @defgroup FLASH_Exported_Functions FLASH Exported Functions
ARM GAS  /tmp/ccUlkaTj.s 			page 5


 206:..//Source/stm/lib/STM32L1xx_HAL_Driver/Src/stm32l1xx_hal_flash.c ****   * @{
 207:..//Source/stm/lib/STM32L1xx_HAL_Driver/Src/stm32l1xx_hal_flash.c ****   */
 208:..//Source/stm/lib/STM32L1xx_HAL_Driver/Src/stm32l1xx_hal_flash.c ****   
 209:..//Source/stm/lib/STM32L1xx_HAL_Driver/Src/stm32l1xx_hal_flash.c **** /** @defgroup FLASH_Exported_Functions_Group1 Programming operation functions 
 210:..//Source/stm/lib/STM32L1xx_HAL_Driver/Src/stm32l1xx_hal_flash.c ****   *  @brief   Programming operation functions 
 211:..//Source/stm/lib/STM32L1xx_HAL_Driver/Src/stm32l1xx_hal_flash.c ****   *
 212:..//Source/stm/lib/STM32L1xx_HAL_Driver/Src/stm32l1xx_hal_flash.c **** @verbatim   
 213:..//Source/stm/lib/STM32L1xx_HAL_Driver/Src/stm32l1xx_hal_flash.c **** @endverbatim
 214:..//Source/stm/lib/STM32L1xx_HAL_Driver/Src/stm32l1xx_hal_flash.c ****   * @{
 215:..//Source/stm/lib/STM32L1xx_HAL_Driver/Src/stm32l1xx_hal_flash.c ****   */
 216:..//Source/stm/lib/STM32L1xx_HAL_Driver/Src/stm32l1xx_hal_flash.c **** 
 217:..//Source/stm/lib/STM32L1xx_HAL_Driver/Src/stm32l1xx_hal_flash.c **** /**
 218:..//Source/stm/lib/STM32L1xx_HAL_Driver/Src/stm32l1xx_hal_flash.c ****   * @brief  Program word at a specified address
 219:..//Source/stm/lib/STM32L1xx_HAL_Driver/Src/stm32l1xx_hal_flash.c ****   * @note   To correctly run this function, the HAL_FLASH_Unlock() function
 220:..//Source/stm/lib/STM32L1xx_HAL_Driver/Src/stm32l1xx_hal_flash.c ****   *         must be called before.
 221:..//Source/stm/lib/STM32L1xx_HAL_Driver/Src/stm32l1xx_hal_flash.c ****   *         Call the HAL_FLASH_Lock() to disable the flash memory access
 222:..//Source/stm/lib/STM32L1xx_HAL_Driver/Src/stm32l1xx_hal_flash.c ****   *         (recommended to protect the FLASH memory against possible unwanted operation).
 223:..//Source/stm/lib/STM32L1xx_HAL_Driver/Src/stm32l1xx_hal_flash.c ****   *
 224:..//Source/stm/lib/STM32L1xx_HAL_Driver/Src/stm32l1xx_hal_flash.c ****   * @param  TypeProgram   Indicate the way to program at a specified address.
 225:..//Source/stm/lib/STM32L1xx_HAL_Driver/Src/stm32l1xx_hal_flash.c ****   *                       This parameter can be a value of @ref FLASH_Type_Program
 226:..//Source/stm/lib/STM32L1xx_HAL_Driver/Src/stm32l1xx_hal_flash.c ****   * @param  Address       Specifie the address to be programmed.
 227:..//Source/stm/lib/STM32L1xx_HAL_Driver/Src/stm32l1xx_hal_flash.c ****   * @param  Data          Specifie the data to be programmed
 228:..//Source/stm/lib/STM32L1xx_HAL_Driver/Src/stm32l1xx_hal_flash.c ****   * 
 229:..//Source/stm/lib/STM32L1xx_HAL_Driver/Src/stm32l1xx_hal_flash.c ****   * @retval HAL_StatusTypeDef HAL Status
 230:..//Source/stm/lib/STM32L1xx_HAL_Driver/Src/stm32l1xx_hal_flash.c ****   */
 231:..//Source/stm/lib/STM32L1xx_HAL_Driver/Src/stm32l1xx_hal_flash.c **** HAL_StatusTypeDef HAL_FLASH_Program(uint32_t TypeProgram, uint32_t Address, uint32_t Data)
 232:..//Source/stm/lib/STM32L1xx_HAL_Driver/Src/stm32l1xx_hal_flash.c **** {
 233:..//Source/stm/lib/STM32L1xx_HAL_Driver/Src/stm32l1xx_hal_flash.c ****   HAL_StatusTypeDef status = HAL_ERROR;
 234:..//Source/stm/lib/STM32L1xx_HAL_Driver/Src/stm32l1xx_hal_flash.c ****   
 235:..//Source/stm/lib/STM32L1xx_HAL_Driver/Src/stm32l1xx_hal_flash.c ****   /* Process Locked */
 236:..//Source/stm/lib/STM32L1xx_HAL_Driver/Src/stm32l1xx_hal_flash.c ****   __HAL_LOCK(&pFlash);
 237:..//Source/stm/lib/STM32L1xx_HAL_Driver/Src/stm32l1xx_hal_flash.c **** 
 238:..//Source/stm/lib/STM32L1xx_HAL_Driver/Src/stm32l1xx_hal_flash.c ****   /* Check the parameters */
 239:..//Source/stm/lib/STM32L1xx_HAL_Driver/Src/stm32l1xx_hal_flash.c ****   assert_param(IS_FLASH_TYPEPROGRAM(TypeProgram));
 240:..//Source/stm/lib/STM32L1xx_HAL_Driver/Src/stm32l1xx_hal_flash.c ****   assert_param(IS_FLASH_PROGRAM_ADDRESS(Address));
 241:..//Source/stm/lib/STM32L1xx_HAL_Driver/Src/stm32l1xx_hal_flash.c **** 
 242:..//Source/stm/lib/STM32L1xx_HAL_Driver/Src/stm32l1xx_hal_flash.c ****   /* Wait for last operation to be completed */
 243:..//Source/stm/lib/STM32L1xx_HAL_Driver/Src/stm32l1xx_hal_flash.c ****   status = FLASH_WaitForLastOperation(FLASH_TIMEOUT_VALUE);
 244:..//Source/stm/lib/STM32L1xx_HAL_Driver/Src/stm32l1xx_hal_flash.c ****   
 245:..//Source/stm/lib/STM32L1xx_HAL_Driver/Src/stm32l1xx_hal_flash.c ****   if(status == HAL_OK)
 246:..//Source/stm/lib/STM32L1xx_HAL_Driver/Src/stm32l1xx_hal_flash.c ****   {
 247:..//Source/stm/lib/STM32L1xx_HAL_Driver/Src/stm32l1xx_hal_flash.c ****     /* Clean the error context */
 248:..//Source/stm/lib/STM32L1xx_HAL_Driver/Src/stm32l1xx_hal_flash.c ****     pFlash.ErrorCode = HAL_FLASH_ERROR_NONE;
 249:..//Source/stm/lib/STM32L1xx_HAL_Driver/Src/stm32l1xx_hal_flash.c **** 
 250:..//Source/stm/lib/STM32L1xx_HAL_Driver/Src/stm32l1xx_hal_flash.c ****     /*Program word (32-bit) at a specified address.*/
 251:..//Source/stm/lib/STM32L1xx_HAL_Driver/Src/stm32l1xx_hal_flash.c ****     *(__IO uint32_t *)Address = Data;
 252:..//Source/stm/lib/STM32L1xx_HAL_Driver/Src/stm32l1xx_hal_flash.c **** 
 253:..//Source/stm/lib/STM32L1xx_HAL_Driver/Src/stm32l1xx_hal_flash.c ****     /* Wait for last operation to be completed */
 254:..//Source/stm/lib/STM32L1xx_HAL_Driver/Src/stm32l1xx_hal_flash.c ****     status = FLASH_WaitForLastOperation(FLASH_TIMEOUT_VALUE);
 255:..//Source/stm/lib/STM32L1xx_HAL_Driver/Src/stm32l1xx_hal_flash.c ****   }
 256:..//Source/stm/lib/STM32L1xx_HAL_Driver/Src/stm32l1xx_hal_flash.c **** 
 257:..//Source/stm/lib/STM32L1xx_HAL_Driver/Src/stm32l1xx_hal_flash.c ****   /* Process Unlocked */
 258:..//Source/stm/lib/STM32L1xx_HAL_Driver/Src/stm32l1xx_hal_flash.c ****   __HAL_UNLOCK(&pFlash);
 259:..//Source/stm/lib/STM32L1xx_HAL_Driver/Src/stm32l1xx_hal_flash.c **** 
 260:..//Source/stm/lib/STM32L1xx_HAL_Driver/Src/stm32l1xx_hal_flash.c ****   return status;
 261:..//Source/stm/lib/STM32L1xx_HAL_Driver/Src/stm32l1xx_hal_flash.c **** }
 262:..//Source/stm/lib/STM32L1xx_HAL_Driver/Src/stm32l1xx_hal_flash.c **** 
ARM GAS  /tmp/ccUlkaTj.s 			page 6


 263:..//Source/stm/lib/STM32L1xx_HAL_Driver/Src/stm32l1xx_hal_flash.c **** /**
 264:..//Source/stm/lib/STM32L1xx_HAL_Driver/Src/stm32l1xx_hal_flash.c ****   * @brief   Program word at a specified address  with interrupt enabled.
 265:..//Source/stm/lib/STM32L1xx_HAL_Driver/Src/stm32l1xx_hal_flash.c ****   *
 266:..//Source/stm/lib/STM32L1xx_HAL_Driver/Src/stm32l1xx_hal_flash.c ****   * @param  TypeProgram  Indicate the way to program at a specified address.
 267:..//Source/stm/lib/STM32L1xx_HAL_Driver/Src/stm32l1xx_hal_flash.c ****   *                      This parameter can be a value of @ref FLASH_Type_Program
 268:..//Source/stm/lib/STM32L1xx_HAL_Driver/Src/stm32l1xx_hal_flash.c ****   * @param  Address      Specifie the address to be programmed.
 269:..//Source/stm/lib/STM32L1xx_HAL_Driver/Src/stm32l1xx_hal_flash.c ****   * @param  Data         Specifie the data to be programmed
 270:..//Source/stm/lib/STM32L1xx_HAL_Driver/Src/stm32l1xx_hal_flash.c ****   * 
 271:..//Source/stm/lib/STM32L1xx_HAL_Driver/Src/stm32l1xx_hal_flash.c ****   * @retval HAL_StatusTypeDef HAL Status
 272:..//Source/stm/lib/STM32L1xx_HAL_Driver/Src/stm32l1xx_hal_flash.c ****   */
 273:..//Source/stm/lib/STM32L1xx_HAL_Driver/Src/stm32l1xx_hal_flash.c **** HAL_StatusTypeDef HAL_FLASH_Program_IT(uint32_t TypeProgram, uint32_t Address, uint32_t Data)
 274:..//Source/stm/lib/STM32L1xx_HAL_Driver/Src/stm32l1xx_hal_flash.c **** {
 275:..//Source/stm/lib/STM32L1xx_HAL_Driver/Src/stm32l1xx_hal_flash.c ****   HAL_StatusTypeDef status = HAL_OK;
 276:..//Source/stm/lib/STM32L1xx_HAL_Driver/Src/stm32l1xx_hal_flash.c ****   
 277:..//Source/stm/lib/STM32L1xx_HAL_Driver/Src/stm32l1xx_hal_flash.c ****   /* Process Locked */
 278:..//Source/stm/lib/STM32L1xx_HAL_Driver/Src/stm32l1xx_hal_flash.c ****   __HAL_LOCK(&pFlash);
 279:..//Source/stm/lib/STM32L1xx_HAL_Driver/Src/stm32l1xx_hal_flash.c **** 
 280:..//Source/stm/lib/STM32L1xx_HAL_Driver/Src/stm32l1xx_hal_flash.c ****   /* Check the parameters */
 281:..//Source/stm/lib/STM32L1xx_HAL_Driver/Src/stm32l1xx_hal_flash.c ****   assert_param(IS_FLASH_TYPEPROGRAM(TypeProgram));
 282:..//Source/stm/lib/STM32L1xx_HAL_Driver/Src/stm32l1xx_hal_flash.c ****   assert_param(IS_FLASH_PROGRAM_ADDRESS(Address));
 283:..//Source/stm/lib/STM32L1xx_HAL_Driver/Src/stm32l1xx_hal_flash.c **** 
 284:..//Source/stm/lib/STM32L1xx_HAL_Driver/Src/stm32l1xx_hal_flash.c ****   /* Enable End of FLASH Operation and Error source interrupts */
 285:..//Source/stm/lib/STM32L1xx_HAL_Driver/Src/stm32l1xx_hal_flash.c ****   __HAL_FLASH_ENABLE_IT(FLASH_IT_EOP | FLASH_IT_ERR);
 286:..//Source/stm/lib/STM32L1xx_HAL_Driver/Src/stm32l1xx_hal_flash.c ****   
 287:..//Source/stm/lib/STM32L1xx_HAL_Driver/Src/stm32l1xx_hal_flash.c ****   pFlash.Address = Address;
 288:..//Source/stm/lib/STM32L1xx_HAL_Driver/Src/stm32l1xx_hal_flash.c ****   pFlash.ProcedureOnGoing = FLASH_PROC_PROGRAM;
 289:..//Source/stm/lib/STM32L1xx_HAL_Driver/Src/stm32l1xx_hal_flash.c ****   /* Clean the error context */
 290:..//Source/stm/lib/STM32L1xx_HAL_Driver/Src/stm32l1xx_hal_flash.c ****   pFlash.ErrorCode = HAL_FLASH_ERROR_NONE;
 291:..//Source/stm/lib/STM32L1xx_HAL_Driver/Src/stm32l1xx_hal_flash.c **** 
 292:..//Source/stm/lib/STM32L1xx_HAL_Driver/Src/stm32l1xx_hal_flash.c ****   if(TypeProgram == FLASH_TYPEPROGRAM_WORD)
 293:..//Source/stm/lib/STM32L1xx_HAL_Driver/Src/stm32l1xx_hal_flash.c ****   {
 294:..//Source/stm/lib/STM32L1xx_HAL_Driver/Src/stm32l1xx_hal_flash.c ****     /* Program word (32-bit) at a specified address. */
 295:..//Source/stm/lib/STM32L1xx_HAL_Driver/Src/stm32l1xx_hal_flash.c ****     *(__IO uint32_t *)Address = Data;
 296:..//Source/stm/lib/STM32L1xx_HAL_Driver/Src/stm32l1xx_hal_flash.c ****   }
 297:..//Source/stm/lib/STM32L1xx_HAL_Driver/Src/stm32l1xx_hal_flash.c ****   return status;
 298:..//Source/stm/lib/STM32L1xx_HAL_Driver/Src/stm32l1xx_hal_flash.c **** }
 299:..//Source/stm/lib/STM32L1xx_HAL_Driver/Src/stm32l1xx_hal_flash.c **** 
 300:..//Source/stm/lib/STM32L1xx_HAL_Driver/Src/stm32l1xx_hal_flash.c **** /**
 301:..//Source/stm/lib/STM32L1xx_HAL_Driver/Src/stm32l1xx_hal_flash.c ****   * @brief This function handles FLASH interrupt request.
 302:..//Source/stm/lib/STM32L1xx_HAL_Driver/Src/stm32l1xx_hal_flash.c ****   * @retval None
 303:..//Source/stm/lib/STM32L1xx_HAL_Driver/Src/stm32l1xx_hal_flash.c ****   */
 304:..//Source/stm/lib/STM32L1xx_HAL_Driver/Src/stm32l1xx_hal_flash.c **** void HAL_FLASH_IRQHandler(void)
 305:..//Source/stm/lib/STM32L1xx_HAL_Driver/Src/stm32l1xx_hal_flash.c **** {
 306:..//Source/stm/lib/STM32L1xx_HAL_Driver/Src/stm32l1xx_hal_flash.c ****   uint32_t addresstmp = 0U;
 307:..//Source/stm/lib/STM32L1xx_HAL_Driver/Src/stm32l1xx_hal_flash.c ****   
 308:..//Source/stm/lib/STM32L1xx_HAL_Driver/Src/stm32l1xx_hal_flash.c ****   /* Check FLASH operation error flags */
 309:..//Source/stm/lib/STM32L1xx_HAL_Driver/Src/stm32l1xx_hal_flash.c ****   if( __HAL_FLASH_GET_FLAG(FLASH_FLAG_WRPERR)     || 
 310:..//Source/stm/lib/STM32L1xx_HAL_Driver/Src/stm32l1xx_hal_flash.c ****       __HAL_FLASH_GET_FLAG(FLASH_FLAG_PGAERR)     || 
 311:..//Source/stm/lib/STM32L1xx_HAL_Driver/Src/stm32l1xx_hal_flash.c ****       __HAL_FLASH_GET_FLAG(FLASH_FLAG_SIZERR)     || 
 312:..//Source/stm/lib/STM32L1xx_HAL_Driver/Src/stm32l1xx_hal_flash.c **** #if defined(FLASH_SR_RDERR)
 313:..//Source/stm/lib/STM32L1xx_HAL_Driver/Src/stm32l1xx_hal_flash.c ****       __HAL_FLASH_GET_FLAG(FLASH_FLAG_RDERR)      || 
 314:..//Source/stm/lib/STM32L1xx_HAL_Driver/Src/stm32l1xx_hal_flash.c **** #endif /* FLASH_SR_RDERR */
 315:..//Source/stm/lib/STM32L1xx_HAL_Driver/Src/stm32l1xx_hal_flash.c **** #if defined(FLASH_SR_OPTVERRUSR)
 316:..//Source/stm/lib/STM32L1xx_HAL_Driver/Src/stm32l1xx_hal_flash.c ****       __HAL_FLASH_GET_FLAG(FLASH_FLAG_OPTVERRUSR) || 
 317:..//Source/stm/lib/STM32L1xx_HAL_Driver/Src/stm32l1xx_hal_flash.c **** #endif /* FLASH_SR_OPTVERRUSR */
 318:..//Source/stm/lib/STM32L1xx_HAL_Driver/Src/stm32l1xx_hal_flash.c ****       __HAL_FLASH_GET_FLAG(FLASH_FLAG_OPTVERR) )
 319:..//Source/stm/lib/STM32L1xx_HAL_Driver/Src/stm32l1xx_hal_flash.c ****   {
ARM GAS  /tmp/ccUlkaTj.s 			page 7


 320:..//Source/stm/lib/STM32L1xx_HAL_Driver/Src/stm32l1xx_hal_flash.c ****     if(pFlash.ProcedureOnGoing == FLASH_PROC_PAGEERASE)
 321:..//Source/stm/lib/STM32L1xx_HAL_Driver/Src/stm32l1xx_hal_flash.c ****     {
 322:..//Source/stm/lib/STM32L1xx_HAL_Driver/Src/stm32l1xx_hal_flash.c ****       /* Return the faulty sector */
 323:..//Source/stm/lib/STM32L1xx_HAL_Driver/Src/stm32l1xx_hal_flash.c ****       addresstmp = pFlash.Page;
 324:..//Source/stm/lib/STM32L1xx_HAL_Driver/Src/stm32l1xx_hal_flash.c ****       pFlash.Page = 0xFFFFFFFFU;
 325:..//Source/stm/lib/STM32L1xx_HAL_Driver/Src/stm32l1xx_hal_flash.c ****     }
 326:..//Source/stm/lib/STM32L1xx_HAL_Driver/Src/stm32l1xx_hal_flash.c ****     else
 327:..//Source/stm/lib/STM32L1xx_HAL_Driver/Src/stm32l1xx_hal_flash.c ****     {
 328:..//Source/stm/lib/STM32L1xx_HAL_Driver/Src/stm32l1xx_hal_flash.c ****       /* Return the faulty address */
 329:..//Source/stm/lib/STM32L1xx_HAL_Driver/Src/stm32l1xx_hal_flash.c ****       addresstmp = pFlash.Address;
 330:..//Source/stm/lib/STM32L1xx_HAL_Driver/Src/stm32l1xx_hal_flash.c ****     }
 331:..//Source/stm/lib/STM32L1xx_HAL_Driver/Src/stm32l1xx_hal_flash.c ****     /* Save the Error code */
 332:..//Source/stm/lib/STM32L1xx_HAL_Driver/Src/stm32l1xx_hal_flash.c ****     FLASH_SetErrorCode();
 333:..//Source/stm/lib/STM32L1xx_HAL_Driver/Src/stm32l1xx_hal_flash.c ****     
 334:..//Source/stm/lib/STM32L1xx_HAL_Driver/Src/stm32l1xx_hal_flash.c ****     /* FLASH error interrupt user callback */
 335:..//Source/stm/lib/STM32L1xx_HAL_Driver/Src/stm32l1xx_hal_flash.c ****     HAL_FLASH_OperationErrorCallback(addresstmp);
 336:..//Source/stm/lib/STM32L1xx_HAL_Driver/Src/stm32l1xx_hal_flash.c **** 
 337:..//Source/stm/lib/STM32L1xx_HAL_Driver/Src/stm32l1xx_hal_flash.c ****     /* Stop the procedure ongoing */
 338:..//Source/stm/lib/STM32L1xx_HAL_Driver/Src/stm32l1xx_hal_flash.c ****     pFlash.ProcedureOnGoing = FLASH_PROC_NONE;
 339:..//Source/stm/lib/STM32L1xx_HAL_Driver/Src/stm32l1xx_hal_flash.c ****   }
 340:..//Source/stm/lib/STM32L1xx_HAL_Driver/Src/stm32l1xx_hal_flash.c **** 
 341:..//Source/stm/lib/STM32L1xx_HAL_Driver/Src/stm32l1xx_hal_flash.c ****   /* Check FLASH End of Operation flag  */
 342:..//Source/stm/lib/STM32L1xx_HAL_Driver/Src/stm32l1xx_hal_flash.c ****   if(__HAL_FLASH_GET_FLAG(FLASH_FLAG_EOP))
 343:..//Source/stm/lib/STM32L1xx_HAL_Driver/Src/stm32l1xx_hal_flash.c ****   {
 344:..//Source/stm/lib/STM32L1xx_HAL_Driver/Src/stm32l1xx_hal_flash.c ****     /* Clear FLASH End of Operation pending bit */
 345:..//Source/stm/lib/STM32L1xx_HAL_Driver/Src/stm32l1xx_hal_flash.c ****     __HAL_FLASH_CLEAR_FLAG(FLASH_FLAG_EOP);
 346:..//Source/stm/lib/STM32L1xx_HAL_Driver/Src/stm32l1xx_hal_flash.c ****     
 347:..//Source/stm/lib/STM32L1xx_HAL_Driver/Src/stm32l1xx_hal_flash.c ****     /* Process can continue only if no error detected */
 348:..//Source/stm/lib/STM32L1xx_HAL_Driver/Src/stm32l1xx_hal_flash.c ****     if(pFlash.ProcedureOnGoing != FLASH_PROC_NONE)
 349:..//Source/stm/lib/STM32L1xx_HAL_Driver/Src/stm32l1xx_hal_flash.c ****     {
 350:..//Source/stm/lib/STM32L1xx_HAL_Driver/Src/stm32l1xx_hal_flash.c ****       if(pFlash.ProcedureOnGoing == FLASH_PROC_PAGEERASE)
 351:..//Source/stm/lib/STM32L1xx_HAL_Driver/Src/stm32l1xx_hal_flash.c ****       {
 352:..//Source/stm/lib/STM32L1xx_HAL_Driver/Src/stm32l1xx_hal_flash.c ****         /* Nb of pages to erased can be decreased */
 353:..//Source/stm/lib/STM32L1xx_HAL_Driver/Src/stm32l1xx_hal_flash.c ****         pFlash.NbPagesToErase--;
 354:..//Source/stm/lib/STM32L1xx_HAL_Driver/Src/stm32l1xx_hal_flash.c **** 
 355:..//Source/stm/lib/STM32L1xx_HAL_Driver/Src/stm32l1xx_hal_flash.c ****         /* Check if there are still pages to erase */
 356:..//Source/stm/lib/STM32L1xx_HAL_Driver/Src/stm32l1xx_hal_flash.c ****         if(pFlash.NbPagesToErase != 0U)
 357:..//Source/stm/lib/STM32L1xx_HAL_Driver/Src/stm32l1xx_hal_flash.c ****         {
 358:..//Source/stm/lib/STM32L1xx_HAL_Driver/Src/stm32l1xx_hal_flash.c ****           addresstmp = pFlash.Page;
 359:..//Source/stm/lib/STM32L1xx_HAL_Driver/Src/stm32l1xx_hal_flash.c ****           /*Indicate user which sector has been erased */
 360:..//Source/stm/lib/STM32L1xx_HAL_Driver/Src/stm32l1xx_hal_flash.c ****           HAL_FLASH_EndOfOperationCallback(addresstmp);
 361:..//Source/stm/lib/STM32L1xx_HAL_Driver/Src/stm32l1xx_hal_flash.c **** 
 362:..//Source/stm/lib/STM32L1xx_HAL_Driver/Src/stm32l1xx_hal_flash.c ****           /*Increment sector number*/
 363:..//Source/stm/lib/STM32L1xx_HAL_Driver/Src/stm32l1xx_hal_flash.c ****           addresstmp = pFlash.Page + FLASH_PAGE_SIZE;
 364:..//Source/stm/lib/STM32L1xx_HAL_Driver/Src/stm32l1xx_hal_flash.c ****           pFlash.Page = addresstmp;
 365:..//Source/stm/lib/STM32L1xx_HAL_Driver/Src/stm32l1xx_hal_flash.c **** 
 366:..//Source/stm/lib/STM32L1xx_HAL_Driver/Src/stm32l1xx_hal_flash.c ****           /* If the erase operation is completed, disable the ERASE Bit */
 367:..//Source/stm/lib/STM32L1xx_HAL_Driver/Src/stm32l1xx_hal_flash.c ****           CLEAR_BIT(FLASH->PECR, FLASH_PECR_ERASE);
 368:..//Source/stm/lib/STM32L1xx_HAL_Driver/Src/stm32l1xx_hal_flash.c **** 
 369:..//Source/stm/lib/STM32L1xx_HAL_Driver/Src/stm32l1xx_hal_flash.c ****           FLASH_PageErase(addresstmp);
 370:..//Source/stm/lib/STM32L1xx_HAL_Driver/Src/stm32l1xx_hal_flash.c ****         }
 371:..//Source/stm/lib/STM32L1xx_HAL_Driver/Src/stm32l1xx_hal_flash.c ****         else
 372:..//Source/stm/lib/STM32L1xx_HAL_Driver/Src/stm32l1xx_hal_flash.c ****         {
 373:..//Source/stm/lib/STM32L1xx_HAL_Driver/Src/stm32l1xx_hal_flash.c ****           /* No more pages to Erase, user callback can be called. */
 374:..//Source/stm/lib/STM32L1xx_HAL_Driver/Src/stm32l1xx_hal_flash.c ****           /* Reset Sector and stop Erase pages procedure */
 375:..//Source/stm/lib/STM32L1xx_HAL_Driver/Src/stm32l1xx_hal_flash.c ****           pFlash.Page = addresstmp = 0xFFFFFFFFU;
 376:..//Source/stm/lib/STM32L1xx_HAL_Driver/Src/stm32l1xx_hal_flash.c ****           pFlash.ProcedureOnGoing = FLASH_PROC_NONE;
ARM GAS  /tmp/ccUlkaTj.s 			page 8


 377:..//Source/stm/lib/STM32L1xx_HAL_Driver/Src/stm32l1xx_hal_flash.c ****           /* FLASH EOP interrupt user callback */
 378:..//Source/stm/lib/STM32L1xx_HAL_Driver/Src/stm32l1xx_hal_flash.c ****           HAL_FLASH_EndOfOperationCallback(addresstmp);
 379:..//Source/stm/lib/STM32L1xx_HAL_Driver/Src/stm32l1xx_hal_flash.c ****         }
 380:..//Source/stm/lib/STM32L1xx_HAL_Driver/Src/stm32l1xx_hal_flash.c ****       }
 381:..//Source/stm/lib/STM32L1xx_HAL_Driver/Src/stm32l1xx_hal_flash.c ****       else
 382:..//Source/stm/lib/STM32L1xx_HAL_Driver/Src/stm32l1xx_hal_flash.c ****       {
 383:..//Source/stm/lib/STM32L1xx_HAL_Driver/Src/stm32l1xx_hal_flash.c ****           /* If the program operation is completed, disable the PROG Bit */
 384:..//Source/stm/lib/STM32L1xx_HAL_Driver/Src/stm32l1xx_hal_flash.c ****           CLEAR_BIT(FLASH->PECR, FLASH_PECR_PROG);
 385:..//Source/stm/lib/STM32L1xx_HAL_Driver/Src/stm32l1xx_hal_flash.c **** 
 386:..//Source/stm/lib/STM32L1xx_HAL_Driver/Src/stm32l1xx_hal_flash.c ****           /* Program ended. Return the selected address */
 387:..//Source/stm/lib/STM32L1xx_HAL_Driver/Src/stm32l1xx_hal_flash.c ****           /* FLASH EOP interrupt user callback */
 388:..//Source/stm/lib/STM32L1xx_HAL_Driver/Src/stm32l1xx_hal_flash.c ****           HAL_FLASH_EndOfOperationCallback(pFlash.Address);
 389:..//Source/stm/lib/STM32L1xx_HAL_Driver/Src/stm32l1xx_hal_flash.c ****         
 390:..//Source/stm/lib/STM32L1xx_HAL_Driver/Src/stm32l1xx_hal_flash.c ****           /* Reset Address and stop Program procedure */
 391:..//Source/stm/lib/STM32L1xx_HAL_Driver/Src/stm32l1xx_hal_flash.c ****           pFlash.Address = 0xFFFFFFFFU;
 392:..//Source/stm/lib/STM32L1xx_HAL_Driver/Src/stm32l1xx_hal_flash.c ****           pFlash.ProcedureOnGoing = FLASH_PROC_NONE;
 393:..//Source/stm/lib/STM32L1xx_HAL_Driver/Src/stm32l1xx_hal_flash.c ****       }
 394:..//Source/stm/lib/STM32L1xx_HAL_Driver/Src/stm32l1xx_hal_flash.c ****     }
 395:..//Source/stm/lib/STM32L1xx_HAL_Driver/Src/stm32l1xx_hal_flash.c ****   }
 396:..//Source/stm/lib/STM32L1xx_HAL_Driver/Src/stm32l1xx_hal_flash.c ****   
 397:..//Source/stm/lib/STM32L1xx_HAL_Driver/Src/stm32l1xx_hal_flash.c **** 
 398:..//Source/stm/lib/STM32L1xx_HAL_Driver/Src/stm32l1xx_hal_flash.c ****   if(pFlash.ProcedureOnGoing == FLASH_PROC_NONE)
 399:..//Source/stm/lib/STM32L1xx_HAL_Driver/Src/stm32l1xx_hal_flash.c ****   {
 400:..//Source/stm/lib/STM32L1xx_HAL_Driver/Src/stm32l1xx_hal_flash.c ****     /* Operation is completed, disable the PROG and ERASE */
 401:..//Source/stm/lib/STM32L1xx_HAL_Driver/Src/stm32l1xx_hal_flash.c ****     CLEAR_BIT(FLASH->PECR, (FLASH_PECR_ERASE | FLASH_PECR_PROG));
 402:..//Source/stm/lib/STM32L1xx_HAL_Driver/Src/stm32l1xx_hal_flash.c **** 
 403:..//Source/stm/lib/STM32L1xx_HAL_Driver/Src/stm32l1xx_hal_flash.c ****     /* Disable End of FLASH Operation and Error source interrupts */
 404:..//Source/stm/lib/STM32L1xx_HAL_Driver/Src/stm32l1xx_hal_flash.c ****     __HAL_FLASH_DISABLE_IT(FLASH_IT_EOP | FLASH_IT_ERR);
 405:..//Source/stm/lib/STM32L1xx_HAL_Driver/Src/stm32l1xx_hal_flash.c **** 
 406:..//Source/stm/lib/STM32L1xx_HAL_Driver/Src/stm32l1xx_hal_flash.c ****     /* Process Unlocked */
 407:..//Source/stm/lib/STM32L1xx_HAL_Driver/Src/stm32l1xx_hal_flash.c ****     __HAL_UNLOCK(&pFlash);
 408:..//Source/stm/lib/STM32L1xx_HAL_Driver/Src/stm32l1xx_hal_flash.c ****   }
 409:..//Source/stm/lib/STM32L1xx_HAL_Driver/Src/stm32l1xx_hal_flash.c **** }
 410:..//Source/stm/lib/STM32L1xx_HAL_Driver/Src/stm32l1xx_hal_flash.c **** 
 411:..//Source/stm/lib/STM32L1xx_HAL_Driver/Src/stm32l1xx_hal_flash.c **** /**
 412:..//Source/stm/lib/STM32L1xx_HAL_Driver/Src/stm32l1xx_hal_flash.c ****   * @brief  FLASH end of operation interrupt callback
 413:..//Source/stm/lib/STM32L1xx_HAL_Driver/Src/stm32l1xx_hal_flash.c ****   * @param  ReturnValue The value saved in this parameter depends on the ongoing procedure
 414:..//Source/stm/lib/STM32L1xx_HAL_Driver/Src/stm32l1xx_hal_flash.c ****   *                 - Pages Erase: Address of the page which has been erased 
 415:..//Source/stm/lib/STM32L1xx_HAL_Driver/Src/stm32l1xx_hal_flash.c ****   *                    (if 0xFFFFFFFF, it means that all the selected pages have been erased)
 416:..//Source/stm/lib/STM32L1xx_HAL_Driver/Src/stm32l1xx_hal_flash.c ****   *                 - Program: Address which was selected for data program
 417:..//Source/stm/lib/STM32L1xx_HAL_Driver/Src/stm32l1xx_hal_flash.c ****   * @retval none
 418:..//Source/stm/lib/STM32L1xx_HAL_Driver/Src/stm32l1xx_hal_flash.c ****   */
 419:..//Source/stm/lib/STM32L1xx_HAL_Driver/Src/stm32l1xx_hal_flash.c **** __weak void HAL_FLASH_EndOfOperationCallback(uint32_t ReturnValue)
 420:..//Source/stm/lib/STM32L1xx_HAL_Driver/Src/stm32l1xx_hal_flash.c **** {
 421:..//Source/stm/lib/STM32L1xx_HAL_Driver/Src/stm32l1xx_hal_flash.c ****   /* Prevent unused argument(s) compilation warning */
 422:..//Source/stm/lib/STM32L1xx_HAL_Driver/Src/stm32l1xx_hal_flash.c ****   UNUSED(ReturnValue);
 423:..//Source/stm/lib/STM32L1xx_HAL_Driver/Src/stm32l1xx_hal_flash.c **** 
 424:..//Source/stm/lib/STM32L1xx_HAL_Driver/Src/stm32l1xx_hal_flash.c ****   /* NOTE : This function Should not be modified, when the callback is needed,
 425:..//Source/stm/lib/STM32L1xx_HAL_Driver/Src/stm32l1xx_hal_flash.c ****             the HAL_FLASH_EndOfOperationCallback could be implemented in the user file
 426:..//Source/stm/lib/STM32L1xx_HAL_Driver/Src/stm32l1xx_hal_flash.c ****    */ 
 427:..//Source/stm/lib/STM32L1xx_HAL_Driver/Src/stm32l1xx_hal_flash.c **** }
 428:..//Source/stm/lib/STM32L1xx_HAL_Driver/Src/stm32l1xx_hal_flash.c **** 
 429:..//Source/stm/lib/STM32L1xx_HAL_Driver/Src/stm32l1xx_hal_flash.c **** /**
 430:..//Source/stm/lib/STM32L1xx_HAL_Driver/Src/stm32l1xx_hal_flash.c ****   * @brief  FLASH operation error interrupt callback
 431:..//Source/stm/lib/STM32L1xx_HAL_Driver/Src/stm32l1xx_hal_flash.c ****   * @param  ReturnValue The value saved in this parameter depends on the ongoing procedure
 432:..//Source/stm/lib/STM32L1xx_HAL_Driver/Src/stm32l1xx_hal_flash.c ****   *                 - Pages Erase: Address of the page which returned an error
 433:..//Source/stm/lib/STM32L1xx_HAL_Driver/Src/stm32l1xx_hal_flash.c ****   *                 - Program: Address which was selected for data program
ARM GAS  /tmp/ccUlkaTj.s 			page 9


 434:..//Source/stm/lib/STM32L1xx_HAL_Driver/Src/stm32l1xx_hal_flash.c ****   * @retval none
 435:..//Source/stm/lib/STM32L1xx_HAL_Driver/Src/stm32l1xx_hal_flash.c ****   */
 436:..//Source/stm/lib/STM32L1xx_HAL_Driver/Src/stm32l1xx_hal_flash.c **** __weak void HAL_FLASH_OperationErrorCallback(uint32_t ReturnValue)
 437:..//Source/stm/lib/STM32L1xx_HAL_Driver/Src/stm32l1xx_hal_flash.c **** {
 438:..//Source/stm/lib/STM32L1xx_HAL_Driver/Src/stm32l1xx_hal_flash.c ****   /* Prevent unused argument(s) compilation warning */
 439:..//Source/stm/lib/STM32L1xx_HAL_Driver/Src/stm32l1xx_hal_flash.c ****   UNUSED(ReturnValue);
 440:..//Source/stm/lib/STM32L1xx_HAL_Driver/Src/stm32l1xx_hal_flash.c **** 
 441:..//Source/stm/lib/STM32L1xx_HAL_Driver/Src/stm32l1xx_hal_flash.c ****   /* NOTE : This function Should not be modified, when the callback is needed,
 442:..//Source/stm/lib/STM32L1xx_HAL_Driver/Src/stm32l1xx_hal_flash.c ****             the HAL_FLASH_OperationErrorCallback could be implemented in the user file
 443:..//Source/stm/lib/STM32L1xx_HAL_Driver/Src/stm32l1xx_hal_flash.c ****    */ 
 444:..//Source/stm/lib/STM32L1xx_HAL_Driver/Src/stm32l1xx_hal_flash.c **** }
 445:..//Source/stm/lib/STM32L1xx_HAL_Driver/Src/stm32l1xx_hal_flash.c **** 
 446:..//Source/stm/lib/STM32L1xx_HAL_Driver/Src/stm32l1xx_hal_flash.c **** /**
 447:..//Source/stm/lib/STM32L1xx_HAL_Driver/Src/stm32l1xx_hal_flash.c ****   * @}
 448:..//Source/stm/lib/STM32L1xx_HAL_Driver/Src/stm32l1xx_hal_flash.c ****   */
 449:..//Source/stm/lib/STM32L1xx_HAL_Driver/Src/stm32l1xx_hal_flash.c **** 
 450:..//Source/stm/lib/STM32L1xx_HAL_Driver/Src/stm32l1xx_hal_flash.c **** /** @defgroup FLASH_Exported_Functions_Group2 Peripheral Control functions 
 451:..//Source/stm/lib/STM32L1xx_HAL_Driver/Src/stm32l1xx_hal_flash.c ****  *  @brief   management functions 
 452:..//Source/stm/lib/STM32L1xx_HAL_Driver/Src/stm32l1xx_hal_flash.c ****  *
 453:..//Source/stm/lib/STM32L1xx_HAL_Driver/Src/stm32l1xx_hal_flash.c **** @verbatim   
 454:..//Source/stm/lib/STM32L1xx_HAL_Driver/Src/stm32l1xx_hal_flash.c ****  ===============================================================================
 455:..//Source/stm/lib/STM32L1xx_HAL_Driver/Src/stm32l1xx_hal_flash.c ****                       ##### Peripheral Control functions #####
 456:..//Source/stm/lib/STM32L1xx_HAL_Driver/Src/stm32l1xx_hal_flash.c ****  ===============================================================================  
 457:..//Source/stm/lib/STM32L1xx_HAL_Driver/Src/stm32l1xx_hal_flash.c ****     [..]
 458:..//Source/stm/lib/STM32L1xx_HAL_Driver/Src/stm32l1xx_hal_flash.c ****     This subsection provides a set of functions allowing to control the FLASH 
 459:..//Source/stm/lib/STM32L1xx_HAL_Driver/Src/stm32l1xx_hal_flash.c ****     memory operations.
 460:..//Source/stm/lib/STM32L1xx_HAL_Driver/Src/stm32l1xx_hal_flash.c **** 
 461:..//Source/stm/lib/STM32L1xx_HAL_Driver/Src/stm32l1xx_hal_flash.c **** @endverbatim
 462:..//Source/stm/lib/STM32L1xx_HAL_Driver/Src/stm32l1xx_hal_flash.c ****   * @{
 463:..//Source/stm/lib/STM32L1xx_HAL_Driver/Src/stm32l1xx_hal_flash.c ****   */
 464:..//Source/stm/lib/STM32L1xx_HAL_Driver/Src/stm32l1xx_hal_flash.c **** 
 465:..//Source/stm/lib/STM32L1xx_HAL_Driver/Src/stm32l1xx_hal_flash.c **** /**
 466:..//Source/stm/lib/STM32L1xx_HAL_Driver/Src/stm32l1xx_hal_flash.c ****   * @brief  Unlock the FLASH control register access
 467:..//Source/stm/lib/STM32L1xx_HAL_Driver/Src/stm32l1xx_hal_flash.c ****   * @retval HAL Status
 468:..//Source/stm/lib/STM32L1xx_HAL_Driver/Src/stm32l1xx_hal_flash.c ****   */
 469:..//Source/stm/lib/STM32L1xx_HAL_Driver/Src/stm32l1xx_hal_flash.c **** HAL_StatusTypeDef HAL_FLASH_Unlock(void)
 470:..//Source/stm/lib/STM32L1xx_HAL_Driver/Src/stm32l1xx_hal_flash.c **** {
 471:..//Source/stm/lib/STM32L1xx_HAL_Driver/Src/stm32l1xx_hal_flash.c ****   if (HAL_IS_BIT_SET(FLASH->PECR, FLASH_PECR_PRGLOCK))
 472:..//Source/stm/lib/STM32L1xx_HAL_Driver/Src/stm32l1xx_hal_flash.c ****   {
 473:..//Source/stm/lib/STM32L1xx_HAL_Driver/Src/stm32l1xx_hal_flash.c ****     /* Unlocking FLASH_PECR register access*/
 474:..//Source/stm/lib/STM32L1xx_HAL_Driver/Src/stm32l1xx_hal_flash.c ****     if(HAL_IS_BIT_SET(FLASH->PECR, FLASH_PECR_PELOCK))
 475:..//Source/stm/lib/STM32L1xx_HAL_Driver/Src/stm32l1xx_hal_flash.c ****     {  
 476:..//Source/stm/lib/STM32L1xx_HAL_Driver/Src/stm32l1xx_hal_flash.c ****       WRITE_REG(FLASH->PEKEYR, FLASH_PEKEY1);
 477:..//Source/stm/lib/STM32L1xx_HAL_Driver/Src/stm32l1xx_hal_flash.c ****       WRITE_REG(FLASH->PEKEYR, FLASH_PEKEY2);
 478:..//Source/stm/lib/STM32L1xx_HAL_Driver/Src/stm32l1xx_hal_flash.c ****       
 479:..//Source/stm/lib/STM32L1xx_HAL_Driver/Src/stm32l1xx_hal_flash.c ****       /* Verify that PELOCK is unlocked */
 480:..//Source/stm/lib/STM32L1xx_HAL_Driver/Src/stm32l1xx_hal_flash.c ****       if(HAL_IS_BIT_SET(FLASH->PECR, FLASH_PECR_PELOCK))
 481:..//Source/stm/lib/STM32L1xx_HAL_Driver/Src/stm32l1xx_hal_flash.c ****       {
 482:..//Source/stm/lib/STM32L1xx_HAL_Driver/Src/stm32l1xx_hal_flash.c ****         return HAL_ERROR;
 483:..//Source/stm/lib/STM32L1xx_HAL_Driver/Src/stm32l1xx_hal_flash.c ****       }
 484:..//Source/stm/lib/STM32L1xx_HAL_Driver/Src/stm32l1xx_hal_flash.c ****     }
 485:..//Source/stm/lib/STM32L1xx_HAL_Driver/Src/stm32l1xx_hal_flash.c ****     
 486:..//Source/stm/lib/STM32L1xx_HAL_Driver/Src/stm32l1xx_hal_flash.c ****     /* Unlocking the program memory access */
 487:..//Source/stm/lib/STM32L1xx_HAL_Driver/Src/stm32l1xx_hal_flash.c ****     WRITE_REG(FLASH->PRGKEYR, FLASH_PRGKEY1);
 488:..//Source/stm/lib/STM32L1xx_HAL_Driver/Src/stm32l1xx_hal_flash.c ****     WRITE_REG(FLASH->PRGKEYR, FLASH_PRGKEY2);  
 489:..//Source/stm/lib/STM32L1xx_HAL_Driver/Src/stm32l1xx_hal_flash.c ****     
 490:..//Source/stm/lib/STM32L1xx_HAL_Driver/Src/stm32l1xx_hal_flash.c ****     /* Verify that PRGLOCK is unlocked */
ARM GAS  /tmp/ccUlkaTj.s 			page 10


 491:..//Source/stm/lib/STM32L1xx_HAL_Driver/Src/stm32l1xx_hal_flash.c ****     if (HAL_IS_BIT_SET(FLASH->PECR, FLASH_PECR_PRGLOCK))
 492:..//Source/stm/lib/STM32L1xx_HAL_Driver/Src/stm32l1xx_hal_flash.c ****     {
 493:..//Source/stm/lib/STM32L1xx_HAL_Driver/Src/stm32l1xx_hal_flash.c ****       return HAL_ERROR;
 494:..//Source/stm/lib/STM32L1xx_HAL_Driver/Src/stm32l1xx_hal_flash.c ****     }
 495:..//Source/stm/lib/STM32L1xx_HAL_Driver/Src/stm32l1xx_hal_flash.c ****   }
 496:..//Source/stm/lib/STM32L1xx_HAL_Driver/Src/stm32l1xx_hal_flash.c ****   
 497:..//Source/stm/lib/STM32L1xx_HAL_Driver/Src/stm32l1xx_hal_flash.c ****   return HAL_OK; 
 498:..//Source/stm/lib/STM32L1xx_HAL_Driver/Src/stm32l1xx_hal_flash.c **** }
 499:..//Source/stm/lib/STM32L1xx_HAL_Driver/Src/stm32l1xx_hal_flash.c **** 
 500:..//Source/stm/lib/STM32L1xx_HAL_Driver/Src/stm32l1xx_hal_flash.c **** /**
 501:..//Source/stm/lib/STM32L1xx_HAL_Driver/Src/stm32l1xx_hal_flash.c ****   * @brief  Locks the FLASH control register access
 502:..//Source/stm/lib/STM32L1xx_HAL_Driver/Src/stm32l1xx_hal_flash.c ****   * @retval HAL Status
 503:..//Source/stm/lib/STM32L1xx_HAL_Driver/Src/stm32l1xx_hal_flash.c ****   */
 504:..//Source/stm/lib/STM32L1xx_HAL_Driver/Src/stm32l1xx_hal_flash.c **** HAL_StatusTypeDef HAL_FLASH_Lock(void)
 505:..//Source/stm/lib/STM32L1xx_HAL_Driver/Src/stm32l1xx_hal_flash.c **** {
 506:..//Source/stm/lib/STM32L1xx_HAL_Driver/Src/stm32l1xx_hal_flash.c ****   /* Set the PRGLOCK Bit to lock the FLASH Registers access */
 507:..//Source/stm/lib/STM32L1xx_HAL_Driver/Src/stm32l1xx_hal_flash.c ****   SET_BIT(FLASH->PECR, FLASH_PECR_PRGLOCK);
 508:..//Source/stm/lib/STM32L1xx_HAL_Driver/Src/stm32l1xx_hal_flash.c ****   
 509:..//Source/stm/lib/STM32L1xx_HAL_Driver/Src/stm32l1xx_hal_flash.c ****   return HAL_OK;  
 510:..//Source/stm/lib/STM32L1xx_HAL_Driver/Src/stm32l1xx_hal_flash.c **** }
 511:..//Source/stm/lib/STM32L1xx_HAL_Driver/Src/stm32l1xx_hal_flash.c **** 
 512:..//Source/stm/lib/STM32L1xx_HAL_Driver/Src/stm32l1xx_hal_flash.c **** /**
 513:..//Source/stm/lib/STM32L1xx_HAL_Driver/Src/stm32l1xx_hal_flash.c ****   * @brief  Unlock the FLASH Option Control Registers access.
 514:..//Source/stm/lib/STM32L1xx_HAL_Driver/Src/stm32l1xx_hal_flash.c ****   * @retval HAL Status
 515:..//Source/stm/lib/STM32L1xx_HAL_Driver/Src/stm32l1xx_hal_flash.c ****   */
 516:..//Source/stm/lib/STM32L1xx_HAL_Driver/Src/stm32l1xx_hal_flash.c **** HAL_StatusTypeDef HAL_FLASH_OB_Unlock(void)
 517:..//Source/stm/lib/STM32L1xx_HAL_Driver/Src/stm32l1xx_hal_flash.c **** {
 518:..//Source/stm/lib/STM32L1xx_HAL_Driver/Src/stm32l1xx_hal_flash.c ****   if(HAL_IS_BIT_SET(FLASH->PECR, FLASH_PECR_OPTLOCK))
 519:..//Source/stm/lib/STM32L1xx_HAL_Driver/Src/stm32l1xx_hal_flash.c ****   {
 520:..//Source/stm/lib/STM32L1xx_HAL_Driver/Src/stm32l1xx_hal_flash.c ****     /* Unlocking FLASH_PECR register access*/
 521:..//Source/stm/lib/STM32L1xx_HAL_Driver/Src/stm32l1xx_hal_flash.c ****     if(HAL_IS_BIT_SET(FLASH->PECR, FLASH_PECR_PELOCK))
 522:..//Source/stm/lib/STM32L1xx_HAL_Driver/Src/stm32l1xx_hal_flash.c ****     {  
 523:..//Source/stm/lib/STM32L1xx_HAL_Driver/Src/stm32l1xx_hal_flash.c ****       /* Unlocking FLASH_PECR register access*/
 524:..//Source/stm/lib/STM32L1xx_HAL_Driver/Src/stm32l1xx_hal_flash.c ****       WRITE_REG(FLASH->PEKEYR, FLASH_PEKEY1);
 525:..//Source/stm/lib/STM32L1xx_HAL_Driver/Src/stm32l1xx_hal_flash.c ****       WRITE_REG(FLASH->PEKEYR, FLASH_PEKEY2);
 526:..//Source/stm/lib/STM32L1xx_HAL_Driver/Src/stm32l1xx_hal_flash.c **** 
 527:..//Source/stm/lib/STM32L1xx_HAL_Driver/Src/stm32l1xx_hal_flash.c ****       /* Verify that PELOCK is unlocked */
 528:..//Source/stm/lib/STM32L1xx_HAL_Driver/Src/stm32l1xx_hal_flash.c ****       if(HAL_IS_BIT_SET(FLASH->PECR, FLASH_PECR_PELOCK))
 529:..//Source/stm/lib/STM32L1xx_HAL_Driver/Src/stm32l1xx_hal_flash.c ****       {
 530:..//Source/stm/lib/STM32L1xx_HAL_Driver/Src/stm32l1xx_hal_flash.c ****         return HAL_ERROR;
 531:..//Source/stm/lib/STM32L1xx_HAL_Driver/Src/stm32l1xx_hal_flash.c ****       }
 532:..//Source/stm/lib/STM32L1xx_HAL_Driver/Src/stm32l1xx_hal_flash.c ****     }
 533:..//Source/stm/lib/STM32L1xx_HAL_Driver/Src/stm32l1xx_hal_flash.c **** 
 534:..//Source/stm/lib/STM32L1xx_HAL_Driver/Src/stm32l1xx_hal_flash.c ****     /* Unlocking the option bytes block access */
 535:..//Source/stm/lib/STM32L1xx_HAL_Driver/Src/stm32l1xx_hal_flash.c ****     WRITE_REG(FLASH->OPTKEYR, FLASH_OPTKEY1);
 536:..//Source/stm/lib/STM32L1xx_HAL_Driver/Src/stm32l1xx_hal_flash.c ****     WRITE_REG(FLASH->OPTKEYR, FLASH_OPTKEY2);
 537:..//Source/stm/lib/STM32L1xx_HAL_Driver/Src/stm32l1xx_hal_flash.c **** 
 538:..//Source/stm/lib/STM32L1xx_HAL_Driver/Src/stm32l1xx_hal_flash.c ****     /* Verify that OPTLOCK is unlocked */
 539:..//Source/stm/lib/STM32L1xx_HAL_Driver/Src/stm32l1xx_hal_flash.c ****     if (HAL_IS_BIT_SET(FLASH->PECR, FLASH_PECR_OPTLOCK))
 540:..//Source/stm/lib/STM32L1xx_HAL_Driver/Src/stm32l1xx_hal_flash.c ****     {
 541:..//Source/stm/lib/STM32L1xx_HAL_Driver/Src/stm32l1xx_hal_flash.c ****       return HAL_ERROR;
 542:..//Source/stm/lib/STM32L1xx_HAL_Driver/Src/stm32l1xx_hal_flash.c ****     }
 543:..//Source/stm/lib/STM32L1xx_HAL_Driver/Src/stm32l1xx_hal_flash.c ****   }
 544:..//Source/stm/lib/STM32L1xx_HAL_Driver/Src/stm32l1xx_hal_flash.c ****   
 545:..//Source/stm/lib/STM32L1xx_HAL_Driver/Src/stm32l1xx_hal_flash.c ****   return HAL_OK;  
 546:..//Source/stm/lib/STM32L1xx_HAL_Driver/Src/stm32l1xx_hal_flash.c **** }
 547:..//Source/stm/lib/STM32L1xx_HAL_Driver/Src/stm32l1xx_hal_flash.c **** 
ARM GAS  /tmp/ccUlkaTj.s 			page 11


 548:..//Source/stm/lib/STM32L1xx_HAL_Driver/Src/stm32l1xx_hal_flash.c **** /**
 549:..//Source/stm/lib/STM32L1xx_HAL_Driver/Src/stm32l1xx_hal_flash.c ****   * @brief  Lock the FLASH Option Control Registers access.
 550:..//Source/stm/lib/STM32L1xx_HAL_Driver/Src/stm32l1xx_hal_flash.c ****   * @retval HAL Status 
 551:..//Source/stm/lib/STM32L1xx_HAL_Driver/Src/stm32l1xx_hal_flash.c ****   */
 552:..//Source/stm/lib/STM32L1xx_HAL_Driver/Src/stm32l1xx_hal_flash.c **** HAL_StatusTypeDef HAL_FLASH_OB_Lock(void)
 553:..//Source/stm/lib/STM32L1xx_HAL_Driver/Src/stm32l1xx_hal_flash.c **** {
 554:..//Source/stm/lib/STM32L1xx_HAL_Driver/Src/stm32l1xx_hal_flash.c ****   /* Set the OPTLOCK Bit to lock the option bytes block access */
 555:..//Source/stm/lib/STM32L1xx_HAL_Driver/Src/stm32l1xx_hal_flash.c ****   SET_BIT(FLASH->PECR, FLASH_PECR_OPTLOCK);
 556:..//Source/stm/lib/STM32L1xx_HAL_Driver/Src/stm32l1xx_hal_flash.c ****   
 557:..//Source/stm/lib/STM32L1xx_HAL_Driver/Src/stm32l1xx_hal_flash.c ****   return HAL_OK;  
 558:..//Source/stm/lib/STM32L1xx_HAL_Driver/Src/stm32l1xx_hal_flash.c **** }
 559:..//Source/stm/lib/STM32L1xx_HAL_Driver/Src/stm32l1xx_hal_flash.c ****   
 560:..//Source/stm/lib/STM32L1xx_HAL_Driver/Src/stm32l1xx_hal_flash.c **** /**
 561:..//Source/stm/lib/STM32L1xx_HAL_Driver/Src/stm32l1xx_hal_flash.c ****   * @brief  Launch the option byte loading.
 562:..//Source/stm/lib/STM32L1xx_HAL_Driver/Src/stm32l1xx_hal_flash.c ****   * @note   This function will reset automatically the MCU.
 563:..//Source/stm/lib/STM32L1xx_HAL_Driver/Src/stm32l1xx_hal_flash.c ****   * @retval HAL Status
 564:..//Source/stm/lib/STM32L1xx_HAL_Driver/Src/stm32l1xx_hal_flash.c ****   */
 565:..//Source/stm/lib/STM32L1xx_HAL_Driver/Src/stm32l1xx_hal_flash.c **** HAL_StatusTypeDef HAL_FLASH_OB_Launch(void)
 566:..//Source/stm/lib/STM32L1xx_HAL_Driver/Src/stm32l1xx_hal_flash.c **** {
 567:..//Source/stm/lib/STM32L1xx_HAL_Driver/Src/stm32l1xx_hal_flash.c ****   /* Set the OBL_Launch bit to launch the option byte loading */
 568:..//Source/stm/lib/STM32L1xx_HAL_Driver/Src/stm32l1xx_hal_flash.c ****   SET_BIT(FLASH->PECR, FLASH_PECR_OBL_LAUNCH);
 569:..//Source/stm/lib/STM32L1xx_HAL_Driver/Src/stm32l1xx_hal_flash.c ****   
 570:..//Source/stm/lib/STM32L1xx_HAL_Driver/Src/stm32l1xx_hal_flash.c ****   /* Wait for last operation to be completed */
 571:..//Source/stm/lib/STM32L1xx_HAL_Driver/Src/stm32l1xx_hal_flash.c ****   return(FLASH_WaitForLastOperation(FLASH_TIMEOUT_VALUE));
 572:..//Source/stm/lib/STM32L1xx_HAL_Driver/Src/stm32l1xx_hal_flash.c **** }
 573:..//Source/stm/lib/STM32L1xx_HAL_Driver/Src/stm32l1xx_hal_flash.c **** 
 574:..//Source/stm/lib/STM32L1xx_HAL_Driver/Src/stm32l1xx_hal_flash.c **** /**
 575:..//Source/stm/lib/STM32L1xx_HAL_Driver/Src/stm32l1xx_hal_flash.c ****   * @}
 576:..//Source/stm/lib/STM32L1xx_HAL_Driver/Src/stm32l1xx_hal_flash.c ****   */  
 577:..//Source/stm/lib/STM32L1xx_HAL_Driver/Src/stm32l1xx_hal_flash.c **** 
 578:..//Source/stm/lib/STM32L1xx_HAL_Driver/Src/stm32l1xx_hal_flash.c **** /** @defgroup FLASH_Exported_Functions_Group3 Peripheral errors functions 
 579:..//Source/stm/lib/STM32L1xx_HAL_Driver/Src/stm32l1xx_hal_flash.c ****  *  @brief    Peripheral errors functions 
 580:..//Source/stm/lib/STM32L1xx_HAL_Driver/Src/stm32l1xx_hal_flash.c ****  *
 581:..//Source/stm/lib/STM32L1xx_HAL_Driver/Src/stm32l1xx_hal_flash.c **** @verbatim   
 582:..//Source/stm/lib/STM32L1xx_HAL_Driver/Src/stm32l1xx_hal_flash.c ****  ===============================================================================
 583:..//Source/stm/lib/STM32L1xx_HAL_Driver/Src/stm32l1xx_hal_flash.c ****                       ##### Peripheral Errors functions #####
 584:..//Source/stm/lib/STM32L1xx_HAL_Driver/Src/stm32l1xx_hal_flash.c ****  ===============================================================================  
 585:..//Source/stm/lib/STM32L1xx_HAL_Driver/Src/stm32l1xx_hal_flash.c ****     [..]
 586:..//Source/stm/lib/STM32L1xx_HAL_Driver/Src/stm32l1xx_hal_flash.c ****     This subsection permit to get in run-time errors of  the FLASH peripheral.
 587:..//Source/stm/lib/STM32L1xx_HAL_Driver/Src/stm32l1xx_hal_flash.c **** 
 588:..//Source/stm/lib/STM32L1xx_HAL_Driver/Src/stm32l1xx_hal_flash.c **** @endverbatim
 589:..//Source/stm/lib/STM32L1xx_HAL_Driver/Src/stm32l1xx_hal_flash.c ****   * @{
 590:..//Source/stm/lib/STM32L1xx_HAL_Driver/Src/stm32l1xx_hal_flash.c ****   */
 591:..//Source/stm/lib/STM32L1xx_HAL_Driver/Src/stm32l1xx_hal_flash.c **** 
 592:..//Source/stm/lib/STM32L1xx_HAL_Driver/Src/stm32l1xx_hal_flash.c **** /**
 593:..//Source/stm/lib/STM32L1xx_HAL_Driver/Src/stm32l1xx_hal_flash.c ****   * @brief  Get the specific FLASH error flag.
 594:..//Source/stm/lib/STM32L1xx_HAL_Driver/Src/stm32l1xx_hal_flash.c ****   * @retval FLASH_ErrorCode The returned value can be:
 595:..//Source/stm/lib/STM32L1xx_HAL_Driver/Src/stm32l1xx_hal_flash.c ****   *            @ref FLASH_Error_Codes
 596:..//Source/stm/lib/STM32L1xx_HAL_Driver/Src/stm32l1xx_hal_flash.c ****   */
 597:..//Source/stm/lib/STM32L1xx_HAL_Driver/Src/stm32l1xx_hal_flash.c **** uint32_t HAL_FLASH_GetError(void)
 598:..//Source/stm/lib/STM32L1xx_HAL_Driver/Src/stm32l1xx_hal_flash.c **** {
 599:..//Source/stm/lib/STM32L1xx_HAL_Driver/Src/stm32l1xx_hal_flash.c ****    return pFlash.ErrorCode;
 600:..//Source/stm/lib/STM32L1xx_HAL_Driver/Src/stm32l1xx_hal_flash.c **** }
 601:..//Source/stm/lib/STM32L1xx_HAL_Driver/Src/stm32l1xx_hal_flash.c **** 
 602:..//Source/stm/lib/STM32L1xx_HAL_Driver/Src/stm32l1xx_hal_flash.c **** /**
 603:..//Source/stm/lib/STM32L1xx_HAL_Driver/Src/stm32l1xx_hal_flash.c ****   * @}
 604:..//Source/stm/lib/STM32L1xx_HAL_Driver/Src/stm32l1xx_hal_flash.c ****   */
ARM GAS  /tmp/ccUlkaTj.s 			page 12


 605:..//Source/stm/lib/STM32L1xx_HAL_Driver/Src/stm32l1xx_hal_flash.c **** 
 606:..//Source/stm/lib/STM32L1xx_HAL_Driver/Src/stm32l1xx_hal_flash.c **** /**
 607:..//Source/stm/lib/STM32L1xx_HAL_Driver/Src/stm32l1xx_hal_flash.c ****   * @}
 608:..//Source/stm/lib/STM32L1xx_HAL_Driver/Src/stm32l1xx_hal_flash.c ****   */
 609:..//Source/stm/lib/STM32L1xx_HAL_Driver/Src/stm32l1xx_hal_flash.c **** 
 610:..//Source/stm/lib/STM32L1xx_HAL_Driver/Src/stm32l1xx_hal_flash.c **** /** @addtogroup FLASH_Private_Functions
 611:..//Source/stm/lib/STM32L1xx_HAL_Driver/Src/stm32l1xx_hal_flash.c ****  * @{
 612:..//Source/stm/lib/STM32L1xx_HAL_Driver/Src/stm32l1xx_hal_flash.c ****  */
 613:..//Source/stm/lib/STM32L1xx_HAL_Driver/Src/stm32l1xx_hal_flash.c **** 
 614:..//Source/stm/lib/STM32L1xx_HAL_Driver/Src/stm32l1xx_hal_flash.c **** /**
 615:..//Source/stm/lib/STM32L1xx_HAL_Driver/Src/stm32l1xx_hal_flash.c ****   * @brief  Wait for a FLASH operation to complete.
 616:..//Source/stm/lib/STM32L1xx_HAL_Driver/Src/stm32l1xx_hal_flash.c ****   * @param  Timeout  maximum flash operation timeout
 617:..//Source/stm/lib/STM32L1xx_HAL_Driver/Src/stm32l1xx_hal_flash.c ****   * @retval HAL Status
 618:..//Source/stm/lib/STM32L1xx_HAL_Driver/Src/stm32l1xx_hal_flash.c ****   */
 619:..//Source/stm/lib/STM32L1xx_HAL_Driver/Src/stm32l1xx_hal_flash.c **** HAL_StatusTypeDef FLASH_WaitForLastOperation(uint32_t Timeout)
 620:..//Source/stm/lib/STM32L1xx_HAL_Driver/Src/stm32l1xx_hal_flash.c **** {
 621:..//Source/stm/lib/STM32L1xx_HAL_Driver/Src/stm32l1xx_hal_flash.c ****   /* Wait for the FLASH operation to complete by polling on BUSY flag to be reset.
 622:..//Source/stm/lib/STM32L1xx_HAL_Driver/Src/stm32l1xx_hal_flash.c ****      Even if the FLASH operation fails, the BUSY flag will be reset and an error
 623:..//Source/stm/lib/STM32L1xx_HAL_Driver/Src/stm32l1xx_hal_flash.c ****      flag will be set */
 624:..//Source/stm/lib/STM32L1xx_HAL_Driver/Src/stm32l1xx_hal_flash.c ****      
 625:..//Source/stm/lib/STM32L1xx_HAL_Driver/Src/stm32l1xx_hal_flash.c ****   uint32_t tickstart = HAL_GetTick();
 626:..//Source/stm/lib/STM32L1xx_HAL_Driver/Src/stm32l1xx_hal_flash.c ****      
 627:..//Source/stm/lib/STM32L1xx_HAL_Driver/Src/stm32l1xx_hal_flash.c ****   while(__HAL_FLASH_GET_FLAG(FLASH_FLAG_BSY)) 
 628:..//Source/stm/lib/STM32L1xx_HAL_Driver/Src/stm32l1xx_hal_flash.c ****   { 
 629:..//Source/stm/lib/STM32L1xx_HAL_Driver/Src/stm32l1xx_hal_flash.c ****     if (Timeout != HAL_MAX_DELAY)
 630:..//Source/stm/lib/STM32L1xx_HAL_Driver/Src/stm32l1xx_hal_flash.c ****     {
 631:..//Source/stm/lib/STM32L1xx_HAL_Driver/Src/stm32l1xx_hal_flash.c ****       if((Timeout == 0U) || ((HAL_GetTick()-tickstart) > Timeout))
 632:..//Source/stm/lib/STM32L1xx_HAL_Driver/Src/stm32l1xx_hal_flash.c ****       {
 633:..//Source/stm/lib/STM32L1xx_HAL_Driver/Src/stm32l1xx_hal_flash.c ****         return HAL_TIMEOUT;
 634:..//Source/stm/lib/STM32L1xx_HAL_Driver/Src/stm32l1xx_hal_flash.c ****       }
 635:..//Source/stm/lib/STM32L1xx_HAL_Driver/Src/stm32l1xx_hal_flash.c ****     }
 636:..//Source/stm/lib/STM32L1xx_HAL_Driver/Src/stm32l1xx_hal_flash.c ****   }
 637:..//Source/stm/lib/STM32L1xx_HAL_Driver/Src/stm32l1xx_hal_flash.c ****   
 638:..//Source/stm/lib/STM32L1xx_HAL_Driver/Src/stm32l1xx_hal_flash.c ****   /* Check FLASH End of Operation flag  */
 639:..//Source/stm/lib/STM32L1xx_HAL_Driver/Src/stm32l1xx_hal_flash.c ****   if (__HAL_FLASH_GET_FLAG(FLASH_FLAG_EOP))
 640:..//Source/stm/lib/STM32L1xx_HAL_Driver/Src/stm32l1xx_hal_flash.c ****   {
 641:..//Source/stm/lib/STM32L1xx_HAL_Driver/Src/stm32l1xx_hal_flash.c ****     /* Clear FLASH End of Operation pending bit */
 642:..//Source/stm/lib/STM32L1xx_HAL_Driver/Src/stm32l1xx_hal_flash.c ****     __HAL_FLASH_CLEAR_FLAG(FLASH_FLAG_EOP);
 643:..//Source/stm/lib/STM32L1xx_HAL_Driver/Src/stm32l1xx_hal_flash.c ****   }
 644:..//Source/stm/lib/STM32L1xx_HAL_Driver/Src/stm32l1xx_hal_flash.c ****   
 645:..//Source/stm/lib/STM32L1xx_HAL_Driver/Src/stm32l1xx_hal_flash.c ****   if(__HAL_FLASH_GET_FLAG(FLASH_FLAG_WRPERR)  || 
 646:..//Source/stm/lib/STM32L1xx_HAL_Driver/Src/stm32l1xx_hal_flash.c ****      __HAL_FLASH_GET_FLAG(FLASH_FLAG_OPTVERR) || 
 647:..//Source/stm/lib/STM32L1xx_HAL_Driver/Src/stm32l1xx_hal_flash.c **** #if defined(FLASH_SR_RDERR)
 648:..//Source/stm/lib/STM32L1xx_HAL_Driver/Src/stm32l1xx_hal_flash.c ****       __HAL_FLASH_GET_FLAG(FLASH_FLAG_RDERR) || 
 649:..//Source/stm/lib/STM32L1xx_HAL_Driver/Src/stm32l1xx_hal_flash.c **** #endif /* FLASH_SR_RDERR */
 650:..//Source/stm/lib/STM32L1xx_HAL_Driver/Src/stm32l1xx_hal_flash.c **** #if defined(FLASH_SR_OPTVERRUSR)
 651:..//Source/stm/lib/STM32L1xx_HAL_Driver/Src/stm32l1xx_hal_flash.c ****       __HAL_FLASH_GET_FLAG(FLASH_FLAG_OPTVERRUSR) || 
 652:..//Source/stm/lib/STM32L1xx_HAL_Driver/Src/stm32l1xx_hal_flash.c **** #endif /* FLASH_SR_OPTVERRUSR */
 653:..//Source/stm/lib/STM32L1xx_HAL_Driver/Src/stm32l1xx_hal_flash.c ****      __HAL_FLASH_GET_FLAG(FLASH_FLAG_PGAERR))
 654:..//Source/stm/lib/STM32L1xx_HAL_Driver/Src/stm32l1xx_hal_flash.c ****   {
 655:..//Source/stm/lib/STM32L1xx_HAL_Driver/Src/stm32l1xx_hal_flash.c ****     /*Save the error code*/
 656:..//Source/stm/lib/STM32L1xx_HAL_Driver/Src/stm32l1xx_hal_flash.c ****     FLASH_SetErrorCode();
 657:..//Source/stm/lib/STM32L1xx_HAL_Driver/Src/stm32l1xx_hal_flash.c ****     return HAL_ERROR;
 658:..//Source/stm/lib/STM32L1xx_HAL_Driver/Src/stm32l1xx_hal_flash.c ****   }
 659:..//Source/stm/lib/STM32L1xx_HAL_Driver/Src/stm32l1xx_hal_flash.c **** 
 660:..//Source/stm/lib/STM32L1xx_HAL_Driver/Src/stm32l1xx_hal_flash.c ****   /* There is no error flag set */
 661:..//Source/stm/lib/STM32L1xx_HAL_Driver/Src/stm32l1xx_hal_flash.c ****   return HAL_OK;
ARM GAS  /tmp/ccUlkaTj.s 			page 13


 662:..//Source/stm/lib/STM32L1xx_HAL_Driver/Src/stm32l1xx_hal_flash.c **** }
 663:..//Source/stm/lib/STM32L1xx_HAL_Driver/Src/stm32l1xx_hal_flash.c **** 
 664:..//Source/stm/lib/STM32L1xx_HAL_Driver/Src/stm32l1xx_hal_flash.c **** 
 665:..//Source/stm/lib/STM32L1xx_HAL_Driver/Src/stm32l1xx_hal_flash.c **** /**
 666:..//Source/stm/lib/STM32L1xx_HAL_Driver/Src/stm32l1xx_hal_flash.c ****   * @brief  Set the specific FLASH error flag.
 667:..//Source/stm/lib/STM32L1xx_HAL_Driver/Src/stm32l1xx_hal_flash.c ****   * @retval None
 668:..//Source/stm/lib/STM32L1xx_HAL_Driver/Src/stm32l1xx_hal_flash.c ****   */
 669:..//Source/stm/lib/STM32L1xx_HAL_Driver/Src/stm32l1xx_hal_flash.c **** static void FLASH_SetErrorCode(void)
 670:..//Source/stm/lib/STM32L1xx_HAL_Driver/Src/stm32l1xx_hal_flash.c **** {
  25              		.loc 1 670 0
  26              		.cfi_startproc
  27              		@ args = 0, pretend = 0, frame = 0
  28              		@ frame_needed = 0, uses_anonymous_args = 0
  29              		@ link register save eliminated.
  30              	.LVL0:
 671:..//Source/stm/lib/STM32L1xx_HAL_Driver/Src/stm32l1xx_hal_flash.c ****   uint32_t flags = 0U;
 672:..//Source/stm/lib/STM32L1xx_HAL_Driver/Src/stm32l1xx_hal_flash.c ****   
 673:..//Source/stm/lib/STM32L1xx_HAL_Driver/Src/stm32l1xx_hal_flash.c ****   if(__HAL_FLASH_GET_FLAG(FLASH_FLAG_WRPERR))
  31              		.loc 1 673 0
  32 0000 1A4B     		ldr	r3, .L7
  33 0002 9B69     		ldr	r3, [r3, #24]
  34 0004 13F4807F 		tst	r3, #256
  35 0008 2DD0     		beq	.L6
 674:..//Source/stm/lib/STM32L1xx_HAL_Driver/Src/stm32l1xx_hal_flash.c ****   {
 675:..//Source/stm/lib/STM32L1xx_HAL_Driver/Src/stm32l1xx_hal_flash.c ****     pFlash.ErrorCode |= HAL_FLASH_ERROR_WRP;
  36              		.loc 1 675 0
  37 000a 194A     		ldr	r2, .L7+4
  38 000c 5369     		ldr	r3, [r2, #20]
  39 000e 43F00203 		orr	r3, r3, #2
  40 0012 5361     		str	r3, [r2, #20]
  41              	.LVL1:
 676:..//Source/stm/lib/STM32L1xx_HAL_Driver/Src/stm32l1xx_hal_flash.c ****     flags |= FLASH_FLAG_WRPERR;
  42              		.loc 1 676 0
  43 0014 4FF48073 		mov	r3, #256
  44              	.LVL2:
  45              	.L2:
 677:..//Source/stm/lib/STM32L1xx_HAL_Driver/Src/stm32l1xx_hal_flash.c ****   }
 678:..//Source/stm/lib/STM32L1xx_HAL_Driver/Src/stm32l1xx_hal_flash.c ****   if(__HAL_FLASH_GET_FLAG(FLASH_FLAG_PGAERR))
  46              		.loc 1 678 0
  47 0018 144A     		ldr	r2, .L7
  48 001a 9269     		ldr	r2, [r2, #24]
  49 001c 12F4007F 		tst	r2, #512
  50 0020 06D0     		beq	.L3
 679:..//Source/stm/lib/STM32L1xx_HAL_Driver/Src/stm32l1xx_hal_flash.c ****   {
 680:..//Source/stm/lib/STM32L1xx_HAL_Driver/Src/stm32l1xx_hal_flash.c ****     pFlash.ErrorCode |= HAL_FLASH_ERROR_PGA;
  51              		.loc 1 680 0
  52 0022 1349     		ldr	r1, .L7+4
  53 0024 4A69     		ldr	r2, [r1, #20]
  54 0026 42F00102 		orr	r2, r2, #1
  55 002a 4A61     		str	r2, [r1, #20]
 681:..//Source/stm/lib/STM32L1xx_HAL_Driver/Src/stm32l1xx_hal_flash.c ****     flags |= FLASH_FLAG_PGAERR;
  56              		.loc 1 681 0
  57 002c 43F40073 		orr	r3, r3, #512
  58              	.LVL3:
  59              	.L3:
 682:..//Source/stm/lib/STM32L1xx_HAL_Driver/Src/stm32l1xx_hal_flash.c ****   }
 683:..//Source/stm/lib/STM32L1xx_HAL_Driver/Src/stm32l1xx_hal_flash.c ****   if(__HAL_FLASH_GET_FLAG(FLASH_FLAG_OPTVERR))
ARM GAS  /tmp/ccUlkaTj.s 			page 14


  60              		.loc 1 683 0
  61 0030 0E4A     		ldr	r2, .L7
  62 0032 9269     		ldr	r2, [r2, #24]
  63 0034 12F4006F 		tst	r2, #2048
  64 0038 06D0     		beq	.L4
 684:..//Source/stm/lib/STM32L1xx_HAL_Driver/Src/stm32l1xx_hal_flash.c ****   {
 685:..//Source/stm/lib/STM32L1xx_HAL_Driver/Src/stm32l1xx_hal_flash.c ****     pFlash.ErrorCode |= HAL_FLASH_ERROR_OPTV;
  65              		.loc 1 685 0
  66 003a 0D49     		ldr	r1, .L7+4
  67 003c 4A69     		ldr	r2, [r1, #20]
  68 003e 42F00402 		orr	r2, r2, #4
  69 0042 4A61     		str	r2, [r1, #20]
 686:..//Source/stm/lib/STM32L1xx_HAL_Driver/Src/stm32l1xx_hal_flash.c ****     flags |= FLASH_FLAG_OPTVERR;
  70              		.loc 1 686 0
  71 0044 43F40063 		orr	r3, r3, #2048
  72              	.LVL4:
  73              	.L4:
 687:..//Source/stm/lib/STM32L1xx_HAL_Driver/Src/stm32l1xx_hal_flash.c ****   }
 688:..//Source/stm/lib/STM32L1xx_HAL_Driver/Src/stm32l1xx_hal_flash.c **** 
 689:..//Source/stm/lib/STM32L1xx_HAL_Driver/Src/stm32l1xx_hal_flash.c **** #if defined(FLASH_SR_RDERR)
 690:..//Source/stm/lib/STM32L1xx_HAL_Driver/Src/stm32l1xx_hal_flash.c ****   if(__HAL_FLASH_GET_FLAG(FLASH_FLAG_RDERR))
  74              		.loc 1 690 0
  75 0048 084A     		ldr	r2, .L7
  76 004a 9269     		ldr	r2, [r2, #24]
  77 004c 12F4005F 		tst	r2, #8192
  78 0050 06D0     		beq	.L5
 691:..//Source/stm/lib/STM32L1xx_HAL_Driver/Src/stm32l1xx_hal_flash.c ****   {
 692:..//Source/stm/lib/STM32L1xx_HAL_Driver/Src/stm32l1xx_hal_flash.c ****     pFlash.ErrorCode |= HAL_FLASH_ERROR_RD;
  79              		.loc 1 692 0
  80 0052 0749     		ldr	r1, .L7+4
  81 0054 4A69     		ldr	r2, [r1, #20]
  82 0056 42F01002 		orr	r2, r2, #16
  83 005a 4A61     		str	r2, [r1, #20]
 693:..//Source/stm/lib/STM32L1xx_HAL_Driver/Src/stm32l1xx_hal_flash.c ****     flags |= FLASH_FLAG_RDERR;
  84              		.loc 1 693 0
  85 005c 43F40053 		orr	r3, r3, #8192
  86              	.LVL5:
  87              	.L5:
 694:..//Source/stm/lib/STM32L1xx_HAL_Driver/Src/stm32l1xx_hal_flash.c ****   }
 695:..//Source/stm/lib/STM32L1xx_HAL_Driver/Src/stm32l1xx_hal_flash.c **** #endif /* FLASH_SR_RDERR */
 696:..//Source/stm/lib/STM32L1xx_HAL_Driver/Src/stm32l1xx_hal_flash.c **** #if defined(FLASH_SR_OPTVERRUSR)
 697:..//Source/stm/lib/STM32L1xx_HAL_Driver/Src/stm32l1xx_hal_flash.c ****   if(__HAL_FLASH_GET_FLAG(FLASH_FLAG_OPTVERRUSR))
 698:..//Source/stm/lib/STM32L1xx_HAL_Driver/Src/stm32l1xx_hal_flash.c ****   {
 699:..//Source/stm/lib/STM32L1xx_HAL_Driver/Src/stm32l1xx_hal_flash.c ****     pFlash.ErrorCode |= HAL_FLASH_ERROR_OPTVUSR;
 700:..//Source/stm/lib/STM32L1xx_HAL_Driver/Src/stm32l1xx_hal_flash.c ****     flags |= FLASH_FLAG_OPTVERRUSR;
 701:..//Source/stm/lib/STM32L1xx_HAL_Driver/Src/stm32l1xx_hal_flash.c ****   }
 702:..//Source/stm/lib/STM32L1xx_HAL_Driver/Src/stm32l1xx_hal_flash.c **** #endif /* FLASH_SR_OPTVERRUSR */
 703:..//Source/stm/lib/STM32L1xx_HAL_Driver/Src/stm32l1xx_hal_flash.c **** 
 704:..//Source/stm/lib/STM32L1xx_HAL_Driver/Src/stm32l1xx_hal_flash.c ****   /* Clear FLASH error pending bits */
 705:..//Source/stm/lib/STM32L1xx_HAL_Driver/Src/stm32l1xx_hal_flash.c ****   __HAL_FLASH_CLEAR_FLAG(flags);
  88              		.loc 1 705 0
  89 0060 024A     		ldr	r2, .L7
  90 0062 9361     		str	r3, [r2, #24]
  91 0064 7047     		bx	lr
  92              	.LVL6:
  93              	.L6:
 671:..//Source/stm/lib/STM32L1xx_HAL_Driver/Src/stm32l1xx_hal_flash.c ****   
ARM GAS  /tmp/ccUlkaTj.s 			page 15


  94              		.loc 1 671 0
  95 0066 0023     		movs	r3, #0
  96 0068 D6E7     		b	.L2
  97              	.L8:
  98 006a 00BF     		.align	2
  99              	.L7:
 100 006c 003C0240 		.word	1073888256
 101 0070 00000000 		.word	pFlash
 102              		.cfi_endproc
 103              	.LFE84:
 105              		.section	.text.HAL_FLASH_Program_IT,"ax",%progbits
 106              		.align	1
 107              		.global	HAL_FLASH_Program_IT
 108              		.syntax unified
 109              		.thumb
 110              		.thumb_func
 111              		.fpu softvfp
 113              	HAL_FLASH_Program_IT:
 114              	.LFB73:
 274:..//Source/stm/lib/STM32L1xx_HAL_Driver/Src/stm32l1xx_hal_flash.c ****   HAL_StatusTypeDef status = HAL_OK;
 115              		.loc 1 274 0
 116              		.cfi_startproc
 117              		@ args = 0, pretend = 0, frame = 0
 118              		@ frame_needed = 0, uses_anonymous_args = 0
 119              		@ link register save eliminated.
 120              	.LVL7:
 278:..//Source/stm/lib/STM32L1xx_HAL_Driver/Src/stm32l1xx_hal_flash.c **** 
 121              		.loc 1 278 0
 122 0000 0D4B     		ldr	r3, .L18
 123 0002 1B7C     		ldrb	r3, [r3, #16]	@ zero_extendqisi2
 124 0004 012B     		cmp	r3, #1
 125 0006 15D0     		beq	.L11
 274:..//Source/stm/lib/STM32L1xx_HAL_Driver/Src/stm32l1xx_hal_flash.c ****   HAL_StatusTypeDef status = HAL_OK;
 126              		.loc 1 274 0 discriminator 2
 127 0008 30B4     		push	{r4, r5}
 128              	.LCFI0:
 129              		.cfi_def_cfa_offset 8
 130              		.cfi_offset 4, -8
 131              		.cfi_offset 5, -4
 278:..//Source/stm/lib/STM32L1xx_HAL_Driver/Src/stm32l1xx_hal_flash.c **** 
 132              		.loc 1 278 0 discriminator 2
 133 000a 0B4B     		ldr	r3, .L18
 134 000c 0124     		movs	r4, #1
 135 000e 1C74     		strb	r4, [r3, #16]
 285:..//Source/stm/lib/STM32L1xx_HAL_Driver/Src/stm32l1xx_hal_flash.c ****   
 136              		.loc 1 285 0 discriminator 2
 137 0010 0A4D     		ldr	r5, .L18+4
 138 0012 6C68     		ldr	r4, [r5, #4]
 139 0014 44F44034 		orr	r4, r4, #196608
 140 0018 6C60     		str	r4, [r5, #4]
 287:..//Source/stm/lib/STM32L1xx_HAL_Driver/Src/stm32l1xx_hal_flash.c ****   pFlash.ProcedureOnGoing = FLASH_PROC_PROGRAM;
 141              		.loc 1 287 0 discriminator 2
 142 001a 9960     		str	r1, [r3, #8]
 288:..//Source/stm/lib/STM32L1xx_HAL_Driver/Src/stm32l1xx_hal_flash.c ****   /* Clean the error context */
 143              		.loc 1 288 0 discriminator 2
 144 001c 0224     		movs	r4, #2
 145 001e 1C70     		strb	r4, [r3]
ARM GAS  /tmp/ccUlkaTj.s 			page 16


 290:..//Source/stm/lib/STM32L1xx_HAL_Driver/Src/stm32l1xx_hal_flash.c **** 
 146              		.loc 1 290 0 discriminator 2
 147 0020 0024     		movs	r4, #0
 148 0022 5C61     		str	r4, [r3, #20]
 292:..//Source/stm/lib/STM32L1xx_HAL_Driver/Src/stm32l1xx_hal_flash.c ****   {
 149              		.loc 1 292 0 discriminator 2
 150 0024 0228     		cmp	r0, #2
 151 0026 02D0     		beq	.L17
 297:..//Source/stm/lib/STM32L1xx_HAL_Driver/Src/stm32l1xx_hal_flash.c **** }
 152              		.loc 1 297 0
 153 0028 0020     		movs	r0, #0
 154              	.LVL8:
 155              	.L10:
 298:..//Source/stm/lib/STM32L1xx_HAL_Driver/Src/stm32l1xx_hal_flash.c **** 
 156              		.loc 1 298 0
 157 002a 30BC     		pop	{r4, r5}
 158              	.LCFI1:
 159              		.cfi_remember_state
 160              		.cfi_restore 5
 161              		.cfi_restore 4
 162              		.cfi_def_cfa_offset 0
 163 002c 7047     		bx	lr
 164              	.LVL9:
 165              	.L17:
 166              	.LCFI2:
 167              		.cfi_restore_state
 295:..//Source/stm/lib/STM32L1xx_HAL_Driver/Src/stm32l1xx_hal_flash.c ****   }
 168              		.loc 1 295 0
 169 002e 0A60     		str	r2, [r1]
 297:..//Source/stm/lib/STM32L1xx_HAL_Driver/Src/stm32l1xx_hal_flash.c **** }
 170              		.loc 1 297 0
 171 0030 2046     		mov	r0, r4
 172              	.LVL10:
 173 0032 FAE7     		b	.L10
 174              	.LVL11:
 175              	.L11:
 176              	.LCFI3:
 177              		.cfi_def_cfa_offset 0
 178              		.cfi_restore 4
 179              		.cfi_restore 5
 278:..//Source/stm/lib/STM32L1xx_HAL_Driver/Src/stm32l1xx_hal_flash.c **** 
 180              		.loc 1 278 0
 181 0034 0220     		movs	r0, #2
 182              	.LVL12:
 183 0036 7047     		bx	lr
 184              	.L19:
 185              		.align	2
 186              	.L18:
 187 0038 00000000 		.word	pFlash
 188 003c 003C0240 		.word	1073888256
 189              		.cfi_endproc
 190              	.LFE73:
 192              		.section	.text.HAL_FLASH_EndOfOperationCallback,"ax",%progbits
 193              		.align	1
 194              		.weak	HAL_FLASH_EndOfOperationCallback
 195              		.syntax unified
 196              		.thumb
ARM GAS  /tmp/ccUlkaTj.s 			page 17


 197              		.thumb_func
 198              		.fpu softvfp
 200              	HAL_FLASH_EndOfOperationCallback:
 201              	.LFB75:
 420:..//Source/stm/lib/STM32L1xx_HAL_Driver/Src/stm32l1xx_hal_flash.c ****   /* Prevent unused argument(s) compilation warning */
 202              		.loc 1 420 0
 203              		.cfi_startproc
 204              		@ args = 0, pretend = 0, frame = 0
 205              		@ frame_needed = 0, uses_anonymous_args = 0
 206              		@ link register save eliminated.
 207              	.LVL13:
 208 0000 7047     		bx	lr
 209              		.cfi_endproc
 210              	.LFE75:
 212              		.section	.text.HAL_FLASH_OperationErrorCallback,"ax",%progbits
 213              		.align	1
 214              		.weak	HAL_FLASH_OperationErrorCallback
 215              		.syntax unified
 216              		.thumb
 217              		.thumb_func
 218              		.fpu softvfp
 220              	HAL_FLASH_OperationErrorCallback:
 221              	.LFB76:
 437:..//Source/stm/lib/STM32L1xx_HAL_Driver/Src/stm32l1xx_hal_flash.c ****   /* Prevent unused argument(s) compilation warning */
 222              		.loc 1 437 0
 223              		.cfi_startproc
 224              		@ args = 0, pretend = 0, frame = 0
 225              		@ frame_needed = 0, uses_anonymous_args = 0
 226              		@ link register save eliminated.
 227              	.LVL14:
 228 0000 7047     		bx	lr
 229              		.cfi_endproc
 230              	.LFE76:
 232              		.section	.text.HAL_FLASH_IRQHandler,"ax",%progbits
 233              		.align	1
 234              		.global	HAL_FLASH_IRQHandler
 235              		.syntax unified
 236              		.thumb
 237              		.thumb_func
 238              		.fpu softvfp
 240              	HAL_FLASH_IRQHandler:
 241              	.LFB74:
 305:..//Source/stm/lib/STM32L1xx_HAL_Driver/Src/stm32l1xx_hal_flash.c ****   uint32_t addresstmp = 0U;
 242              		.loc 1 305 0
 243              		.cfi_startproc
 244              		@ args = 0, pretend = 0, frame = 0
 245              		@ frame_needed = 0, uses_anonymous_args = 0
 305:..//Source/stm/lib/STM32L1xx_HAL_Driver/Src/stm32l1xx_hal_flash.c ****   uint32_t addresstmp = 0U;
 246              		.loc 1 305 0
 247 0000 10B5     		push	{r4, lr}
 248              	.LCFI4:
 249              		.cfi_def_cfa_offset 8
 250              		.cfi_offset 4, -8
 251              		.cfi_offset 14, -4
 252              	.LVL15:
 309:..//Source/stm/lib/STM32L1xx_HAL_Driver/Src/stm32l1xx_hal_flash.c ****       __HAL_FLASH_GET_FLAG(FLASH_FLAG_PGAERR)     || 
 253              		.loc 1 309 0
ARM GAS  /tmp/ccUlkaTj.s 			page 18


 254 0002 3D4B     		ldr	r3, .L34
 255 0004 9B69     		ldr	r3, [r3, #24]
 256 0006 13F4807F 		tst	r3, #256
 257 000a 13D1     		bne	.L23
 310:..//Source/stm/lib/STM32L1xx_HAL_Driver/Src/stm32l1xx_hal_flash.c ****       __HAL_FLASH_GET_FLAG(FLASH_FLAG_SIZERR)     || 
 258              		.loc 1 310 0 discriminator 1
 259 000c 3A4B     		ldr	r3, .L34
 260 000e 9B69     		ldr	r3, [r3, #24]
 309:..//Source/stm/lib/STM32L1xx_HAL_Driver/Src/stm32l1xx_hal_flash.c ****       __HAL_FLASH_GET_FLAG(FLASH_FLAG_PGAERR)     || 
 261              		.loc 1 309 0 discriminator 1
 262 0010 13F4007F 		tst	r3, #512
 263 0014 0ED1     		bne	.L23
 311:..//Source/stm/lib/STM32L1xx_HAL_Driver/Src/stm32l1xx_hal_flash.c **** #if defined(FLASH_SR_RDERR)
 264              		.loc 1 311 0
 265 0016 384B     		ldr	r3, .L34
 266 0018 9B69     		ldr	r3, [r3, #24]
 310:..//Source/stm/lib/STM32L1xx_HAL_Driver/Src/stm32l1xx_hal_flash.c ****       __HAL_FLASH_GET_FLAG(FLASH_FLAG_SIZERR)     || 
 267              		.loc 1 310 0
 268 001a 13F4806F 		tst	r3, #1024
 269 001e 09D1     		bne	.L23
 313:..//Source/stm/lib/STM32L1xx_HAL_Driver/Src/stm32l1xx_hal_flash.c **** #endif /* FLASH_SR_RDERR */
 270              		.loc 1 313 0
 271 0020 354B     		ldr	r3, .L34
 272 0022 9B69     		ldr	r3, [r3, #24]
 311:..//Source/stm/lib/STM32L1xx_HAL_Driver/Src/stm32l1xx_hal_flash.c **** #if defined(FLASH_SR_RDERR)
 273              		.loc 1 311 0
 274 0024 13F4005F 		tst	r3, #8192
 275 0028 04D1     		bne	.L23
 318:..//Source/stm/lib/STM32L1xx_HAL_Driver/Src/stm32l1xx_hal_flash.c ****   {
 276              		.loc 1 318 0
 277 002a 334B     		ldr	r3, .L34
 278 002c 9B69     		ldr	r3, [r3, #24]
 313:..//Source/stm/lib/STM32L1xx_HAL_Driver/Src/stm32l1xx_hal_flash.c **** #endif /* FLASH_SR_RDERR */
 279              		.loc 1 313 0
 280 002e 13F4006F 		tst	r3, #2048
 281 0032 0ED0     		beq	.L24
 282              	.L23:
 320:..//Source/stm/lib/STM32L1xx_HAL_Driver/Src/stm32l1xx_hal_flash.c ****     {
 283              		.loc 1 320 0
 284 0034 314B     		ldr	r3, .L34+4
 285 0036 1B78     		ldrb	r3, [r3]	@ zero_extendqisi2
 286 0038 DBB2     		uxtb	r3, r3
 287 003a 012B     		cmp	r3, #1
 288 003c 37D0     		beq	.L32
 329:..//Source/stm/lib/STM32L1xx_HAL_Driver/Src/stm32l1xx_hal_flash.c ****     }
 289              		.loc 1 329 0
 290 003e 2F4B     		ldr	r3, .L34+4
 291 0040 9C68     		ldr	r4, [r3, #8]
 292              	.LVL16:
 293              	.L26:
 332:..//Source/stm/lib/STM32L1xx_HAL_Driver/Src/stm32l1xx_hal_flash.c ****     
 294              		.loc 1 332 0
 295 0042 FFF7FEFF 		bl	FLASH_SetErrorCode
 296              	.LVL17:
 335:..//Source/stm/lib/STM32L1xx_HAL_Driver/Src/stm32l1xx_hal_flash.c **** 
 297              		.loc 1 335 0
 298 0046 2046     		mov	r0, r4
ARM GAS  /tmp/ccUlkaTj.s 			page 19


 299 0048 FFF7FEFF 		bl	HAL_FLASH_OperationErrorCallback
 300              	.LVL18:
 338:..//Source/stm/lib/STM32L1xx_HAL_Driver/Src/stm32l1xx_hal_flash.c ****   }
 301              		.loc 1 338 0
 302 004c 0022     		movs	r2, #0
 303 004e 2B4B     		ldr	r3, .L34+4
 304 0050 1A70     		strb	r2, [r3]
 305              	.LVL19:
 306              	.L24:
 342:..//Source/stm/lib/STM32L1xx_HAL_Driver/Src/stm32l1xx_hal_flash.c ****   {
 307              		.loc 1 342 0
 308 0052 294B     		ldr	r3, .L34
 309 0054 9B69     		ldr	r3, [r3, #24]
 310 0056 13F0020F 		tst	r3, #2
 311 005a 18D0     		beq	.L27
 345:..//Source/stm/lib/STM32L1xx_HAL_Driver/Src/stm32l1xx_hal_flash.c ****     
 312              		.loc 1 345 0
 313 005c 0222     		movs	r2, #2
 314 005e 264B     		ldr	r3, .L34
 315 0060 9A61     		str	r2, [r3, #24]
 348:..//Source/stm/lib/STM32L1xx_HAL_Driver/Src/stm32l1xx_hal_flash.c ****     {
 316              		.loc 1 348 0
 317 0062 264B     		ldr	r3, .L34+4
 318 0064 1B78     		ldrb	r3, [r3]	@ zero_extendqisi2
 319 0066 93B1     		cbz	r3, .L27
 350:..//Source/stm/lib/STM32L1xx_HAL_Driver/Src/stm32l1xx_hal_flash.c ****       {
 320              		.loc 1 350 0
 321 0068 244B     		ldr	r3, .L34+4
 322 006a 1B78     		ldrb	r3, [r3]	@ zero_extendqisi2
 323 006c DBB2     		uxtb	r3, r3
 324 006e 012B     		cmp	r3, #1
 325 0070 23D0     		beq	.L33
 384:..//Source/stm/lib/STM32L1xx_HAL_Driver/Src/stm32l1xx_hal_flash.c **** 
 326              		.loc 1 384 0
 327 0072 214A     		ldr	r2, .L34
 328 0074 5368     		ldr	r3, [r2, #4]
 329 0076 23F00803 		bic	r3, r3, #8
 330 007a 5360     		str	r3, [r2, #4]
 388:..//Source/stm/lib/STM32L1xx_HAL_Driver/Src/stm32l1xx_hal_flash.c ****         
 331              		.loc 1 388 0
 332 007c 1F4C     		ldr	r4, .L34+4
 333 007e A068     		ldr	r0, [r4, #8]
 334 0080 FFF7FEFF 		bl	HAL_FLASH_EndOfOperationCallback
 335              	.LVL20:
 391:..//Source/stm/lib/STM32L1xx_HAL_Driver/Src/stm32l1xx_hal_flash.c ****           pFlash.ProcedureOnGoing = FLASH_PROC_NONE;
 336              		.loc 1 391 0
 337 0084 4FF0FF33 		mov	r3, #-1
 338 0088 A360     		str	r3, [r4, #8]
 392:..//Source/stm/lib/STM32L1xx_HAL_Driver/Src/stm32l1xx_hal_flash.c ****       }
 339              		.loc 1 392 0
 340 008a 0023     		movs	r3, #0
 341 008c 2370     		strb	r3, [r4]
 342              	.L27:
 398:..//Source/stm/lib/STM32L1xx_HAL_Driver/Src/stm32l1xx_hal_flash.c ****   {
 343              		.loc 1 398 0
 344 008e 1B4B     		ldr	r3, .L34+4
 345 0090 1B78     		ldrb	r3, [r3]	@ zero_extendqisi2
ARM GAS  /tmp/ccUlkaTj.s 			page 20


 346 0092 5BB9     		cbnz	r3, .L22
 401:..//Source/stm/lib/STM32L1xx_HAL_Driver/Src/stm32l1xx_hal_flash.c **** 
 347              		.loc 1 401 0
 348 0094 184B     		ldr	r3, .L34
 349 0096 5A68     		ldr	r2, [r3, #4]
 350 0098 22F40272 		bic	r2, r2, #520
 351 009c 5A60     		str	r2, [r3, #4]
 404:..//Source/stm/lib/STM32L1xx_HAL_Driver/Src/stm32l1xx_hal_flash.c **** 
 352              		.loc 1 404 0
 353 009e 5A68     		ldr	r2, [r3, #4]
 354 00a0 22F44032 		bic	r2, r2, #196608
 355 00a4 5A60     		str	r2, [r3, #4]
 407:..//Source/stm/lib/STM32L1xx_HAL_Driver/Src/stm32l1xx_hal_flash.c ****   }
 356              		.loc 1 407 0
 357 00a6 0022     		movs	r2, #0
 358 00a8 144B     		ldr	r3, .L34+4
 359 00aa 1A74     		strb	r2, [r3, #16]
 360              	.L22:
 361 00ac 10BD     		pop	{r4, pc}
 362              	.LVL21:
 363              	.L32:
 323:..//Source/stm/lib/STM32L1xx_HAL_Driver/Src/stm32l1xx_hal_flash.c ****       pFlash.Page = 0xFFFFFFFFU;
 364              		.loc 1 323 0
 365 00ae 134B     		ldr	r3, .L34+4
 366 00b0 DC68     		ldr	r4, [r3, #12]
 367              	.LVL22:
 324:..//Source/stm/lib/STM32L1xx_HAL_Driver/Src/stm32l1xx_hal_flash.c ****     }
 368              		.loc 1 324 0
 369 00b2 4FF0FF32 		mov	r2, #-1
 370 00b6 DA60     		str	r2, [r3, #12]
 371 00b8 C3E7     		b	.L26
 372              	.LVL23:
 373              	.L33:
 353:..//Source/stm/lib/STM32L1xx_HAL_Driver/Src/stm32l1xx_hal_flash.c **** 
 374              		.loc 1 353 0
 375 00ba 104B     		ldr	r3, .L34+4
 376 00bc 5A68     		ldr	r2, [r3, #4]
 377 00be 013A     		subs	r2, r2, #1
 378 00c0 5A60     		str	r2, [r3, #4]
 356:..//Source/stm/lib/STM32L1xx_HAL_Driver/Src/stm32l1xx_hal_flash.c ****         {
 379              		.loc 1 356 0
 380 00c2 5B68     		ldr	r3, [r3, #4]
 381 00c4 7BB1     		cbz	r3, .L29
 358:..//Source/stm/lib/STM32L1xx_HAL_Driver/Src/stm32l1xx_hal_flash.c ****           /*Indicate user which sector has been erased */
 382              		.loc 1 358 0
 383 00c6 0D4C     		ldr	r4, .L34+4
 384 00c8 E068     		ldr	r0, [r4, #12]
 385              	.LVL24:
 360:..//Source/stm/lib/STM32L1xx_HAL_Driver/Src/stm32l1xx_hal_flash.c **** 
 386              		.loc 1 360 0
 387 00ca FFF7FEFF 		bl	HAL_FLASH_EndOfOperationCallback
 388              	.LVL25:
 363:..//Source/stm/lib/STM32L1xx_HAL_Driver/Src/stm32l1xx_hal_flash.c ****           pFlash.Page = addresstmp;
 389              		.loc 1 363 0
 390 00ce E068     		ldr	r0, [r4, #12]
 391 00d0 00F58070 		add	r0, r0, #256
 392              	.LVL26:
ARM GAS  /tmp/ccUlkaTj.s 			page 21


 364:..//Source/stm/lib/STM32L1xx_HAL_Driver/Src/stm32l1xx_hal_flash.c **** 
 393              		.loc 1 364 0
 394 00d4 E060     		str	r0, [r4, #12]
 367:..//Source/stm/lib/STM32L1xx_HAL_Driver/Src/stm32l1xx_hal_flash.c **** 
 395              		.loc 1 367 0
 396 00d6 084A     		ldr	r2, .L34
 397 00d8 5368     		ldr	r3, [r2, #4]
 398 00da 23F40073 		bic	r3, r3, #512
 399 00de 5360     		str	r3, [r2, #4]
 369:..//Source/stm/lib/STM32L1xx_HAL_Driver/Src/stm32l1xx_hal_flash.c ****         }
 400              		.loc 1 369 0
 401 00e0 FFF7FEFF 		bl	FLASH_PageErase
 402              	.LVL27:
 403 00e4 D3E7     		b	.L27
 404              	.L29:
 405              	.LVL28:
 375:..//Source/stm/lib/STM32L1xx_HAL_Driver/Src/stm32l1xx_hal_flash.c ****           pFlash.ProcedureOnGoing = FLASH_PROC_NONE;
 406              		.loc 1 375 0
 407 00e6 054B     		ldr	r3, .L34+4
 408 00e8 4FF0FF30 		mov	r0, #-1
 409 00ec D860     		str	r0, [r3, #12]
 376:..//Source/stm/lib/STM32L1xx_HAL_Driver/Src/stm32l1xx_hal_flash.c ****           /* FLASH EOP interrupt user callback */
 410              		.loc 1 376 0
 411 00ee 0022     		movs	r2, #0
 412 00f0 1A70     		strb	r2, [r3]
 378:..//Source/stm/lib/STM32L1xx_HAL_Driver/Src/stm32l1xx_hal_flash.c ****         }
 413              		.loc 1 378 0
 414 00f2 FFF7FEFF 		bl	HAL_FLASH_EndOfOperationCallback
 415              	.LVL29:
 416 00f6 CAE7     		b	.L27
 417              	.L35:
 418              		.align	2
 419              	.L34:
 420 00f8 003C0240 		.word	1073888256
 421 00fc 00000000 		.word	pFlash
 422              		.cfi_endproc
 423              	.LFE74:
 425              		.section	.text.HAL_FLASH_Unlock,"ax",%progbits
 426              		.align	1
 427              		.global	HAL_FLASH_Unlock
 428              		.syntax unified
 429              		.thumb
 430              		.thumb_func
 431              		.fpu softvfp
 433              	HAL_FLASH_Unlock:
 434              	.LFB77:
 470:..//Source/stm/lib/STM32L1xx_HAL_Driver/Src/stm32l1xx_hal_flash.c ****   if (HAL_IS_BIT_SET(FLASH->PECR, FLASH_PECR_PRGLOCK))
 435              		.loc 1 470 0
 436              		.cfi_startproc
 437              		@ args = 0, pretend = 0, frame = 0
 438              		@ frame_needed = 0, uses_anonymous_args = 0
 439              		@ link register save eliminated.
 471:..//Source/stm/lib/STM32L1xx_HAL_Driver/Src/stm32l1xx_hal_flash.c ****   {
 440              		.loc 1 471 0
 441 0000 144B     		ldr	r3, .L43
 442 0002 5B68     		ldr	r3, [r3, #4]
 443 0004 13F0020F 		tst	r3, #2
ARM GAS  /tmp/ccUlkaTj.s 			page 22


 444 0008 1FD0     		beq	.L39
 474:..//Source/stm/lib/STM32L1xx_HAL_Driver/Src/stm32l1xx_hal_flash.c ****     {  
 445              		.loc 1 474 0
 446 000a 124B     		ldr	r3, .L43
 447 000c 5B68     		ldr	r3, [r3, #4]
 448 000e 13F0010F 		tst	r3, #1
 449 0012 08D0     		beq	.L38
 476:..//Source/stm/lib/STM32L1xx_HAL_Driver/Src/stm32l1xx_hal_flash.c ****       WRITE_REG(FLASH->PEKEYR, FLASH_PEKEY2);
 450              		.loc 1 476 0
 451 0014 0F4B     		ldr	r3, .L43
 452 0016 104A     		ldr	r2, .L43+4
 453 0018 DA60     		str	r2, [r3, #12]
 477:..//Source/stm/lib/STM32L1xx_HAL_Driver/Src/stm32l1xx_hal_flash.c ****       
 454              		.loc 1 477 0
 455 001a 104A     		ldr	r2, .L43+8
 456 001c DA60     		str	r2, [r3, #12]
 480:..//Source/stm/lib/STM32L1xx_HAL_Driver/Src/stm32l1xx_hal_flash.c ****       {
 457              		.loc 1 480 0
 458 001e 5B68     		ldr	r3, [r3, #4]
 459 0020 13F0010F 		tst	r3, #1
 460 0024 13D1     		bne	.L40
 461              	.L38:
 487:..//Source/stm/lib/STM32L1xx_HAL_Driver/Src/stm32l1xx_hal_flash.c ****     WRITE_REG(FLASH->PRGKEYR, FLASH_PRGKEY2);  
 462              		.loc 1 487 0
 463 0026 0B4B     		ldr	r3, .L43
 464 0028 0D4A     		ldr	r2, .L43+12
 465 002a 1A61     		str	r2, [r3, #16]
 488:..//Source/stm/lib/STM32L1xx_HAL_Driver/Src/stm32l1xx_hal_flash.c ****     
 466              		.loc 1 488 0
 467 002c A2F1F342 		sub	r2, r2, #2038431744
 468 0030 A2F51922 		sub	r2, r2, #626688
 469 0034 A2F6A912 		subw	r2, r2, #2473
 470 0038 1A61     		str	r2, [r3, #16]
 491:..//Source/stm/lib/STM32L1xx_HAL_Driver/Src/stm32l1xx_hal_flash.c ****     {
 471              		.loc 1 491 0
 472 003a 5B68     		ldr	r3, [r3, #4]
 473 003c 13F0020F 		tst	r3, #2
 474 0040 01D1     		bne	.L42
 497:..//Source/stm/lib/STM32L1xx_HAL_Driver/Src/stm32l1xx_hal_flash.c **** }
 475              		.loc 1 497 0
 476 0042 0020     		movs	r0, #0
 498:..//Source/stm/lib/STM32L1xx_HAL_Driver/Src/stm32l1xx_hal_flash.c **** 
 477              		.loc 1 498 0
 478 0044 7047     		bx	lr
 479              	.L42:
 493:..//Source/stm/lib/STM32L1xx_HAL_Driver/Src/stm32l1xx_hal_flash.c ****     }
 480              		.loc 1 493 0
 481 0046 0120     		movs	r0, #1
 482 0048 7047     		bx	lr
 483              	.L39:
 497:..//Source/stm/lib/STM32L1xx_HAL_Driver/Src/stm32l1xx_hal_flash.c **** }
 484              		.loc 1 497 0
 485 004a 0020     		movs	r0, #0
 486 004c 7047     		bx	lr
 487              	.L40:
 482:..//Source/stm/lib/STM32L1xx_HAL_Driver/Src/stm32l1xx_hal_flash.c ****       }
 488              		.loc 1 482 0
ARM GAS  /tmp/ccUlkaTj.s 			page 23


 489 004e 0120     		movs	r0, #1
 490 0050 7047     		bx	lr
 491              	.L44:
 492 0052 00BF     		.align	2
 493              	.L43:
 494 0054 003C0240 		.word	1073888256
 495 0058 EFCDAB89 		.word	-1985229329
 496 005c 05040302 		.word	33752069
 497 0060 BFAE9D8C 		.word	-1935823169
 498              		.cfi_endproc
 499              	.LFE77:
 501              		.section	.text.HAL_FLASH_Lock,"ax",%progbits
 502              		.align	1
 503              		.global	HAL_FLASH_Lock
 504              		.syntax unified
 505              		.thumb
 506              		.thumb_func
 507              		.fpu softvfp
 509              	HAL_FLASH_Lock:
 510              	.LFB78:
 505:..//Source/stm/lib/STM32L1xx_HAL_Driver/Src/stm32l1xx_hal_flash.c ****   /* Set the PRGLOCK Bit to lock the FLASH Registers access */
 511              		.loc 1 505 0
 512              		.cfi_startproc
 513              		@ args = 0, pretend = 0, frame = 0
 514              		@ frame_needed = 0, uses_anonymous_args = 0
 515              		@ link register save eliminated.
 507:..//Source/stm/lib/STM32L1xx_HAL_Driver/Src/stm32l1xx_hal_flash.c ****   
 516              		.loc 1 507 0
 517 0000 034A     		ldr	r2, .L46
 518 0002 5368     		ldr	r3, [r2, #4]
 519 0004 43F00203 		orr	r3, r3, #2
 520 0008 5360     		str	r3, [r2, #4]
 510:..//Source/stm/lib/STM32L1xx_HAL_Driver/Src/stm32l1xx_hal_flash.c **** 
 521              		.loc 1 510 0
 522 000a 0020     		movs	r0, #0
 523 000c 7047     		bx	lr
 524              	.L47:
 525 000e 00BF     		.align	2
 526              	.L46:
 527 0010 003C0240 		.word	1073888256
 528              		.cfi_endproc
 529              	.LFE78:
 531              		.section	.text.HAL_FLASH_OB_Unlock,"ax",%progbits
 532              		.align	1
 533              		.global	HAL_FLASH_OB_Unlock
 534              		.syntax unified
 535              		.thumb
 536              		.thumb_func
 537              		.fpu softvfp
 539              	HAL_FLASH_OB_Unlock:
 540              	.LFB79:
 517:..//Source/stm/lib/STM32L1xx_HAL_Driver/Src/stm32l1xx_hal_flash.c ****   if(HAL_IS_BIT_SET(FLASH->PECR, FLASH_PECR_OPTLOCK))
 541              		.loc 1 517 0
 542              		.cfi_startproc
 543              		@ args = 0, pretend = 0, frame = 0
 544              		@ frame_needed = 0, uses_anonymous_args = 0
 545              		@ link register save eliminated.
ARM GAS  /tmp/ccUlkaTj.s 			page 24


 518:..//Source/stm/lib/STM32L1xx_HAL_Driver/Src/stm32l1xx_hal_flash.c ****   {
 546              		.loc 1 518 0
 547 0000 144B     		ldr	r3, .L55
 548 0002 5B68     		ldr	r3, [r3, #4]
 549 0004 13F0040F 		tst	r3, #4
 550 0008 1FD0     		beq	.L51
 521:..//Source/stm/lib/STM32L1xx_HAL_Driver/Src/stm32l1xx_hal_flash.c ****     {  
 551              		.loc 1 521 0
 552 000a 124B     		ldr	r3, .L55
 553 000c 5B68     		ldr	r3, [r3, #4]
 554 000e 13F0010F 		tst	r3, #1
 555 0012 08D0     		beq	.L50
 524:..//Source/stm/lib/STM32L1xx_HAL_Driver/Src/stm32l1xx_hal_flash.c ****       WRITE_REG(FLASH->PEKEYR, FLASH_PEKEY2);
 556              		.loc 1 524 0
 557 0014 0F4B     		ldr	r3, .L55
 558 0016 104A     		ldr	r2, .L55+4
 559 0018 DA60     		str	r2, [r3, #12]
 525:..//Source/stm/lib/STM32L1xx_HAL_Driver/Src/stm32l1xx_hal_flash.c **** 
 560              		.loc 1 525 0
 561 001a 104A     		ldr	r2, .L55+8
 562 001c DA60     		str	r2, [r3, #12]
 528:..//Source/stm/lib/STM32L1xx_HAL_Driver/Src/stm32l1xx_hal_flash.c ****       {
 563              		.loc 1 528 0
 564 001e 5B68     		ldr	r3, [r3, #4]
 565 0020 13F0010F 		tst	r3, #1
 566 0024 13D1     		bne	.L52
 567              	.L50:
 535:..//Source/stm/lib/STM32L1xx_HAL_Driver/Src/stm32l1xx_hal_flash.c ****     WRITE_REG(FLASH->OPTKEYR, FLASH_OPTKEY2);
 568              		.loc 1 535 0
 569 0026 0B4B     		ldr	r3, .L55
 570 0028 0D4A     		ldr	r2, .L55+12
 571 002a 5A61     		str	r2, [r3, #20]
 536:..//Source/stm/lib/STM32L1xx_HAL_Driver/Src/stm32l1xx_hal_flash.c **** 
 572              		.loc 1 536 0
 573 002c 02F12052 		add	r2, r2, #671088640
 574 0030 02F56912 		add	r2, r2, #3817472
 575 0034 02F65F42 		addw	r2, r2, #3167
 576 0038 5A61     		str	r2, [r3, #20]
 539:..//Source/stm/lib/STM32L1xx_HAL_Driver/Src/stm32l1xx_hal_flash.c ****     {
 577              		.loc 1 539 0
 578 003a 5B68     		ldr	r3, [r3, #4]
 579 003c 13F0040F 		tst	r3, #4
 580 0040 01D1     		bne	.L54
 545:..//Source/stm/lib/STM32L1xx_HAL_Driver/Src/stm32l1xx_hal_flash.c **** }
 581              		.loc 1 545 0
 582 0042 0020     		movs	r0, #0
 546:..//Source/stm/lib/STM32L1xx_HAL_Driver/Src/stm32l1xx_hal_flash.c **** 
 583              		.loc 1 546 0
 584 0044 7047     		bx	lr
 585              	.L54:
 541:..//Source/stm/lib/STM32L1xx_HAL_Driver/Src/stm32l1xx_hal_flash.c ****     }
 586              		.loc 1 541 0
 587 0046 0120     		movs	r0, #1
 588 0048 7047     		bx	lr
 589              	.L51:
 545:..//Source/stm/lib/STM32L1xx_HAL_Driver/Src/stm32l1xx_hal_flash.c **** }
 590              		.loc 1 545 0
ARM GAS  /tmp/ccUlkaTj.s 			page 25


 591 004a 0020     		movs	r0, #0
 592 004c 7047     		bx	lr
 593              	.L52:
 530:..//Source/stm/lib/STM32L1xx_HAL_Driver/Src/stm32l1xx_hal_flash.c ****       }
 594              		.loc 1 530 0
 595 004e 0120     		movs	r0, #1
 596 0050 7047     		bx	lr
 597              	.L56:
 598 0052 00BF     		.align	2
 599              	.L55:
 600 0054 003C0240 		.word	1073888256
 601 0058 EFCDAB89 		.word	-1985229329
 602 005c 05040302 		.word	33752069
 603 0060 C8D9EAFB 		.word	-68494904
 604              		.cfi_endproc
 605              	.LFE79:
 607              		.section	.text.HAL_FLASH_OB_Lock,"ax",%progbits
 608              		.align	1
 609              		.global	HAL_FLASH_OB_Lock
 610              		.syntax unified
 611              		.thumb
 612              		.thumb_func
 613              		.fpu softvfp
 615              	HAL_FLASH_OB_Lock:
 616              	.LFB80:
 553:..//Source/stm/lib/STM32L1xx_HAL_Driver/Src/stm32l1xx_hal_flash.c ****   /* Set the OPTLOCK Bit to lock the option bytes block access */
 617              		.loc 1 553 0
 618              		.cfi_startproc
 619              		@ args = 0, pretend = 0, frame = 0
 620              		@ frame_needed = 0, uses_anonymous_args = 0
 621              		@ link register save eliminated.
 555:..//Source/stm/lib/STM32L1xx_HAL_Driver/Src/stm32l1xx_hal_flash.c ****   
 622              		.loc 1 555 0
 623 0000 034A     		ldr	r2, .L58
 624 0002 5368     		ldr	r3, [r2, #4]
 625 0004 43F00403 		orr	r3, r3, #4
 626 0008 5360     		str	r3, [r2, #4]
 558:..//Source/stm/lib/STM32L1xx_HAL_Driver/Src/stm32l1xx_hal_flash.c ****   
 627              		.loc 1 558 0
 628 000a 0020     		movs	r0, #0
 629 000c 7047     		bx	lr
 630              	.L59:
 631 000e 00BF     		.align	2
 632              	.L58:
 633 0010 003C0240 		.word	1073888256
 634              		.cfi_endproc
 635              	.LFE80:
 637              		.section	.text.HAL_FLASH_GetError,"ax",%progbits
 638              		.align	1
 639              		.global	HAL_FLASH_GetError
 640              		.syntax unified
 641              		.thumb
 642              		.thumb_func
 643              		.fpu softvfp
 645              	HAL_FLASH_GetError:
 646              	.LFB82:
 598:..//Source/stm/lib/STM32L1xx_HAL_Driver/Src/stm32l1xx_hal_flash.c ****    return pFlash.ErrorCode;
ARM GAS  /tmp/ccUlkaTj.s 			page 26


 647              		.loc 1 598 0
 648              		.cfi_startproc
 649              		@ args = 0, pretend = 0, frame = 0
 650              		@ frame_needed = 0, uses_anonymous_args = 0
 651              		@ link register save eliminated.
 599:..//Source/stm/lib/STM32L1xx_HAL_Driver/Src/stm32l1xx_hal_flash.c **** }
 652              		.loc 1 599 0
 653 0000 014B     		ldr	r3, .L61
 654 0002 5869     		ldr	r0, [r3, #20]
 600:..//Source/stm/lib/STM32L1xx_HAL_Driver/Src/stm32l1xx_hal_flash.c **** 
 655              		.loc 1 600 0
 656 0004 7047     		bx	lr
 657              	.L62:
 658 0006 00BF     		.align	2
 659              	.L61:
 660 0008 00000000 		.word	pFlash
 661              		.cfi_endproc
 662              	.LFE82:
 664              		.section	.text.FLASH_WaitForLastOperation,"ax",%progbits
 665              		.align	1
 666              		.global	FLASH_WaitForLastOperation
 667              		.syntax unified
 668              		.thumb
 669              		.thumb_func
 670              		.fpu softvfp
 672              	FLASH_WaitForLastOperation:
 673              	.LFB83:
 620:..//Source/stm/lib/STM32L1xx_HAL_Driver/Src/stm32l1xx_hal_flash.c ****   /* Wait for the FLASH operation to complete by polling on BUSY flag to be reset.
 674              		.loc 1 620 0
 675              		.cfi_startproc
 676              		@ args = 0, pretend = 0, frame = 0
 677              		@ frame_needed = 0, uses_anonymous_args = 0
 678              	.LVL30:
 679 0000 38B5     		push	{r3, r4, r5, lr}
 680              	.LCFI5:
 681              		.cfi_def_cfa_offset 16
 682              		.cfi_offset 3, -16
 683              		.cfi_offset 4, -12
 684              		.cfi_offset 5, -8
 685              		.cfi_offset 14, -4
 686 0002 0446     		mov	r4, r0
 625:..//Source/stm/lib/STM32L1xx_HAL_Driver/Src/stm32l1xx_hal_flash.c ****      
 687              		.loc 1 625 0
 688 0004 FFF7FEFF 		bl	HAL_GetTick
 689              	.LVL31:
 690 0008 0546     		mov	r5, r0
 691              	.LVL32:
 692              	.L65:
 627:..//Source/stm/lib/STM32L1xx_HAL_Driver/Src/stm32l1xx_hal_flash.c ****   { 
 693              		.loc 1 627 0
 694 000a 1A4B     		ldr	r3, .L75
 695 000c 9B69     		ldr	r3, [r3, #24]
 696 000e 13F0010F 		tst	r3, #1
 697 0012 0AD0     		beq	.L74
 629:..//Source/stm/lib/STM32L1xx_HAL_Driver/Src/stm32l1xx_hal_flash.c ****     {
 698              		.loc 1 629 0
 699 0014 B4F1FF3F 		cmp	r4, #-1
ARM GAS  /tmp/ccUlkaTj.s 			page 27


 700 0018 F7D0     		beq	.L65
 631:..//Source/stm/lib/STM32L1xx_HAL_Driver/Src/stm32l1xx_hal_flash.c ****       {
 701              		.loc 1 631 0
 702 001a 34B3     		cbz	r4, .L70
 631:..//Source/stm/lib/STM32L1xx_HAL_Driver/Src/stm32l1xx_hal_flash.c ****       {
 703              		.loc 1 631 0 is_stmt 0 discriminator 1
 704 001c FFF7FEFF 		bl	HAL_GetTick
 705              	.LVL33:
 706 0020 401B     		subs	r0, r0, r5
 707 0022 8442     		cmp	r4, r0
 708 0024 F1D2     		bcs	.L65
 633:..//Source/stm/lib/STM32L1xx_HAL_Driver/Src/stm32l1xx_hal_flash.c ****       }
 709              		.loc 1 633 0 is_stmt 1
 710 0026 0320     		movs	r0, #3
 711 0028 38BD     		pop	{r3, r4, r5, pc}
 712              	.LVL34:
 713              	.L74:
 639:..//Source/stm/lib/STM32L1xx_HAL_Driver/Src/stm32l1xx_hal_flash.c ****   {
 714              		.loc 1 639 0
 715 002a 124B     		ldr	r3, .L75
 716 002c 9B69     		ldr	r3, [r3, #24]
 717 002e 13F0020F 		tst	r3, #2
 718 0032 02D0     		beq	.L68
 642:..//Source/stm/lib/STM32L1xx_HAL_Driver/Src/stm32l1xx_hal_flash.c ****   }
 719              		.loc 1 642 0
 720 0034 0222     		movs	r2, #2
 721 0036 0F4B     		ldr	r3, .L75
 722 0038 9A61     		str	r2, [r3, #24]
 723              	.L68:
 645:..//Source/stm/lib/STM32L1xx_HAL_Driver/Src/stm32l1xx_hal_flash.c ****      __HAL_FLASH_GET_FLAG(FLASH_FLAG_OPTVERR) || 
 724              		.loc 1 645 0
 725 003a 0E4B     		ldr	r3, .L75
 726 003c 9B69     		ldr	r3, [r3, #24]
 727 003e 13F4807F 		tst	r3, #256
 728 0042 0ED1     		bne	.L69
 646:..//Source/stm/lib/STM32L1xx_HAL_Driver/Src/stm32l1xx_hal_flash.c **** #if defined(FLASH_SR_RDERR)
 729              		.loc 1 646 0 discriminator 1
 730 0044 0B4B     		ldr	r3, .L75
 731 0046 9B69     		ldr	r3, [r3, #24]
 645:..//Source/stm/lib/STM32L1xx_HAL_Driver/Src/stm32l1xx_hal_flash.c ****      __HAL_FLASH_GET_FLAG(FLASH_FLAG_OPTVERR) || 
 732              		.loc 1 645 0 discriminator 1
 733 0048 13F4006F 		tst	r3, #2048
 734 004c 09D1     		bne	.L69
 648:..//Source/stm/lib/STM32L1xx_HAL_Driver/Src/stm32l1xx_hal_flash.c **** #endif /* FLASH_SR_RDERR */
 735              		.loc 1 648 0
 736 004e 094B     		ldr	r3, .L75
 737 0050 9B69     		ldr	r3, [r3, #24]
 646:..//Source/stm/lib/STM32L1xx_HAL_Driver/Src/stm32l1xx_hal_flash.c **** #if defined(FLASH_SR_RDERR)
 738              		.loc 1 646 0
 739 0052 13F4005F 		tst	r3, #8192
 740 0056 04D1     		bne	.L69
 653:..//Source/stm/lib/STM32L1xx_HAL_Driver/Src/stm32l1xx_hal_flash.c ****   {
 741              		.loc 1 653 0
 742 0058 064B     		ldr	r3, .L75
 743 005a 9B69     		ldr	r3, [r3, #24]
 648:..//Source/stm/lib/STM32L1xx_HAL_Driver/Src/stm32l1xx_hal_flash.c **** #endif /* FLASH_SR_RDERR */
 744              		.loc 1 648 0
ARM GAS  /tmp/ccUlkaTj.s 			page 28


 745 005c 13F4007F 		tst	r3, #512
 746 0060 05D0     		beq	.L72
 747              	.L69:
 656:..//Source/stm/lib/STM32L1xx_HAL_Driver/Src/stm32l1xx_hal_flash.c ****     return HAL_ERROR;
 748              		.loc 1 656 0
 749 0062 FFF7FEFF 		bl	FLASH_SetErrorCode
 750              	.LVL35:
 657:..//Source/stm/lib/STM32L1xx_HAL_Driver/Src/stm32l1xx_hal_flash.c ****   }
 751              		.loc 1 657 0
 752 0066 0120     		movs	r0, #1
 753 0068 38BD     		pop	{r3, r4, r5, pc}
 754              	.LVL36:
 755              	.L70:
 633:..//Source/stm/lib/STM32L1xx_HAL_Driver/Src/stm32l1xx_hal_flash.c ****       }
 756              		.loc 1 633 0
 757 006a 0320     		movs	r0, #3
 758 006c 38BD     		pop	{r3, r4, r5, pc}
 759              	.LVL37:
 760              	.L72:
 661:..//Source/stm/lib/STM32L1xx_HAL_Driver/Src/stm32l1xx_hal_flash.c **** }
 761              		.loc 1 661 0
 762 006e 0020     		movs	r0, #0
 662:..//Source/stm/lib/STM32L1xx_HAL_Driver/Src/stm32l1xx_hal_flash.c **** 
 763              		.loc 1 662 0
 764 0070 38BD     		pop	{r3, r4, r5, pc}
 765              	.LVL38:
 766              	.L76:
 767 0072 00BF     		.align	2
 768              	.L75:
 769 0074 003C0240 		.word	1073888256
 770              		.cfi_endproc
 771              	.LFE83:
 773              		.section	.text.HAL_FLASH_Program,"ax",%progbits
 774              		.align	1
 775              		.global	HAL_FLASH_Program
 776              		.syntax unified
 777              		.thumb
 778              		.thumb_func
 779              		.fpu softvfp
 781              	HAL_FLASH_Program:
 782              	.LFB72:
 232:..//Source/stm/lib/STM32L1xx_HAL_Driver/Src/stm32l1xx_hal_flash.c ****   HAL_StatusTypeDef status = HAL_ERROR;
 783              		.loc 1 232 0
 784              		.cfi_startproc
 785              		@ args = 0, pretend = 0, frame = 0
 786              		@ frame_needed = 0, uses_anonymous_args = 0
 787              	.LVL39:
 788 0000 38B5     		push	{r3, r4, r5, lr}
 789              	.LCFI6:
 790              		.cfi_def_cfa_offset 16
 791              		.cfi_offset 3, -16
 792              		.cfi_offset 4, -12
 793              		.cfi_offset 5, -8
 794              		.cfi_offset 14, -4
 795              	.LVL40:
 236:..//Source/stm/lib/STM32L1xx_HAL_Driver/Src/stm32l1xx_hal_flash.c **** 
 796              		.loc 1 236 0
ARM GAS  /tmp/ccUlkaTj.s 			page 29


 797 0002 104B     		ldr	r3, .L84
 798 0004 1B7C     		ldrb	r3, [r3, #16]	@ zero_extendqisi2
 799 0006 012B     		cmp	r3, #1
 800 0008 02D1     		bne	.L82
 801 000a 0223     		movs	r3, #2
 802              	.LVL41:
 803              	.L78:
 261:..//Source/stm/lib/STM32L1xx_HAL_Driver/Src/stm32l1xx_hal_flash.c **** 
 804              		.loc 1 261 0
 805 000c 1846     		mov	r0, r3
 806 000e 38BD     		pop	{r3, r4, r5, pc}
 807              	.LVL42:
 808              	.L82:
 809 0010 1546     		mov	r5, r2
 810 0012 0C46     		mov	r4, r1
 236:..//Source/stm/lib/STM32L1xx_HAL_Driver/Src/stm32l1xx_hal_flash.c **** 
 811              		.loc 1 236 0 discriminator 2
 812 0014 0122     		movs	r2, #1
 813              	.LVL43:
 814 0016 0B4B     		ldr	r3, .L84
 815 0018 1A74     		strb	r2, [r3, #16]
 243:..//Source/stm/lib/STM32L1xx_HAL_Driver/Src/stm32l1xx_hal_flash.c ****   
 816              		.loc 1 243 0 discriminator 2
 817 001a 4CF25030 		movw	r0, #50000
 818              	.LVL44:
 819 001e FFF7FEFF 		bl	FLASH_WaitForLastOperation
 820              	.LVL45:
 245:..//Source/stm/lib/STM32L1xx_HAL_Driver/Src/stm32l1xx_hal_flash.c ****   {
 821              		.loc 1 245 0 discriminator 2
 822 0022 0346     		mov	r3, r0
 823 0024 18B1     		cbz	r0, .L83
 824              	.LVL46:
 825              	.L79:
 258:..//Source/stm/lib/STM32L1xx_HAL_Driver/Src/stm32l1xx_hal_flash.c **** 
 826              		.loc 1 258 0
 827 0026 0021     		movs	r1, #0
 828 0028 064A     		ldr	r2, .L84
 829 002a 1174     		strb	r1, [r2, #16]
 260:..//Source/stm/lib/STM32L1xx_HAL_Driver/Src/stm32l1xx_hal_flash.c **** }
 830              		.loc 1 260 0
 831 002c EEE7     		b	.L78
 832              	.LVL47:
 833              	.L83:
 248:..//Source/stm/lib/STM32L1xx_HAL_Driver/Src/stm32l1xx_hal_flash.c **** 
 834              		.loc 1 248 0
 835 002e 0022     		movs	r2, #0
 836 0030 044B     		ldr	r3, .L84
 837 0032 5A61     		str	r2, [r3, #20]
 251:..//Source/stm/lib/STM32L1xx_HAL_Driver/Src/stm32l1xx_hal_flash.c **** 
 838              		.loc 1 251 0
 839 0034 2560     		str	r5, [r4]
 254:..//Source/stm/lib/STM32L1xx_HAL_Driver/Src/stm32l1xx_hal_flash.c ****   }
 840              		.loc 1 254 0
 841 0036 4CF25030 		movw	r0, #50000
 842              	.LVL48:
 843 003a FFF7FEFF 		bl	FLASH_WaitForLastOperation
 844              	.LVL49:
ARM GAS  /tmp/ccUlkaTj.s 			page 30


 845 003e 0346     		mov	r3, r0
 846              	.LVL50:
 847 0040 F1E7     		b	.L79
 848              	.L85:
 849 0042 00BF     		.align	2
 850              	.L84:
 851 0044 00000000 		.word	pFlash
 852              		.cfi_endproc
 853              	.LFE72:
 855              		.section	.text.HAL_FLASH_OB_Launch,"ax",%progbits
 856              		.align	1
 857              		.global	HAL_FLASH_OB_Launch
 858              		.syntax unified
 859              		.thumb
 860              		.thumb_func
 861              		.fpu softvfp
 863              	HAL_FLASH_OB_Launch:
 864              	.LFB81:
 566:..//Source/stm/lib/STM32L1xx_HAL_Driver/Src/stm32l1xx_hal_flash.c ****   /* Set the OBL_Launch bit to launch the option byte loading */
 865              		.loc 1 566 0
 866              		.cfi_startproc
 867              		@ args = 0, pretend = 0, frame = 0
 868              		@ frame_needed = 0, uses_anonymous_args = 0
 869 0000 08B5     		push	{r3, lr}
 870              	.LCFI7:
 871              		.cfi_def_cfa_offset 8
 872              		.cfi_offset 3, -8
 873              		.cfi_offset 14, -4
 568:..//Source/stm/lib/STM32L1xx_HAL_Driver/Src/stm32l1xx_hal_flash.c ****   
 874              		.loc 1 568 0
 875 0002 054A     		ldr	r2, .L88
 876 0004 5368     		ldr	r3, [r2, #4]
 877 0006 43F48023 		orr	r3, r3, #262144
 878 000a 5360     		str	r3, [r2, #4]
 571:..//Source/stm/lib/STM32L1xx_HAL_Driver/Src/stm32l1xx_hal_flash.c **** }
 879              		.loc 1 571 0
 880 000c 4CF25030 		movw	r0, #50000
 881 0010 FFF7FEFF 		bl	FLASH_WaitForLastOperation
 882              	.LVL51:
 572:..//Source/stm/lib/STM32L1xx_HAL_Driver/Src/stm32l1xx_hal_flash.c **** 
 883              		.loc 1 572 0
 884 0014 08BD     		pop	{r3, pc}
 885              	.L89:
 886 0016 00BF     		.align	2
 887              	.L88:
 888 0018 003C0240 		.word	1073888256
 889              		.cfi_endproc
 890              	.LFE81:
 892              		.comm	pFlash,24,4
 893              		.text
 894              	.Letext0:
 895              		.file 2 "/usr/include/newlib/machine/_default_types.h"
 896              		.file 3 "/usr/include/newlib/sys/_stdint.h"
 897              		.file 4 "..//Source/stm/lib/CMSIS/Include/core_cm3.h"
 898              		.file 5 "..//Source/stm/lib/CMSIS/Device/ST/STM32L1xx/Include/system_stm32l1xx.h"
 899              		.file 6 "..//Source/stm/lib/CMSIS/Device/ST/STM32L1xx/Include/stm32l151xba.h"
 900              		.file 7 "..//Source/stm/lib/STM32L1xx_HAL_Driver/Inc/stm32l1xx_hal_def.h"
ARM GAS  /tmp/ccUlkaTj.s 			page 31


 901              		.file 8 "..//Source/stm/lib/STM32L1xx_HAL_Driver/Inc/stm32l1xx_hal_flash.h"
 902              		.file 9 "..//Source/stm/lib/STM32L1xx_HAL_Driver/Inc/stm32l1xx_hal.h"
ARM GAS  /tmp/ccUlkaTj.s 			page 32

